# Linker from Snapdragon LLVM ARM Compiler Version 4.0.3
# Linker based on LLVM version: 4.0
# Notable linker command/script options:
# CPU Architecture Version: 
# Target triple environment for the link: gnueabi
# Maximum GP size: 8
# Link type: Static
# ABI Page Size: 0x4
# CommandLine : D:\4.0.3\bin\ld.qcld.exe -X --eh-frame-hdr -m armelf_linux_eabi -dynamic-linker /lib/ld-musl-arm.so.1 -o target\gizwits_app.elf -lc++ -mno-unaligned-access -entry=0x43000000 D:\GC_connection\GC_connection\objs\txm_module_preamble_llvm.o -Tsdk\ld\quectel_dam_demo.ld -Map -Wl -gc-sections D:\GC_connection\GC_connection\objs\common.o D:\GC_connection\GC_connection\objs\dataPointTools.o D:\GC_connection\GC_connection\objs\gizwits_product.o D:\GC_connection\GC_connection\objs\gizwits_protocol.o D:\GC_connection\GC_connection\objs\led.o D:\GC_connection\GC_connection\objs\main.o D:\GC_connection\GC_connection\objs\quectel_utils.o D:\GC_connection\GC_connection\objs\ringbuffer.o D:\GC_connection\GC_connection\objs\txm_module_preamble_llvm.o D:\GC_connection\GC_connection\gagent\libgagent.a sdk\libs\diag_dam_lib.lib sdk\libs\qapi_psm_lib.lib sdk\libs\timer_dam_lib.lib sdk\libs\txm_lib.lib -LD:\4.0.3\armv7m-none-eabi\libc\lib -LD:\4.0.3\armv7m-none-eabi\lib --start-group -lunwind -lc++ -lc++abi --end-group -LD:\4.0.3\lib\clang\4.0.3\lib\baremetal --start-group -lc -lclang_rt.builtins-armv7m --end-group -lm -lc 
Archive member included because of file (symbol)
D:\GC_connection\GC_connection\gagent\libgagent.a(gagentThread.o)
		D:\GC_connection\GC_connection\objs\txm_module_preamble_llvm.o (sensor_dam_app_start)
D:\GC_connection\GC_connection\gagent\libgagent.a(iofdev.o)
		D:\GC_connection\GC_connection\gagent\libgagent.a(gagentThread.o) (dev_free_heap_size)
D:\GC_connection\GC_connection\gagent\libgagent.a(iofipc.o)
		D:\GC_connection\GC_connection\gagent\libgagent.a(gagentThread.o) (devUnLock)
D:\GC_connection\GC_connection\gagent\libgagent.a(iofpthread.o)
		D:\GC_connection\GC_connection\gagent\libgagent.a(gagentThread.o) (iofPthreadCreate)
D:\GC_connection\GC_connection\gagent\libgagent.a(iofstring.o)
		D:\GC_connection\GC_connection\gagent\libgagent.a(iofipc.o) (devMalloc)
D:\GC_connection\GC_connection\gagent\libgagent.a(local.o)
		D:\GC_connection\GC_connection\objs\gizwits_protocol.o (GAgentEnableBind)
D:\GC_connection\GC_connection\gagent\libgagent.a(localcomm.o)
		D:\GC_connection\GC_connection\gagent\libgagent.a(local.o) (gatEnableBindStart)
D:\GC_connection\GC_connection\gagent\libgagent.a(localio.o)
		D:\GC_connection\GC_connection\gagent\libgagent.a(local.o) (gatLocalioInit)
D:\GC_connection\GC_connection\gagent\libgagent.a(localprotocol.o)
		D:\GC_connection\GC_connection\gagent\libgagent.a(localio.o) (localExtractPacket)
D:\GC_connection\GC_connection\gagent\libgagent.a(nwk_manage.o)
		D:\GC_connection\GC_connection\gagent\libgagent.a(local.o) (gatNwkevtCbRegister)
D:\GC_connection\GC_connection\gagent\libgagent.a(productinfo.o)
		D:\GC_connection\GC_connection\gagent\libgagent.a(local.o) (gatCreatNewPassCode)
D:\GC_connection\GC_connection\gagent\libgagent.a(qlog.o)
		D:\GC_connection\GC_connection\gagent\libgagent.a(gagentThread.o) (qc_dbg_uart_init)
D:\GC_connection\GC_connection\gagent\libgagent.a(semaph.o)
		D:\GC_connection\GC_connection\gagent\libgagent.a(gagentThread.o) (iofSemInit)
D:\GC_connection\GC_connection\gagent\libgagent.a(simulatorcomm.o)
		D:\GC_connection\GC_connection\objs\gizwits_protocol.o (gagentUploadData)
D:\GC_connection\GC_connection\gagent\libgagent.a(tcp.o)
		D:\GC_connection\GC_connection\gagent\libgagent.a(iofpthread.o) (gatTcpDataSendHandle)
D:\GC_connection\GC_connection\gagent\libgagent.a(timer_subsystem.o)
		D:\GC_connection\GC_connection\gagent\libgagent.a(local.o) (gatTimerAdd)
D:\GC_connection\GC_connection\gagent\libgagent.a(aes.o)
		D:\GC_connection\GC_connection\gagent\libgagent.a(localcomm.o) (aesECB128Encrypt)
D:\GC_connection\GC_connection\gagent\libgagent.a(aesdata.o)
		D:\GC_connection\GC_connection\gagent\libgagent.a(aes.o) (invSboxAssign)
D:\GC_connection\GC_connection\gagent\libgagent.a(authorization.o)
		D:\GC_connection\GC_connection\gagent\libgagent.a(local.o) (gatAuthInit)
D:\GC_connection\GC_connection\gagent\libgagent.a(dp.o)
		D:\GC_connection\GC_connection\gagent\libgagent.a(localcomm.o) (dpTrans)
D:\GC_connection\GC_connection\gagent\libgagent.a(env.o)
		D:\GC_connection\GC_connection\gagent\libgagent.a(productinfo.o) (gatEnvRead)
D:\GC_connection\GC_connection\gagent\libgagent.a(gagent.o)
		D:\GC_connection\GC_connection\gagent\libgagent.a(localcomm.o) (gatCleanConfigData)
D:\GC_connection\GC_connection\gagent\libgagent.a(gatlist.o)
		D:\GC_connection\GC_connection\gagent\libgagent.a(timer_subsystem.o) (gatListAdd)
D:\GC_connection\GC_connection\gagent\libgagent.a(gatm2m.o)
		D:\GC_connection\GC_connection\gagent\libgagent.a(gagent.o) (gatM2MInit)
D:\GC_connection\GC_connection\gagent\libgagent.a(gatnet.o)
		D:\GC_connection\GC_connection\gagent\libgagent.a(localcomm.o) (gatEnterTestMode)
D:\GC_connection\GC_connection\gagent\libgagent.a(gatutilcode.o)
		D:\GC_connection\GC_connection\gagent\libgagent.a(local.o) (encryptDisplay)
D:\GC_connection\GC_connection\gagent\libgagent.a(gdns.o)
		D:\GC_connection\GC_connection\gagent\libgagent.a(gagent.o) (gatDnsTask)
D:\GC_connection\GC_connection\gagent\libgagent.a(gserver.o)
		D:\GC_connection\GC_connection\gagent\libgagent.a(gagent.o) (gatGServerInit)
D:\GC_connection\GC_connection\gagent\libgagent.a(httpgat.o)
		D:\GC_connection\GC_connection\gagent\libgagent.a(gagent.o) (gatHttpInit)
D:\GC_connection\GC_connection\gagent\libgagent.a(ioffile.o)
		D:\GC_connection\GC_connection\gagent\libgagent.a(env.o) (iofFileClose)
D:\GC_connection\GC_connection\gagent\libgagent.a(iofnet.o)
		D:\GC_connection\GC_connection\gagent\libgagent.a(localcomm.o) (gatIofNetGetRssi)
D:\GC_connection\GC_connection\gagent\libgagent.a(iofserial.o)
		D:\GC_connection\GC_connection\gagent\libgagent.a(localio.o) (iofSerialInit)
D:\GC_connection\GC_connection\gagent\libgagent.a(iofsocket.o)
		D:\GC_connection\GC_connection\gagent\libgagent.a(tcp.o) (gatIofSelect)
D:\GC_connection\GC_connection\gagent\libgagent.a(ioftime.o)
		D:\GC_connection\GC_connection\gagent\libgagent.a(productinfo.o) (getDevTime_MS)
D:\GC_connection\GC_connection\gagent\libgagent.a(lanvirtual.o)
		D:\GC_connection\GC_connection\gagent\libgagent.a(simulatorcomm.o) (gatLanLoginClientNumGet)
D:\GC_connection\GC_connection\gagent\libgagent.a(mqttgat.o)
		D:\GC_connection\GC_connection\gagent\libgagent.a(gatm2m.o) (gatCleanMqttCacheBuf)
D:\GC_connection\GC_connection\gagent\libgagent.a(mqttlib.o)
		D:\GC_connection\GC_connection\gagent\libgagent.a(mqttgat.o) (mqtt_connect)
D:\GC_connection\GC_connection\gagent\libgagent.a(otawan.o)
		D:\GC_connection\GC_connection\gagent\libgagent.a(gagent.o) (gatOTAEventHandle)
D:\GC_connection\GC_connection\gagent\libgagent.a(cmdtable.o)
		D:\GC_connection\GC_connection\gagent\libgagent.a(dp.o) (protCmdTab)
D:\GC_connection\GC_connection\gagent\libgagent.a(gagent_md5.o)
		D:\GC_connection\GC_connection\gagent\libgagent.a(gserver.o) (GAgent_MD5Final)
D:\GC_connection\GC_connection\gagent\libgagent.a(simulator.o)
		D:\GC_connection\GC_connection\gagent\libgagent.a(cmdtable.o) (onSimulatorLoginCb)
sdk\libs\timer_dam_lib.lib(qapi_timer_user.o)
		D:\GC_connection\GC_connection\objs\gizwits_protocol.o (qapi_Timer_Def)
sdk\libs\txm_lib.lib(txm_module_thread_shell_entry.o)
		D:\GC_connection\GC_connection\objs\gizwits_protocol.o (_txm_module_kernel_call_dispatcher)
sdk\libs\txm_lib.lib(txm_module_callback_request_thread_entry.o)
		D:\GC_connection\GC_connection\objs\txm_module_preamble_llvm.o (_txm_module_callback_request_thread_entry)
sdk\libs\txm_lib.lib(txm_module_system_call11.o)
		D:\GC_connection\GC_connection\objs\gizwits_protocol.o (_txm_module_system_call11)
sdk\libs\txm_lib.lib(txm_module_system_call12.o)
		D:\GC_connection\GC_connection\objs\led.o (_txm_module_system_call12)
sdk\libs\txm_lib.lib(txm_module_system_call4.o)
		D:\GC_connection\GC_connection\objs\gizwits_protocol.o (_txm_module_system_call4)
sdk\libs\txm_lib.lib(txm_module_system_call5.o)
		D:\GC_connection\GC_connection\objs\gizwits_protocol.o (_txm_module_system_call5)
sdk\libs\txm_lib.lib(txm_module_system_call6.o)
		D:\GC_connection\GC_connection\objs\gizwits_protocol.o (_txm_module_system_call6)
sdk\libs\txm_lib.lib(txm_module_system_call7.o)
		D:\GC_connection\GC_connection\gagent\libgagent.a(iofstring.o) (_txm_module_system_call7)
sdk\libs\txm_lib.lib(txm_module_system_call8.o)
		D:\GC_connection\GC_connection\objs\main.o (_txm_module_system_call8)
D:\4.0.3\armv7m-none-eabi\libc\lib/libc.a(tolower.o)
		D:\GC_connection\GC_connection\gagent\libgagent.a(otawan.o) (tolower)
D:\4.0.3\armv7m-none-eabi\libc\lib/libc.a(toupper.o)
		D:\GC_connection\GC_connection\objs\common.o (toupper)
D:\4.0.3\armv7m-none-eabi\libc\lib/libc.a(malloc.o)
		D:\GC_connection\GC_connection\objs\gizwits_protocol.o (malloc)
D:\4.0.3\armv7m-none-eabi\libc\lib/libc.a(madvise.o)
		D:\4.0.3\armv7m-none-eabi\libc\lib/libc.a(malloc.o) (__madvise)
D:\4.0.3\armv7m-none-eabi\libc\lib/libc.a(mremap.o)
		D:\4.0.3\armv7m-none-eabi\libc\lib/libc.a(malloc.o) (__mremap)
D:\4.0.3\armv7m-none-eabi\libc\lib/libc.a(munmap.o)
		D:\4.0.3\armv7m-none-eabi\libc\lib/libc.a(malloc.o) (__munmap)
D:\4.0.3\armv7m-none-eabi\libc\lib/libc.a(rand.o)
		D:\GC_connection\GC_connection\gagent\libgagent.a(productinfo.o) (srand)
D:\4.0.3\armv7m-none-eabi\libc\lib/libc.a(vfprintf.o)
		D:\GC_connection\GC_connection\objs\quectel_utils.o (vsnprintf)
D:\4.0.3\armv7m-none-eabi\libc\lib/libc.a(fwrite.o)
		D:\4.0.3\armv7m-none-eabi\libc\lib/libc.a(vfprintf.o) (__fwritex)
D:\4.0.3\armv7m-none-eabi\libc\lib/libc.a(snprintf.o)
		D:\GC_connection\GC_connection\gagent\libgagent.a(iofnet.o) (snprintf)
D:\4.0.3\armv7m-none-eabi\libc\lib/libc.a(sprintf.o)
		D:\GC_connection\GC_connection\gagent\libgagent.a(localcomm.o) (sprintf)
D:\4.0.3\armv7m-none-eabi\libc\lib/libc.a(vsnprintf.o)
		D:\4.0.3\armv7m-none-eabi\libc\lib/libc.a(vfprintf.o) (vsnprintf_full)
D:\4.0.3\armv7m-none-eabi\libc\lib/libc.a(vsprintf.o)
		D:\4.0.3\armv7m-none-eabi\libc\lib/libc.a(sprintf.o) (vsprintf)
D:\4.0.3\armv7m-none-eabi\libc\lib/libc.a(strtol.o)
		D:\GC_connection\GC_connection\gagent\libgagent.a(otawan.o) (strtol)
D:\4.0.3\armv7m-none-eabi\libc\lib/libc.a(__aeabi_memclr.o)
		D:\4.0.3\armv7m-none-eabi\libc\lib/libc.a(vfprintf.o) (__aeabi_memclr4)
D:\4.0.3\armv7m-none-eabi\libc\lib/libc.a(__aeabi_memcpy.o)
		D:\4.0.3\armv7m-none-eabi\libc\lib/libc.a(vsnprintf.o) (__aeabi_memcpy8)
D:\4.0.3\armv7m-none-eabi\libc\lib/libc.a(memcpy_le.o)
		D:\GC_connection\GC_connection\objs\common.o (memcpy)
D:\4.0.3\armv7m-none-eabi\libc\lib/libc.a(memset_nofp_armv7.o)
		D:\GC_connection\GC_connection\objs\gizwits_product.o (memset)
D:\4.0.3\armv7m-none-eabi\libc\lib/libc.a(memchr.o)
		D:\4.0.3\armv7m-none-eabi\libc\lib/libc.a(vfprintf.o) (memchr)
D:\4.0.3\armv7m-none-eabi\libc\lib/libc.a(memcmp.o)
		D:\GC_connection\GC_connection\gagent\libgagent.a(local.o) (memcmp)
D:\4.0.3\armv7m-none-eabi\libc\lib/libc.a(strchr.o)
		D:\GC_connection\GC_connection\gagent\libgagent.a(gatm2m.o) (strchr)
D:\4.0.3\armv7m-none-eabi\libc\lib/libc.a(strchrnul.o)
		D:\4.0.3\armv7m-none-eabi\libc\lib/libc.a(strchr.o) (__strchrnul)
D:\4.0.3\armv7m-none-eabi\libc\lib/libc.a(strcmp.o)
		D:\GC_connection\GC_connection\gagent\libgagent.a(local.o) (strcmp)
D:\4.0.3\armv7m-none-eabi\libc\lib/libc.a(strcpy.o)
		D:\GC_connection\GC_connection\gagent\libgagent.a(local.o) (strcpy)
D:\4.0.3\armv7m-none-eabi\libc\lib/libc.a(strlen.o)
		D:\GC_connection\GC_connection\objs\common.o (strlen)
D:\4.0.3\armv7m-none-eabi\libc\lib/libc.a(strncasecmp.o)
		D:\GC_connection\GC_connection\gagent\libgagent.a(iofstring.o) (strncasecmp)
D:\4.0.3\armv7m-none-eabi\libc\lib/libc.a(strncmp.o)
		D:\GC_connection\GC_connection\gagent\libgagent.a(dp.o) (strncmp)
D:\4.0.3\armv7m-none-eabi\libc\lib/libc.a(strncpy.o)
		D:\GC_connection\GC_connection\gagent\libgagent.a(productinfo.o) (strncpy)
D:\4.0.3\armv7m-none-eabi\libc\lib/libc.a(strstr.o)
		D:\GC_connection\GC_connection\gagent\libgagent.a(gatutilcode.o) (strstr)
D:\4.0.3\armv7m-none-eabi\libc\lib/libc.a(__wait.o)
		D:\4.0.3\armv7m-none-eabi\libc\lib/libc.a(malloc.o) (__wait)
D:\4.0.3\armv7m-none-eabi\libc\lib/libc.a(__errno_location.o)
		D:\4.0.3\armv7m-none-eabi\libc\lib/libc.a(malloc.o) (__errno_location)
D:\4.0.3\armv7m-none-eabi\libc\lib/libc.a(strerror.o)
		D:\4.0.3\armv7m-none-eabi\libc\lib/libc.a(vfprintf.o) (strerror)
D:\4.0.3\armv7m-none-eabi\libc\lib/libc.a(intscan.o)
		D:\4.0.3\armv7m-none-eabi\libc\lib/libc.a(strtol.o) (__intscan)
D:\4.0.3\armv7m-none-eabi\libc\lib/libc.a(libc.o)
		D:\4.0.3\armv7m-none-eabi\libc\lib/libc.a(malloc.o) (__libc)
D:\4.0.3\armv7m-none-eabi\libc\lib/libc.a(shgetc.o)
		D:\4.0.3\armv7m-none-eabi\libc\lib/libc.a(strtol.o) (__shlim)
D:\4.0.3\armv7m-none-eabi\libc\lib/libc.a(syscall_ret.o)
		D:\4.0.3\armv7m-none-eabi\libc\lib/libc.a(madvise.o) (__syscall_ret)
D:\4.0.3\armv7m-none-eabi\libc\lib/libc.a(__lctrans.o)
		D:\4.0.3\armv7m-none-eabi\libc\lib/libc.a(strerror.o) (__lctrans)
D:\4.0.3\armv7m-none-eabi\libc\lib/libc.a(expand_heap.o)
		D:\4.0.3\armv7m-none-eabi\libc\lib/libc.a(malloc.o) (__expand_heap)
D:\4.0.3\armv7m-none-eabi\libc\lib/libc.a(wctomb.o)
		D:\4.0.3\armv7m-none-eabi\libc\lib/libc.a(vfprintf.o) (wctomb)
D:\4.0.3\armv7m-none-eabi\libc\lib/libc.a(__towrite.o)
		D:\4.0.3\armv7m-none-eabi\libc\lib/libc.a(fwrite.o) (__towrite)
D:\4.0.3\armv7m-none-eabi\libc\lib/libc.a(__uflow.o)
		D:\4.0.3\armv7m-none-eabi\libc\lib/libc.a(shgetc.o) (__uflow)
D:\4.0.3\armv7m-none-eabi\libc\lib/libc.a(__lockfile.o)
		D:\4.0.3\armv7m-none-eabi\libc\lib/libc.a(vfprintf.o) (__lockfile)
D:\4.0.3\armv7m-none-eabi\libc\lib/libc.a(stpcpy.o)
		D:\4.0.3\armv7m-none-eabi\libc\lib/libc.a(strcpy.o) (__stpcpy)
D:\4.0.3\armv7m-none-eabi\libc\lib/libc.a(stpncpy.o)
		D:\4.0.3\armv7m-none-eabi\libc\lib/libc.a(strncpy.o) (__stpncpy)
D:\4.0.3\armv7m-none-eabi\libc\lib/libc.a(__brk.o)
		D:\4.0.3\armv7m-none-eabi\libc\lib/libc.a(expand_heap.o) (__brk)
D:\4.0.3\armv7m-none-eabi\libc\lib/libc.a(wcrtomb.o)
		D:\4.0.3\armv7m-none-eabi\libc\lib/libc.a(wctomb.o) (wcrtomb)
D:\4.0.3\armv7m-none-eabi\libc\lib/libc.a(__stdio_exit.o)
		D:\4.0.3\armv7m-none-eabi\libc\lib/libc.a(__towrite.o) (__stdio_exit_needed)
D:\4.0.3\armv7m-none-eabi\libc\lib/libc.a(__toread.o)
		D:\4.0.3\armv7m-none-eabi\libc\lib/libc.a(__uflow.o) (__toread)
D:\4.0.3\armv7m-none-eabi\libc\lib/libc.a(ofl.o)
		D:\4.0.3\armv7m-none-eabi\libc\lib/libc.a(__stdio_exit.o) (__ofl_lock)
D:\4.0.3\lib\clang\4.0.3\lib\baremetal/libclang_rt.builtins-armv7m.a(aeabi_uldivmod.S.obj)
		D:\4.0.3\armv7m-none-eabi\libc\lib/libc.a(vfprintf.o) (__aeabi_uldivmod)
D:\4.0.3\lib\clang\4.0.3\lib\baremetal/libclang_rt.builtins-armv7m.a(addsf3.c.obj)
		D:\GC_connection\GC_connection\objs\dataPointTools.o (__aeabi_fadd)
D:\4.0.3\lib\clang\4.0.3\lib\baremetal/libclang_rt.builtins-armv7m.a(divsf3.c.obj)
		D:\GC_connection\GC_connection\objs\dataPointTools.o (__aeabi_fdiv)
D:\4.0.3\lib\clang\4.0.3\lib\baremetal/libclang_rt.builtins-armv7m.a(fixdfsi.c.obj)
		D:\GC_connection\GC_connection\gagent\libgagent.a(ioftime.o) (__aeabi_d2iz)
D:\4.0.3\lib\clang\4.0.3\lib\baremetal/libclang_rt.builtins-armv7m.a(fixunssfsi.c.obj)
		D:\GC_connection\GC_connection\objs\dataPointTools.o (__aeabi_f2uiz)
D:\4.0.3\lib\clang\4.0.3\lib\baremetal/libclang_rt.builtins-armv7m.a(floatsisf.c.obj)
		D:\4.0.3\armv7m-none-eabi\libc\lib/libc.a(malloc.o) (__aeabi_i2f)
D:\4.0.3\lib\clang\4.0.3\lib\baremetal/libclang_rt.builtins-armv7m.a(floatunsidf.c.obj)
		D:\GC_connection\GC_connection\gagent\libgagent.a(ioftime.o) (__aeabi_ui2d)
D:\4.0.3\lib\clang\4.0.3\lib\baremetal/libclang_rt.builtins-armv7m.a(floatunsisf.c.obj)
		D:\GC_connection\GC_connection\objs\dataPointTools.o (__aeabi_ui2f)
D:\4.0.3\lib\clang\4.0.3\lib\baremetal/libclang_rt.builtins-armv7m.a(muldf3.c.obj)
		D:\GC_connection\GC_connection\gagent\libgagent.a(ioftime.o) (__aeabi_dmul)
D:\4.0.3\lib\clang\4.0.3\lib\baremetal/libclang_rt.builtins-armv7m.a(mulsf3.c.obj)
		D:\GC_connection\GC_connection\objs\dataPointTools.o (__aeabi_fmul)
D:\4.0.3\lib\clang\4.0.3\lib\baremetal/libclang_rt.builtins-armv7m.a(subsf3.c.obj)
		D:\GC_connection\GC_connection\objs\dataPointTools.o (__aeabi_fsub)
D:\4.0.3\lib\clang\4.0.3\lib\baremetal/libclang_rt.builtins-armv7m.a(udivmoddi4.c.obj)
		D:\4.0.3\lib\clang\4.0.3\lib\baremetal/libclang_rt.builtins-armv7m.a(aeabi_uldivmod.S.obj) (__udivmoddi4)

Allocating common symbols
Common symbol	size	file

currentDataPoint	0x16	D:\GC_connection\GC_connection\objs\gizwits_product.o
free_memory_task	0x20000	D:\GC_connection\GC_connection\objs\gizwits_protocol.o
gizTaskStack	0x4000	D:\GC_connection\GC_connection\objs\gizwits_protocol.o
gizwitsProtocol	0x3de	D:\GC_connection\GC_connection\objs\gizwits_protocol.o
byte_pool_task	0x4	D:\GC_connection\GC_connection\objs\gizwits_protocol.o
gizTaskHandle	0x4	D:\GC_connection\GC_connection\objs\gizwits_protocol.o
timer_def_attr	0x10	D:\GC_connection\GC_connection\objs\gizwits_protocol.o
timer_handle	0x4	D:\GC_connection\GC_connection\objs\gizwits_protocol.o
timer_set_attr	0x18	D:\GC_connection\GC_connection\objs\gizwits_protocol.o
led_pin_num_pressure	0x1	D:\GC_connection\GC_connection\objs\main.o
gpio_id_tbl	0x1c	D:\GC_connection\GC_connection\objs\main.o
tlmm_config	0x118	D:\GC_connection\GC_connection\objs\main.o
userTimer	0x4	D:\GC_connection\GC_connection\objs\main.o
free_memory_gagent	0x40000	D:\GC_connection\GC_connection\gagent\libgagent.a(gagentThread.o)
byte_pool_gagent	0x4	D:\GC_connection\GC_connection\gagent\libgagent.a(gagentThread.o)
gatThread_Handle	0x4	D:\GC_connection\GC_connection\gagent\libgagent.a(gagentThread.o)
gatapp_stack	0x4	D:\GC_connection\GC_connection\gagent\libgagent.a(gagentThread.o)
netConPara	0x100	D:\GC_connection\GC_connection\gagent\libgagent.a(gatnet.o)
httpRecCore	0x14	D:\GC_connection\GC_connection\gagent\libgagent.a(httpgat.o)
httpSendCore	0x14	D:\GC_connection\GC_connection\gagent\libgagent.a(httpgat.o)
gatQueue	0x4	D:\GC_connection\GC_connection\gagent\libgagent.a(iofipc.o)
tcp_signal_handle	0x4	D:\GC_connection\GC_connection\gagent\libgagent.a(iofnet.o)
gatDnsTid	0x4	D:\GC_connection\GC_connection\gagent\libgagent.a(iofpthread.o)
gatNetTid	0x4	D:\GC_connection\GC_connection\gagent\libgagent.a(iofpthread.o)
gatSerialRecTid	0x4	D:\GC_connection\GC_connection\gagent\libgagent.a(iofpthread.o)
gatSerialSendTid	0x4	D:\GC_connection\GC_connection\gagent\libgagent.a(iofpthread.o)
gatTaskProcessTid	0x4	D:\GC_connection\GC_connection\gagent\libgagent.a(iofpthread.o)
gatTcpDataRecTid	0x4	D:\GC_connection\GC_connection\gagent\libgagent.a(iofpthread.o)
gatTcpDataSendTid	0x4	D:\GC_connection\GC_connection\gagent\libgagent.a(iofpthread.o)
gatTcpServerTid	0x4	D:\GC_connection\GC_connection\gagent\libgagent.a(iofpthread.o)
gatUdpRecTid	0x4	D:\GC_connection\GC_connection\gagent\libgagent.a(iofpthread.o)
gatUdpSendTid	0x4	D:\GC_connection\GC_connection\gagent\libgagent.a(iofpthread.o)
fdList	0x4	D:\GC_connection\GC_connection\gagent\libgagent.a(iofserial.o)
uart_conf	0x1c	D:\GC_connection\GC_connection\gagent\libgagent.a(qlog.o)
tcpChListNr	0x54	D:\GC_connection\GC_connection\gagent\libgagent.a(tcp.o)
tcpDataNodeNr	0x14	D:\GC_connection\GC_connection\gagent\libgagent.a(tcp.o)
tcpSendNr	0x1c	D:\GC_connection\GC_connection\gagent\libgagent.a(tcp.o)
gatTimerCore	0x14	D:\GC_connection\GC_connection\gagent\libgagent.a(timer_subsystem.o)
timer_client_stack	0x1000	sdk\libs\timer_dam_lib.lib(qapi_timer_user.o)
timer_client_module_thread	0x4	sdk\libs\timer_dam_lib.lib(qapi_timer_user.o)
timer_thread_state	0x4	sdk\libs\timer_dam_lib.lib(qapi_timer_user.o)
timer_user_handle	0x4	sdk\libs\timer_dam_lib.lib(qapi_timer_user.o)
_txm_module_entry_info	0x4	sdk\libs\txm_lib.lib(txm_module_thread_shell_entry.o)
_txm_module_instance_ptr	0x4	sdk\libs\txm_lib.lib(txm_module_thread_shell_entry.o)
_txm_module_kernel_call_dispatcher	0x4	sdk\libs\txm_lib.lib(txm_module_thread_shell_entry.o)
__libc	0x40	D:\4.0.3\armv7m-none-eabi\libc\lib/libc.a(libc.o)

Linker Script and memory map
LOAD D:\GC_connection\GC_connection\objs\txm_module_preamble_llvm.o[]
LOAD D:\GC_connection\GC_connection\objs\common.o[]
LOAD D:\GC_connection\GC_connection\objs\dataPointTools.o[]
LOAD D:\GC_connection\GC_connection\objs\gizwits_product.o[]
LOAD D:\GC_connection\GC_connection\objs\gizwits_protocol.o[]
LOAD D:\GC_connection\GC_connection\objs\led.o[]
LOAD D:\GC_connection\GC_connection\objs\main.o[]
LOAD D:\GC_connection\GC_connection\objs\quectel_utils.o[]
LOAD D:\GC_connection\GC_connection\objs\ringbuffer.o[]
SKIPPED D:\GC_connection\GC_connection\objs\txm_module_preamble_llvm.o (ELF)
LOAD D:\GC_connection\GC_connection\gagent\libgagent.a(gagentThread.o) []
LOAD D:\GC_connection\GC_connection\gagent\libgagent.a(iofdev.o) []
LOAD D:\GC_connection\GC_connection\gagent\libgagent.a(iofipc.o) []
LOAD D:\GC_connection\GC_connection\gagent\libgagent.a(iofpthread.o) []
LOAD D:\GC_connection\GC_connection\gagent\libgagent.a(iofstring.o) []
LOAD D:\GC_connection\GC_connection\gagent\libgagent.a(local.o) []
LOAD D:\GC_connection\GC_connection\gagent\libgagent.a(localcomm.o) []
LOAD D:\GC_connection\GC_connection\gagent\libgagent.a(localio.o) []
LOAD D:\GC_connection\GC_connection\gagent\libgagent.a(localprotocol.o) []
LOAD D:\GC_connection\GC_connection\gagent\libgagent.a(nwk_manage.o) []
LOAD D:\GC_connection\GC_connection\gagent\libgagent.a(productinfo.o) []
LOAD D:\GC_connection\GC_connection\gagent\libgagent.a(qlog.o) []
LOAD D:\GC_connection\GC_connection\gagent\libgagent.a(semaph.o) []
LOAD D:\GC_connection\GC_connection\gagent\libgagent.a(simulatorcomm.o) []
LOAD D:\GC_connection\GC_connection\gagent\libgagent.a(tcp.o) []
LOAD D:\GC_connection\GC_connection\gagent\libgagent.a(timer_subsystem.o) []
LOAD D:\GC_connection\GC_connection\gagent\libgagent.a(aes.o) []
LOAD D:\GC_connection\GC_connection\gagent\libgagent.a(aesdata.o) []
LOAD D:\GC_connection\GC_connection\gagent\libgagent.a(authorization.o) []
LOAD D:\GC_connection\GC_connection\gagent\libgagent.a(dp.o) []
LOAD D:\GC_connection\GC_connection\gagent\libgagent.a(env.o) []
LOAD D:\GC_connection\GC_connection\gagent\libgagent.a(gagent.o) []
LOAD D:\GC_connection\GC_connection\gagent\libgagent.a(gatlist.o) []
LOAD D:\GC_connection\GC_connection\gagent\libgagent.a(gatm2m.o) []
LOAD D:\GC_connection\GC_connection\gagent\libgagent.a(gatnet.o) []
LOAD D:\GC_connection\GC_connection\gagent\libgagent.a(gatutilcode.o) []
LOAD D:\GC_connection\GC_connection\gagent\libgagent.a(gdns.o) []
LOAD D:\GC_connection\GC_connection\gagent\libgagent.a(gserver.o) []
LOAD D:\GC_connection\GC_connection\gagent\libgagent.a(httpgat.o) []
LOAD D:\GC_connection\GC_connection\gagent\libgagent.a(ioffile.o) []
LOAD D:\GC_connection\GC_connection\gagent\libgagent.a(iofnet.o) []
LOAD D:\GC_connection\GC_connection\gagent\libgagent.a(iofserial.o) []
LOAD D:\GC_connection\GC_connection\gagent\libgagent.a(iofsocket.o) []
LOAD D:\GC_connection\GC_connection\gagent\libgagent.a(ioftime.o) []
LOAD D:\GC_connection\GC_connection\gagent\libgagent.a(lanvirtual.o) []
LOAD D:\GC_connection\GC_connection\gagent\libgagent.a(mqttgat.o) []
LOAD D:\GC_connection\GC_connection\gagent\libgagent.a(mqttlib.o) []
LOAD D:\GC_connection\GC_connection\gagent\libgagent.a(otawan.o) []
LOAD D:\GC_connection\GC_connection\gagent\libgagent.a(cmdtable.o) []
LOAD D:\GC_connection\GC_connection\gagent\libgagent.a(gagent_md5.o) []
LOAD D:\GC_connection\GC_connection\gagent\libgagent.a(simulator.o) []
LOAD sdk\libs\timer_dam_lib.lib(qapi_timer_user.o) []
LOAD sdk\libs\txm_lib.lib(txm_module_thread_shell_entry.o) []
LOAD sdk\libs\txm_lib.lib(txm_module_callback_request_thread_entry.o) []
LOAD sdk\libs\txm_lib.lib(txm_module_system_call11.o) []
LOAD sdk\libs\txm_lib.lib(txm_module_system_call12.o) []
LOAD sdk\libs\txm_lib.lib(txm_module_system_call4.o) []
LOAD sdk\libs\txm_lib.lib(txm_module_system_call5.o) []
LOAD sdk\libs\txm_lib.lib(txm_module_system_call6.o) []
LOAD sdk\libs\txm_lib.lib(txm_module_system_call7.o) []
LOAD sdk\libs\txm_lib.lib(txm_module_system_call8.o) []
START GROUP
END GROUP
START GROUP
LOAD D:\4.0.3\armv7m-none-eabi\libc\lib/libc.a(tolower.o) []
LOAD D:\4.0.3\armv7m-none-eabi\libc\lib/libc.a(toupper.o) []
LOAD D:\4.0.3\armv7m-none-eabi\libc\lib/libc.a(malloc.o) []
LOAD D:\4.0.3\armv7m-none-eabi\libc\lib/libc.a(madvise.o) []
LOAD D:\4.0.3\armv7m-none-eabi\libc\lib/libc.a(mremap.o) []
LOAD D:\4.0.3\armv7m-none-eabi\libc\lib/libc.a(munmap.o) []
LOAD D:\4.0.3\armv7m-none-eabi\libc\lib/libc.a(rand.o) []
LOAD D:\4.0.3\armv7m-none-eabi\libc\lib/libc.a(vfprintf.o) []
LOAD D:\4.0.3\armv7m-none-eabi\libc\lib/libc.a(fwrite.o) []
LOAD D:\4.0.3\armv7m-none-eabi\libc\lib/libc.a(snprintf.o) []
LOAD D:\4.0.3\armv7m-none-eabi\libc\lib/libc.a(sprintf.o) []
LOAD D:\4.0.3\armv7m-none-eabi\libc\lib/libc.a(vsnprintf.o) []
LOAD D:\4.0.3\armv7m-none-eabi\libc\lib/libc.a(vsprintf.o) []
LOAD D:\4.0.3\armv7m-none-eabi\libc\lib/libc.a(strtol.o) []
LOAD D:\4.0.3\armv7m-none-eabi\libc\lib/libc.a(__aeabi_memclr.o) []
LOAD D:\4.0.3\armv7m-none-eabi\libc\lib/libc.a(__aeabi_memcpy.o) []
LOAD D:\4.0.3\armv7m-none-eabi\libc\lib/libc.a(memcpy_le.o) []
LOAD D:\4.0.3\armv7m-none-eabi\libc\lib/libc.a(memset_nofp_armv7.o) []
LOAD D:\4.0.3\armv7m-none-eabi\libc\lib/libc.a(memchr.o) []
LOAD D:\4.0.3\armv7m-none-eabi\libc\lib/libc.a(memcmp.o) []
LOAD D:\4.0.3\armv7m-none-eabi\libc\lib/libc.a(strchr.o) []
LOAD D:\4.0.3\armv7m-none-eabi\libc\lib/libc.a(strchrnul.o) []
LOAD D:\4.0.3\armv7m-none-eabi\libc\lib/libc.a(strcmp.o) []
LOAD D:\4.0.3\armv7m-none-eabi\libc\lib/libc.a(strcpy.o) []
LOAD D:\4.0.3\armv7m-none-eabi\libc\lib/libc.a(strlen.o) []
LOAD D:\4.0.3\armv7m-none-eabi\libc\lib/libc.a(strncasecmp.o) []
LOAD D:\4.0.3\armv7m-none-eabi\libc\lib/libc.a(strncmp.o) []
LOAD D:\4.0.3\armv7m-none-eabi\libc\lib/libc.a(strncpy.o) []
LOAD D:\4.0.3\armv7m-none-eabi\libc\lib/libc.a(strstr.o) []
LOAD D:\4.0.3\armv7m-none-eabi\libc\lib/libc.a(__wait.o) []
LOAD D:\4.0.3\armv7m-none-eabi\libc\lib/libc.a(__errno_location.o) []
LOAD D:\4.0.3\armv7m-none-eabi\libc\lib/libc.a(strerror.o) []
LOAD D:\4.0.3\armv7m-none-eabi\libc\lib/libc.a(intscan.o) []
LOAD D:\4.0.3\armv7m-none-eabi\libc\lib/libc.a(libc.o) []
LOAD D:\4.0.3\armv7m-none-eabi\libc\lib/libc.a(shgetc.o) []
LOAD D:\4.0.3\armv7m-none-eabi\libc\lib/libc.a(syscall_ret.o) []
LOAD D:\4.0.3\armv7m-none-eabi\libc\lib/libc.a(__lctrans.o) []
LOAD D:\4.0.3\armv7m-none-eabi\libc\lib/libc.a(expand_heap.o) []
LOAD D:\4.0.3\armv7m-none-eabi\libc\lib/libc.a(wctomb.o) []
LOAD D:\4.0.3\armv7m-none-eabi\libc\lib/libc.a(__towrite.o) []
LOAD D:\4.0.3\armv7m-none-eabi\libc\lib/libc.a(__uflow.o) []
LOAD D:\4.0.3\armv7m-none-eabi\libc\lib/libc.a(__lockfile.o) []
LOAD D:\4.0.3\armv7m-none-eabi\libc\lib/libc.a(stpcpy.o) []
LOAD D:\4.0.3\armv7m-none-eabi\libc\lib/libc.a(stpncpy.o) []
LOAD D:\4.0.3\armv7m-none-eabi\libc\lib/libc.a(__brk.o) []
LOAD D:\4.0.3\armv7m-none-eabi\libc\lib/libc.a(wcrtomb.o) []
LOAD D:\4.0.3\armv7m-none-eabi\libc\lib/libc.a(__stdio_exit.o) []
LOAD D:\4.0.3\armv7m-none-eabi\libc\lib/libc.a(__toread.o) []
LOAD D:\4.0.3\armv7m-none-eabi\libc\lib/libc.a(ofl.o) []
LOAD D:\4.0.3\lib\clang\4.0.3\lib\baremetal/libclang_rt.builtins-armv7m.a(aeabi_uldivmod.S.obj) []
LOAD D:\4.0.3\lib\clang\4.0.3\lib\baremetal/libclang_rt.builtins-armv7m.a(addsf3.c.obj) []
LOAD D:\4.0.3\lib\clang\4.0.3\lib\baremetal/libclang_rt.builtins-armv7m.a(divsf3.c.obj) []
LOAD D:\4.0.3\lib\clang\4.0.3\lib\baremetal/libclang_rt.builtins-armv7m.a(fixdfsi.c.obj) []
LOAD D:\4.0.3\lib\clang\4.0.3\lib\baremetal/libclang_rt.builtins-armv7m.a(fixunssfsi.c.obj) []
LOAD D:\4.0.3\lib\clang\4.0.3\lib\baremetal/libclang_rt.builtins-armv7m.a(floatsisf.c.obj) []
LOAD D:\4.0.3\lib\clang\4.0.3\lib\baremetal/libclang_rt.builtins-armv7m.a(floatunsidf.c.obj) []
LOAD D:\4.0.3\lib\clang\4.0.3\lib\baremetal/libclang_rt.builtins-armv7m.a(floatunsisf.c.obj) []
LOAD D:\4.0.3\lib\clang\4.0.3\lib\baremetal/libclang_rt.builtins-armv7m.a(muldf3.c.obj) []
LOAD D:\4.0.3\lib\clang\4.0.3\lib\baremetal/libclang_rt.builtins-armv7m.a(mulsf3.c.obj) []
LOAD D:\4.0.3\lib\clang\4.0.3\lib\baremetal/libclang_rt.builtins-armv7m.a(subsf3.c.obj) []
LOAD D:\4.0.3\lib\clang\4.0.3\lib\baremetal/libclang_rt.builtins-armv7m.a(udivmoddi4.c.obj) []
END GROUP

Linker scripts used (including INCLUDE command)
sdk\ld\quectel_dam_demo.ld

ER_RO	0x43000000	0x41a1c # Offset: 0x60, LMA: 0x43000000
	Image$$ER_RO$$Base(0x43000000) = .( 0x43000000 );
*txm_module_preamble_llvm.o(.text .text.* )
*txm_module_preamble_llvm.o(Init )
Init	0x43000000	0x80	D:\GC_connection\GC_connection\objs\txm_module_preamble_llvm.o	#SHT_PROGBITS,SHF_ALLOC|SHF_EXECINSTR,4
	0x43000000		.CODE32
	0x43000000		_txm_module_preamble
*txm_module_preamble_llvm.o(.rodata .rodata.* )
KEEP (*(.text .text.* ))
.text	0x43000080	0x47c	D:\GC_connection\GC_connection\objs\common.o	#SHT_PROGBITS,SHF_ALLOC|SHF_EXECINSTR,4
	0x43000080		$a.0
	0x43000080		gizProtocolSum
	0x430000bc		exchangeBytes
	0x430000c4		exchangeWord
	0x430000cc		char2hex
	0x43000160		checkStringIsNotZero
	0x430001b8		checkStringIsZero
	0x43000210		returnWeekDay
	0x43000290		returnNtp2Wt
	0x430003cc		$d.1
	0x430003dc		$a.2
	0x430003dc		isleap
	0x43000420		str2Hex
	0x4300049c		hex2Str
.text	0x430004fc	0x39c	D:\GC_connection\GC_connection\objs\dataPointTools.o	#SHT_PROGBITS,SHF_ALLOC|SHF_EXECINSTR,4
	0x430004fc		$a.0
	0x430004fc		gizByteOrderExchange
	0x43000554		gizY2X
	0x43000560		gizX2Y
	0x43000568		gizY2XFloat
	0x4300058c		gizX2YFloat
	0x430005b8		gizAcrossByteJudge
	0x430005ec		gizVarlenCompressValue
	0x43000670		gizVarlenDecompressionValue
	0x43000740		gizStandardDecompressionValue
	0x43000810		gizStandardCompressValue
.text	0x43000898	0x1a0	D:\GC_connection\GC_connection\objs\gizwits_product.o	#SHT_PROGBITS,SHF_ALLOC|SHF_EXECINSTR,4
	0x43000898		$a.0
	0x43000898		gizwitsEventProcess
	0x430008f8		$d.1
	0x43000930		$a.2
	0x430009f4		$d.3
	0x43000a20		$a.4
	0x43000a20		userHandle
	0x43000a24		userInit
	0x43000a34		$d.5
.text	0x43000a38	0x1324	D:\GC_connection\GC_connection\objs\gizwits_protocol.o	#SHT_PROGBITS,SHF_ALLOC|SHF_EXECINSTR,4
	0x43000a38		$a.0
	0x43000a38		setConnectM2MStatus
	0x43000a4c		$d.1
	0x43000a54		$a.2
	0x43000a54		getConnectM2MStatus
	0x43000a74		$d.3
	0x43000a7c		uploadDataCBFunc
	0x43000a7c		$a.4
	0x43000a88		$d.5
	0x43000a8c		gizGetTimerCount
	0x43000a8c		$a.6
	0x43000ab0		$d.7
	0x43000ab4		$a.8
	0x43000ab4		gizWiFiStatus
	0x43000e34		$d.9
	0x43000e74		$a.10
	0x43000e74		gizIssuedProcess
	0x430010b4		$d.11
	0x430010d4		$a.12
	0x430010d4		gizDataPoints2ReportData
	0x43001280		$d.13
	0x4300128c		$a.14
	0x4300128c		gizwitsTask
	0x43001354		$d.15
	0x43001378		$a.16
	0x43001378		gizwitsHandle
	0x430016b0		$d.17
	0x430016e0		$a.18
	0x430016e0		gizSendQueue
	0x4300172c		$d.19
	0x43001738		$a.20
	0x43001738		gizTimerFunc
	0x43001800		$d.21
	0x43001814		$a.22
	0x43001814		gizwitsSetMode
	0x4300183c		gizwitsGetNTPTime
	0x4300184c		gizwitsGetTimeStamp
	0x43001868		gizwitsInit
	0x43001c00		$d.23
	0x43001cac		$a.24
	0x43001cac		gizwitsPassthroughData
	0x43001d4c		$d.25
.text	0x43001d5c	0x2ac	D:\GC_connection\GC_connection\objs\led.o	#SHT_PROGBITS,SHF_ALLOC|SHF_EXECINSTR,4
	0x43001d5c		$a.0
	0x43001d5c		ledsetvalue
	0x43001e54		$d.1
	0x43001e70		$a.2
	0x43001e70		gpio_config
	0x43001fe8		$d.3
.text	0x43002008	0x2cc	D:\GC_connection\GC_connection\objs\main.o	#SHT_PROGBITS,SHF_ALLOC|SHF_EXECINSTR,4
	0x43002008		$a.0
	0x43002008		led_init
	0x4300203c		$d.1
	0x43002044		$a.2
	0x43002044		heartrate_init
	0x4300204c		$d.3
	0x43002050		$a.4
	0x43002050		temperature_init
	0x43002058		$d.5
	0x4300205c		$a.6
	0x4300205c		motion_init
	0x43002064		$d.7
	0x43002068		$a.8
	0x43002068		userTimerCB
	0x43002204		$d.9
	0x4300221c		$a.10
	0x4300221c		sensorInit
	0x430022a4		$d.11
	0x430022bc		$a.12
	0x430022bc		gagentMain
.text	0x430022d4	0x88	D:\GC_connection\GC_connection\objs\quectel_utils.o	#SHT_PROGBITS,SHF_ALLOC|SHF_EXECINSTR,4
	0x430022d4		$a.0
	0x430022d4		quectel_format_log_msg
	0x43002358		$d.1
.text	0x4300235c	0x288	D:\GC_connection\GC_connection\objs\ringbuffer.o	#SHT_PROGBITS,SHF_ALLOC|SHF_EXECINSTR,4
	0x4300235c		$a.0
	0x4300235c		rbCreate
	0x43002384		rbDelete
	0x430023b0		rbCapacity
	0x430023c0		rbCanRead
	0x43002400		rbCanWrite
	0x4300242c		rbRead
	0x43002504		rbWrite
.text	0x430025e4	0x6f8	D:\GC_connection\GC_connection\gagent\libgagent.a(gagentThread.o)	#SHT_PROGBITS,SHF_ALLOC|SHF_EXECINSTR,4
	0x430025e4		$a.0
	0x430025e4		groudEntryInit
	0x430026a4		$d.1
	0x430026cc		$a.2
	0x430026cc		gatStartgagentThread
	0x43002798		$d.3
	0x430027b8		$a.4
	0x430027b8		groudEvent
	0x43002824		$d.5
	0x4300283c		$a.6
	0x4300283c		Initialize_Thread_Demo
	0x43002934		$d.7
	0x4300295c		$a.8
	0x4300295c		gagentThread
	0x43002980		gagent_dam_app_start
	0x43002b50		$d.9
	0x43002b90		$a.10
	0x43002b90		gatMainThread
	0x43002c88		$d.11
	0x43002ca4		$a.12
	0x43002ca4		sensor_dam_app_start
	0x43002cc0		quectel_task_entry
.text	0x43002cdc	0x498	D:\GC_connection\GC_connection\gagent\libgagent.a(iofdev.o)	#SHT_PROGBITS,SHF_ALLOC|SHF_EXECINSTR,4
	0x43002cdc		$a.0
	0x43002cdc		__stack_chk_fail
	0x43002ce0		iofPrintf
	0x43002d80		$d.1
	0x43002d8c		$a.2
	0x43002d8c		devRestart
	0x43002e48		$d.3
	0x43002e60		$a.4
	0x43002e60		devlogLock
	0x43002e70		$d.5
	0x43002e74		$a.6
	0x43002e74		devlogUnLock
	0x43002e84		$d.7
	0x43002e88		$a.8
	0x43002e88		iofGatAuthKeyRead
	0x43002fd0		$d.9
	0x43002ff4		$a.10
	0x43002ff4		dev_free_heap_size
	0x43002ff8		devOtaUpgrade
	0x43003134		$d.11
	0x43003158		$a.12
	0x43003158		devlogLockInit
	0x43003168		$d.13
	0x43003170		$a.14
	0x43003170		devDisplayTime
.text	0x43003174	0x3a4	D:\GC_connection\GC_connection\gagent\libgagent.a(iofipc.o)	#SHT_PROGBITS,SHF_ALLOC|SHF_EXECINSTR,4
	0x43003174		$a.0
	0x43003174		iofMsgCreat
	0x4300329c		$d.1
	0x430032bc		$a.2
	0x430032bc		iofSendSig
	0x43003368		$d.3
	0x43003384		$a.4
	0x43003384		iofRecSig
	0x4300342c		$d.5
	0x43003444		$a.6
	0x43003444		iofLockInit
	0x430034b4		$d.7
	0x430034c8		$a.8
	0x430034c8		devLock
	0x430034f0		devUnLock
.text	0x43003518	0x588	D:\GC_connection\GC_connection\gagent\libgagent.a(iofpthread.o)	#SHT_PROGBITS,SHF_ALLOC|SHF_EXECINSTR,4
	0x43003518		$a.0
	0x43003518		iofTcpDataSendThread
	0x43003530		$d.1
	0x43003534		$a.2
	0x43003534		iofTcpDataRecThread
	0x4300354c		$d.3
	0x43003550		iofUdpSendThread
	0x43003550		$a.4
	0x43003564		$d.5
	0x43003568		iofUdpRecThread
	0x43003568		$a.6
	0x4300357c		$d.7
	0x43003580		iofSerialSendThread
	0x43003580		$a.8
	0x43003598		$d.9
	0x4300359c		$a.10
	0x4300359c		iofSerialRecThread
	0x430035b4		$d.11
	0x430035b8		$a.12
	0x430035b8		iofNetDnsThread
	0x430035d0		$d.13
	0x430035d4		iofNetActiveThread
	0x430035d4		$a.14
	0x430035ec		$d.15
	0x430035f0		iofTaskProcessThread
	0x430035f0		$a.16
	0x43003628		$d.17
	0x4300362c		iofPthreadCreate
	0x4300362c		$a.18
	0x43003860		$d.19
	0x43003888		$a.20
	0x43003888		iofPthreadNameSet
	0x43003908		$d.21
	0x4300391c		$a.22
	0x4300391c		iofStartAllThread
	0x43003a54		$d.23
	0x43003a78		$a.24
	0x43003a78		iofThreadEnable
	0x43003a84		$d.25
	0x43003a88		$a.26
	0x43003a88		iofTcpServerThread
	0x43003a9c		$d.27
.text	0x43003aa0	0x7a0	D:\GC_connection\GC_connection\gagent\libgagent.a(iofstring.o)	#SHT_PROGBITS,SHF_ALLOC|SHF_EXECINSTR,4
	0x43003aa0		$a.0
	0x43003aa0		strnstr
	0x43003b44		devMalloc
	0x43003c50		$d.1
	0x43003c68		$a.2
	0x43003c68		objMalloc
	0x43003d7c		$d.3
	0x43003d94		$a.4
	0x43003d94		objFree
	0x43003e28		$d.5
	0x43003e38		$a.6
	0x43003e38		getFreeHeap
	0x43003e7c		$d.7
	0x43003e80		$a.8
	0x43003e80		iofStrstri
	0x43003ee0		my_atoi
	0x43004044		$d.9
	0x43004054		$a.10
	0x43004054		gatAtoi
	0x43004114		$d.11
	0x43004128		$a.12
	0x43004128		gatStrtoul
.text	0x43004240	0x11bc	D:\GC_connection\GC_connection\gagent\libgagent.a(local.o)	#SHT_PROGBITS,SHF_ALLOC|SHF_EXECINSTR,4
	0x43004240		$a.0
	0x43004240		gatAuthCbFun
	0x43004264		gatLocalInit
	0x430044f8		$d.1
	0x4300452c		$a.2
	0x4300452c		gatLocalSendStatus
	0x430046f4		$d.3
	0x43004714		$a.4
	0x43004714		gagentInit
	0x43004db8		$d.5
	0x43004e40		$a.6
	0x43004e40		gatLocalStatusSync
	0x43004ebc		$d.7
	0x43004ed0		$a.8
	0x43004ed0		gagentConfig
	0x43004ed4		gagentReset
	0x43004ee8		GAgentEnableBind
	0x43004efc		gagentGetNTP
	0x43004f2c		gatAppData2Local
	0x430052d0		$d.9
	0x43005308		$a.10
	0x43005308		GAgentInfoGet
	0x43005334		$d.11
	0x43005344		$a.12
	0x430053e4		$d.13
.text	0x430053fc	0xe54	D:\GC_connection\GC_connection\gagent\libgagent.a(localcomm.o)	#SHT_PROGBITS,SHF_ALLOC|SHF_EXECINSTR,4
	0x430053fc		$a.0
	0x430053fc		gatGetMcuInfo
	0x43005404		$d.1
	0x43005408		$a.2
	0x43005408		gatEnableBindStart
	0x430054f8		$d.3
	0x43005520		$a.4
	0x43005520		gatEnableBindTimeOut
	0x43005590		$d.5
	0x430055a8		gatFactoryMode
	0x430055a8		$a.6
	0x4300562c		$d.7
	0x43005640		gatLocalModuleCheck
	0x43005640		$a.8
	0x43005974		$d.9
	0x430059b4		$a.10
	0x430059b4		gatEnterTest
	0x43005a14		$d.11
	0x43005a28		$a.12
	0x43005a28		gatLocalGAgentRestart
	0x43005a8c		$d.13
	0x43005aa0		$a.14
	0x43005aa0		gatCheckSum
	0x43005acc		isAckCmd
	0x43005b28		$d.15
	0x43005b30		$a.16
	0x43005b30		isNeed2AckdCmd
	0x43005b7c		$d.17
	0x43005c20		gatLocalErrHandleAckTimeOut
	0x43005c20		$a.18
	0x43005c7c		$d.19
	0x43005c90		$a.20
	0x43005c90		gatLocalErrHandle
	0x43005d94		$d.21
	0x43005db0		$a.22
	0x43005db0		gatLocalHandle
	0x430060c4		$d.23
	0x430060f8		$a.24
	0x430060f8		gatLocalSignalCheckTick
	0x430061d8		$d.25
	0x430061f4		$a.26
	0x430061f4		gatLocalSignalTickStart
	0x43006220		$d.27
	0x4300622c		$a.28
	0x4300622c		gatLocalSignalTickClose
	0x4300624c		$d.29
.text	0x43006250	0x192c	D:\GC_connection\GC_connection\gagent\libgagent.a(localio.o)	#SHT_PROGBITS,SHF_ALLOC|SHF_EXECINSTR,4
	0x43006250		$a.0
	0x43006250		localFdGet
	0x4300625c		$d.1
	0x43006260		localSemIdGet
	0x43006260		$a.2
	0x4300626c		$d.3
	0x43006270		localRecvListGet
	0x43006270		$a.4
	0x4300627c		$d.5
	0x43006280		localChannelNodeGet
	0x43006280		$a.6
	0x430062fc		$d.7
	0x43006304		$a.8
	0x43006304		localChanelListGet
	0x43006310		$d.9
	0x43006314		$a.10
	0x43006314		localSendListGet
	0x43006320		$d.11
	0x43006324		$a.12
	0x43006324		localRecCbFunGet
	0x43006360		$d.13
	0x43006364		$a.14
	0x43006364		gatLocalioInit
	0x4300659c		$d.15
	0x430065dc		$a.16
	0x430065dc		localRecDataCb
	0x43006f14		$d.17
	0x43006f5c		gatLocalSendDataUseTime
	0x43006f5c		$a.18
	0x43006f70		gatLocalSend
	0x430072bc		$d.19
	0x430072f0		gatSerialSendHandle
	0x430072f0		$a.20
	0x430076f8		$d.21
	0x43007734		gatSerialRecHandle
	0x43007734		$a.22
	0x430078e8		$d.23
	0x43007910		gatLocalRecTimerOutHandle
	0x43007910		$a.24
	0x43007b5c		$d.25
.text	0x43007b7c	0x814	D:\GC_connection\GC_connection\gagent\libgagent.a(localprotocol.o)	#SHT_PROGBITS,SHF_ALLOC|SHF_EXECINSTR,4
	0x43007b7c		$a.0
	0x43007b7c		localWrite
	0x43007f7c		$d.1
	0x43007fb4		$a.2
	0x43007fb4		localWriteP0
	0x43008000		$d.3
	0x43008004		$a.4
	0x43008004		localWriteAck
	0x43008030		localWriteAckDirect
	0x430080b8		localExtractPacket
	0x4300817c		$d.5
	0x4300818c		$a.6
	0x43008378		$d.7
.text	0x43008390	0x1190	D:\GC_connection\GC_connection\gagent\libgagent.a(nwk_manage.o)	#SHT_PROGBITS,SHF_ALLOC|SHF_EXECINSTR,4
	0x43008390		$a.0
	0x43008390		nwkHalStatusGet
	0x4300839c		$d.1
	0x430083a0		$a.2
	0x430083a0		gatNwkInit
	0x43008424		$d.3
	0x4300843c		$a.4
	0x4300843c		gatNwkevtCbRegister
	0x4300853c		$d.5
	0x43008558		$a.6
	0x43008558		gatSetNwkEvent
	0x43009298		$d.7
	0x4300935c		$a.8
	0x4300935c		nwkSetHalStatus
	0x43009370		$d.9
	0x43009374		$a.10
	0x43009374		nwkResetHalStatus
	0x43009388		$d.11
	0x4300938c		$a.12
	0x4300938c		gatNwkEventHandle
	0x43009500		$d.13
.text	0x43009520	0x2a60	D:\GC_connection\GC_connection\gagent\libgagent.a(productinfo.o)	#SHT_PROGBITS,SHF_ALLOC|SHF_EXECINSTR,4
	0x43009520		$a.0
	0x43009520		gatProductInfoUpdateFromEnv
	0x43009de4		$d.1
	0x43009e58		$a.2
	0x43009e58		gatCreatNewPassCode
	0x43009f0c		$d.3
	0x43009f20		$a.4
	0x43009f20		gatConfigInfoSaveToEnv
	0x4300a18c		$d.5
	0x4300a1b8		gatDumpEnvInfo
	0x4300a1b8		$a.6
	0x4300a5b0		$d.7
	0x4300a5f8		dumpPruductInfo
	0x4300a5f8		$a.8
	0x4300ace0		$d.9
	0x4300ad58		$a.10
	0x4300ad58		gatProductDefaultInfoGet
	0x4300ad60		$d.11
	0x4300ad64		$a.12
	0x4300ad64		gatProductInfoGet
	0x4300ad9c		$d.13
	0x4300ada8		$a.14
	0x4300ada8		gatProductConfiInfoSave
	0x4300ae54		$d.15
	0x4300ae6c		$a.16
	0x4300ae6c		gatProductInfoInit
	0x4300af30		$d.17
	0x4300af50		$a.18
	0x4300af50		gatProductDefaultInfoInit
	0x4300b424		$d.19
	0x4300b478		gatProductInfoSetGServerIp
	0x4300b478		$a.20
	0x4300b510		$d.21
	0x4300b528		gatTimeZoneSecSet
	0x4300b528		$a.22
	0x4300b5a8		$d.23
	0x4300b5c4		$a.24
	0x4300b5c4		gatTimeZoneSecGet
	0x4300b5d0		$d.25
	0x4300b5d4		gatGprsApnSet
	0x4300b5d4		$a.26
	0x4300b6a4		$d.27
	0x4300b6bc		gatGServerDoMainSet
	0x4300b6bc		$a.28
	0x4300b734		$d.29
	0x4300b73c		gatConfigFlagSet
	0x4300b73c		$a.30
	0x4300b7b8		$d.31
	0x4300b7d4		$a.32
	0x4300b7d4		gatSaveRebootReason
	0x4300b84c		$d.33
	0x4300b868		$a.34
	0x4300b868		gatLocalProductDefaultInfoSet
	0x4300bbac		$d.35
	0x4300bbe0		$a.36
	0x4300bbe0		gatProductDefaultInfoSet
	0x4300bf30		$d.37
.text	0x4300bf80	0x5ac	D:\GC_connection\GC_connection\gagent\libgagent.a(qlog.o)	#SHT_PROGBITS,SHF_ALLOC|SHF_EXECINSTR,4
	0x4300bf80		$a.0
	0x4300bf80		uart_recv
	0x4300c00c		$d.1
	0x4300c014		$a.2
	0x4300c014		format_log_msg
	0x4300c0b8		$d.3
	0x4300c0c0		$a.4
	0x4300c0c0		uart_init
	0x4300c1fc		$d.5
	0x4300c220		$a.6
	0x4300c220		uart_rx_cb
	0x4300c2bc		$d.7
	0x4300c2c4		$a.8
	0x4300c2c4		uart_tx_cb
	0x4300c32c		$d.9
	0x4300c334		$a.10
	0x4300c334		qapi_uart_tx_user_cb_dispatcher
	0x4300c354		qapi_uart_rx_user_cb_dispatcher
	0x4300c374		uart_print
	0x4300c400		$d.11
	0x4300c40c		$a.12
	0x4300c40c		qc_dbg_uart_init
	0x4300c460		$d.13
	0x4300c46c		$a.14
	0x4300c46c		qc_uart_dbg
	0x4300c524		$d.15
.text	0x4300c52c	0x348	D:\GC_connection\GC_connection\gagent\libgagent.a(semaph.o)	#SHT_PROGBITS,SHF_ALLOC|SHF_EXECINSTR,4
	0x4300c52c		$a.0
	0x4300c52c		semP
	0x4300c534		semOp
	0x4300c580		$d.1
	0x4300c584		$a.2
	0x4300c584		semV
	0x4300c58c		iofSemInit
	0x4300c6a8		$d.3
	0x4300c6c8		$a.4
	0x4300c6c8		localTrigSend
	0x4300c778		$d.5
	0x4300c78c		$a.6
	0x4300c78c		tcpTrigSend
	0x4300c7f0		$d.7
	0x4300c800		$a.8
	0x4300c800		udpTrigSend
	0x4300c864		$d.9
.text	0x4300c874	0xe14	D:\GC_connection\GC_connection\gagent\libgagent.a(simulatorcomm.o)	#SHT_PROGBITS,SHF_ALLOC|SHF_EXECINSTR,4
	0x4300c874		$a.0
	0x4300c874		simulatorUploadDtatTimeOutCb
	0x4300c94c		$d.1
	0x4300c968		$a.2
	0x4300c968		gagentUploadData
	0x4300d1d8		$d.3
	0x4300d244		$a.4
	0x4300d244		simulatorUploadDtatCb
	0x4300d3f8		$d.5
	0x4300d41c		$a.6
	0x4300d41c		gatSimulatorInit
	0x4300d44c		$d.7
	0x4300d454		$a.8
	0x4300d5ec		$d.9
	0x4300d614		$a.10
	0x4300d674		$d.11
.text	0x4300d688	0x244c	D:\GC_connection\GC_connection\gagent\libgagent.a(tcp.o)	#SHT_PROGBITS,SHF_ALLOC|SHF_EXECINSTR,4
	0x4300d688		$a.0
	0x4300d688		gatTcpInit
	0x4300d754		$d.1
	0x4300d778		$a.2
	0x4300d778		gatTcpDataSendHandle
	0x4300d7dc		$d.3
	0x4300d7f0		gatTcpSendTask
	0x4300d7f0		$a.4
	0x4300ddf4		$d.5
	0x4300de38		gatTcpReceiveHandle
	0x4300de38		$a.6
	0x4300e14c		$d.7
	0x4300e178		gatTcpRecvDispatch
	0x4300e178		$a.8
	0x4300e2e0		$d.9
	0x4300e300		$a.10
	0x4300e300		gatTcpDelChNode
	0x4300e5a0		$d.11
	0x4300e5d0		$a.12
	0x4300e5d0		gatTcpListenAdd
	0x4300e7c0		$d.13
	0x4300e7e8		$a.14
	0x4300e7e8		gatTcpReadRecData
	0x4300e9a0		$d.15
	0x4300e9bc		$a.16
	0x4300e9bc		gatTcpRecv
	0x4300ef78		$d.17
	0x4300efc8		$a.18
	0x4300efc8		gatDelTcpSendNode
	0x4300f1a0		$d.19
	0x4300f1c0		$a.20
	0x4300f1c0		tcpRecHandle
	0x4300f254		$d.21
	0x4300f264		gatDelTcpDataNode
	0x4300f264		$a.22
	0x4300f3cc		$d.23
	0x4300f3e8		$a.24
	0x4300f3e8		gatTcpSend
	0x4300f760		$d.25
	0x4300f798		$a.26
	0x4300f798		sktConnHandle
	0x4300f814		$d.27
	0x4300f824		$a.28
	0x4300f824		tcpSendCBHandle
	0x4300fa90		$d.29
	0x4300fab8		gatTcpClrChNode
	0x4300fab8		$a.30
.text	0x4300fad4	0xb0c	D:\GC_connection\GC_connection\gagent\libgagent.a(timer_subsystem.o)	#SHT_PROGBITS,SHF_ALLOC|SHF_EXECINSTR,4
	0x4300fad4		$a.0
	0x4300fad4		gatTimerCoreInit
	0x4300fb50		$d.1
	0x4300fb6c		$a.2
	0x4300fb6c		gatTimerAdd
	0x4300fe58		$d.3
	0x4300fe84		$a.4
	0x4300fe84		timerRemove
	0x4300fea4		$d.5
	0x4300fea8		$a.6
	0x4300fea8		timerUpdataExpire
	0x4300ff34		$d.7
	0x4300ff48		$a.8
	0x4300ff48		gatTimerDel
	0x43010098		$d.9
	0x430100b8		$a.10
	0x430100b8		gatTimerTick
	0x430101b4		$d.11
	0x430101cc		$a.12
	0x430101cc		gatTimerHandle
	0x430103e4		$d.13
	0x4301040c		$a.14
	0x4301040c		gatTimerTraversal
	0x430105b8		$d.15
.text	0x430105e0	0xf04	D:\GC_connection\GC_connection\gagent\libgagent.a(aes.o)	#SHT_PROGBITS,SHF_ALLOC|SHF_EXECINSTR,4
	0x430105e0		$a.0
	0x430105e0		gadd
	0x430105e8		gsub
	0x430105f0		gmult
	0x43010644		coef_add
	0x43010688		coef_mult
	0x430107b0		invSboxInit
	0x430107f0		$d.1
	0x430107f8		$a.2
	0x430107f8		aesInit
	0x43010838		$d.3
	0x43010840		$a.4
	0x43010840		aesDestroy
	0x43010970		$d.5
	0x4301098c		$a.6
	0x4301098c		Rcon
	0x430109e0		$d.7
	0x430109e4		$a.8
	0x430109e4		add_round_key
	0x43010a5c		mix_columns
	0x43010af4		$d.9
	0x43010af8		$a.10
	0x43010af8		inv_mix_columns
	0x43010b90		$d.11
	0x43010b94		$a.12
	0x43010b94		shift_rows
	0x43010c08		inv_shift_rows
	0x43010c78		sub_bytes
	0x43010ccc		$d.13
	0x43010cd0		$a.14
	0x43010cd0		inv_sub_bytes
	0x43010d24		$d.15
	0x43010d28		$a.16
	0x43010d28		sub_word
	0x43010d54		$d.17
	0x43010d58		$a.18
	0x43010d58		rot_word
	0x43010d88		key_expansion
	0x43010eb0		$d.19
	0x43010eb4		cipher
	0x43010eb4		$a.20
	0x43010fb8		inv_cipher
	0x430110bc		aesECB128Encrypt
	0x4301120c		$d.21
	0x43011224		$a.22
	0x43011224		aesECB128Decrypt
	0x43011390		$d.23
	0x430113a8		$a.24
	0x430113a8		aesECB128DecryptRaw
	0x430114cc		$d.25
.text	0x430114e4	0x1018	D:\GC_connection\GC_connection\gagent\libgagent.a(aesdata.o)	#SHT_PROGBITS,SHF_ALLOC|SHF_EXECINSTR,4
	0x430114e4		$a.0
	0x430114e4		sboxAssign
	0x43011cf0		invSboxAssign
.text	0x430124fc	0xf04	D:\GC_connection\GC_connection\gagent\libgagent.a(authorization.o)	#SHT_PROGBITS,SHF_ALLOC|SHF_EXECINSTR,4
	0x430124fc		$a.0
	0x430124fc		gatAuthkeyGet
	0x43012668		$d.1
	0x43012680		$a.2
	0x43012680		gatRecAuthKey
	0x43012c78		$d.3
	0x43012cc8		$a.4
	0x43012cc8		gatGetAuthReqAck
	0x43012ed4		$d.5
	0x43012f14		$a.6
	0x43012f14		gatWaitAuthKeyTimer
	0x43012fe0		$d.7
	0x43012ffc		$a.8
	0x43012ffc		gatAuthInit
	0x430132e8		$d.9
	0x43013320		$a.10
	0x43013320		gatReqAuthKeyTimeOut
	0x430133e4		$d.11
.text	0x43013400	0x400	D:\GC_connection\GC_connection\gagent\libgagent.a(dp.o)	#SHT_PROGBITS,SHF_ALLOC|SHF_EXECINSTR,4
	0x43013400		$a.0
	0x43013400		isInCurMode
	0x43013414		$d.1
	0x43013418		$a.2
	0x43013418		getCurMode
	0x43013424		$d.3
	0x43013428		$a.4
	0x43013428		gatSetCurMode
	0x43013440		$d.5
	0x43013444		$a.6
	0x43013444		gatResetCurMode
	0x4301345c		$d.7
	0x43013460		$a.8
	0x43013460		getDpEntry
	0x43013544		$d.9
	0x4301355c		$a.10
	0x4301355c		dpTrans
	0x430137d0		$d.11
.text	0x43013800	0x874	D:\GC_connection\GC_connection\gagent\libgagent.a(env.o)	#SHT_PROGBITS,SHF_ALLOC|SHF_EXECINSTR,4
	0x43013800		$a.0
	0x43013800		getEnvErase
	0x430138e8		$d.1
	0x43013904		$a.2
	0x43013904		gatEnvWrite
	0x43013e80		$d.3
	0x43013ec8		$a.4
	0x43013ec8		gatEnvRead
	0x43014054		$d.5
.text	0x43014074	0x260c	D:\GC_connection\GC_connection\gagent\libgagent.a(gagent.o)	#SHT_PROGBITS,SHF_ALLOC|SHF_EXECINSTR,4
	0x43014074		$a.0
	0x43014074		gatReBootTimerStart
	0x43014108		$d.1
	0x43014128		gagentRebootTimer
	0x43014128		$a.2
	0x4301419c		$d.3
	0x430141b0		$a.4
	0x430141b0		gatSetSoftVer
	0x43014228		$d.5
	0x43014240		$a.6
	0x43014240		gatGetSoftVer
	0x430142a4		$d.7
	0x430142bc		gatMsgId
	0x430142bc		$a.8
	0x430142c8		$d.9
	0x430142cc		$a.10
	0x430142cc		gagentReBootHandle
	0x43014328		$d.11
	0x4301433c		$a.12
	0x4301433c		gatReBoot
	0x4301439c		$d.13
	0x430143d0		$a.14
	0x430144b4		$d.15
	0x43014504		$a.16
	0x43014504		gatDealUserPayload90
	0x43014748		$d.17
	0x4301476c		gatDataRecCb
	0x4301476c		$a.18
	0x43014930		$d.19
	0x43014958		gatDealUserPayload93
	0x43014958		$a.20
	0x430151a8		$d.21
	0x430151f4		gatTaskHandle
	0x430151f4		$a.22
	0x4301535c		$d.23
	0x4301539c		$a.24
	0x43015670		$d.25
	0x430156bc		$a.26
	0x430156bc		gatStatusGet
	0x430156c8		$d.27
	0x430156cc		$a.28
	0x430156cc		gatStatusSet
	0x430157b8		$d.29
	0x430157d4		$a.30
	0x430157d4		gatRunTimeDataGet
	0x430157dc		$d.31
	0x430157e0		gatNtpTimeUpData
	0x430157e0		$a.32
	0x430157f4		$d.33
	0x430157f8		gatCleanConfigData
	0x430157f8		$a.34
	0x43015ab8		$d.35
	0x43015ae4		gatDataSend
	0x43015ae4		$a.36
	0x430160ec		$d.37
	0x4301613c		gatDataSendCb
	0x4301613c		$a.38
	0x43016414		$d.39
	0x43016450		$a.40
	0x43016450		gatRunTimeDataInit
	0x4301650c		$d.41
	0x43016528		$a.42
	0x43016528		gatInit
	0x43016620		$d.43
	0x43016648		$a.44
	0x43016648		printfGod
	0x43016678		$d.45
.text	0x43016680	0xac	D:\GC_connection\GC_connection\gagent\libgagent.a(gatlist.o)	#SHT_PROGBITS,SHF_ALLOC|SHF_EXECINSTR,4
	0x43016680		$a.0
	0x43016680		gatListHeadInit
	0x4301668c		__gatListAdd
	0x4301669c		gatListAdd
	0x430166b0		gatListAddTail
	0x430166c8		__gatListDel
	0x430166d4		gatListDel
	0x430166ec		gatListEmpty
	0x43016704		gatListEmptyCareful
.text	0x4301672c	0x2648	D:\GC_connection\GC_connection\gagent\libgagent.a(gatm2m.o)	#SHT_PROGBITS,SHF_ALLOC|SHF_EXECINSTR,4
	0x4301672c		$a.0
	0x4301672c		m2mInfoGet
	0x43016734		$d.1
	0x43016738		$a.2
	0x43016738		m2mInfoSet
	0x430169e0		$d.3
	0x43016a14		$a.4
	0x43016a14		m2mSktRecCb
	0x43016b44		$d.5
	0x43016b64		m2mSktConnCb
	0x43016b64		$a.6
	0x43016de8		$d.7
	0x43016e24		$a.8
	0x43016e24		m2mSend
	0x43016f8c		$d.9
	0x43016fb0		$a.10
	0x43016fb0		gatM2MReStartServerTimeOut
	0x43016fc8		m2mSocketErrHandle
	0x43016fe4		$d.11
	0x43016fe8		$a.12
	0x43016fe8		m2mSktDisConnCb
	0x43016fec		gatGetM2MDomain
	0x43016ff8		$d.13
	0x43016ffc		$a.14
	0x43016ffc		gatSetM2MDomain
	0x43017078		$d.15
	0x43017090		$a.16
	0x43017090		gatGetM2MPort
	0x4301709c		$d.17
	0x430170a0		$a.18
	0x430170a0		gatSetM2MPort
	0x43017110		$d.19
	0x43017128		$a.20
	0x43017128		gatM2MSocketConnect
	0x4301722c		$d.21
	0x43017244		$a.22
	0x43017244		onM2MLoginCb
	0x4301742c		$d.23
	0x43017454		$a.24
	0x43017454		onM2MSubTopicCb
	0x43017570		$d.25
	0x43017590		$a.26
	0x43017590		onM2MUserDataRecCb
	0x43017870		$d.27
	0x430178a0		$a.28
	0x430178a0		onM2MHeartBeatCb
	0x430178fc		$d.29
	0x43017910		$a.30
	0x43017910		onAppOnLineNumCb
	0x43017ba8		$d.31
	0x43017be0		$a.32
	0x43017be0		onOTA41EventNoticCb
	0x43018064		$d.33
	0x430180b4		onOTA4EventNoticCb
	0x430180b4		$a.34
	0x4301810c		$d.35
	0x43018120		cloudSendDataCb
	0x43018120		$a.36
	0x43018188		$d.37
	0x4301819c		$a.38
	0x4301819c		gatWanClinetNumGet
	0x430181a8		$d.39
	0x430181ac		gatM2MInit
	0x430181ac		$a.40
	0x430181ec		$d.41
	0x430181f4		gatM2MHandleGatStatus
	0x430181f4		$a.42
	0x43018314		$d.43
	0x43018330		$a.44
	0x43018330		gatM2MReInit
	0x430183c0		$d.45
	0x430183d8		gatM2MServerStart
	0x430183d8		$a.46
	0x43018488		$d.47
	0x430184ac		gatm2mDnsCb
	0x430184ac		$a.48
	0x430185b0		$d.49
	0x430185d0		gatM2MServerStop
	0x430185d0		$a.50
	0x43018658		$d.51
	0x43018670		gatM2MReStartServer
	0x43018670		$a.52
	0x43018770		$d.53
	0x43018794		gatM2MStopReStartServer
	0x43018794		$a.54
	0x430187a4		$d.55
	0x430187a8		$a.56
	0x430187a8		gatResCloudCtrl
	0x430189f8		$d.57
	0x43018a28		$a.58
	0x43018a28		gatM2MCommand
	0x43018d3c		$d.59
.text	0x43018d74	0x1d14	D:\GC_connection\GC_connection\gagent\libgagent.a(gatnet.o)	#SHT_PROGBITS,SHF_ALLOC|SHF_EXECINSTR,4
	0x43018d74		$a.0
	0x43018d74		gatNetConnParaGet
	0x43018d7c		$d.1
	0x43018d80		$a.2
	0x43018d80		gatRouterConnTimeout
	0x43019004		$d.3
	0x43019034		gatRouterUpdateInfo
	0x43019034		$a.4
	0x430192bc		$d.5
	0x430192e4		gatNetEventHandle
	0x430192e4		$a.6
	0x43019380		$d.7
	0x430193a0		$a.8
	0x430193a0		gatNetExcepTimeout
	0x43019404		$d.9
	0x43019418		$a.10
	0x43019418		gatNetInit
	0x43019748		$d.11
	0x43019788		$a.12
	0x43019788		gatNetConfig
	0x430198b0		$d.13
	0x430198d4		gatAirlinkCb
	0x430198d4		$a.14
	0x43019a40		$d.15
	0x43019a5c		gatConfigDataParse
	0x43019a5c		$a.16
	0x43019d3c		$d.17
	0x43019e30		$a.18
	0x43019f68		$d.19
	0x43019f78		$a.20
	0x4301a3b0		$d.21
	0x4301a41c		gatEnterTestMode
	0x4301a41c		$a.22
	0x4301a4a8		$d.23
	0x4301a4c4		$a.24
	0x4301a4c4		gatNetWriteConfig
	0x4301a824		$d.25
	0x4301a850		$a.26
	0x4301a850		gatTestModeTick
	0x4301a960		$d.27
	0x4301a984		$a.28
	0x4301a984		gatExitTest
	0x4301aa70		$d.29
.text	0x4301aa88	0xb20	D:\GC_connection\GC_connection\gagent\libgagent.a(gatutilcode.o)	#SHT_PROGBITS,SHF_ALLOC|SHF_EXECINSTR,4
	0x4301aa88		$a.0
	0x4301aa88		getKeyValueCustom
	0x4301ac74		$d.1
	0x4301ac88		$a.2
	0x4301ac88		getKeyValue
	0x4301ac90		iofToupper
	0x4301aca4		strToHex
	0x4301ad3c		hexToStr
	0x4301ad90		$d.3
	0x4301ad98		$a.4
	0x4301ad98		gatIofInet_addr
	0x4301aec8		isleap
	0x4301af0c		get_yeardays
	0x4301af2c		gatNtp2Wt
	0x4301b0cc		$d.5
	0x4301b0e8		$a.6
	0x4301b0e8		gatUpLoadDataCombine
	0x4301b46c		$d.7
	0x4301b48c		$a.8
	0x4301b48c		adStrtoul
	0x4301b5a4		encryptDisplay
.text	0x4301b5a8	0xab8	D:\GC_connection\GC_connection\gagent\libgagent.a(gdns.o)	#SHT_PROGBITS,SHF_ALLOC|SHF_EXECINSTR,4
	0x4301b5a8		$a.0
	0x4301b5a8		dnsDataDump
	0x4301b858		$d.1
	0x4301b88c		$a.2
	0x4301b88c		gatGetHostByName
	0x4301bab0		$d.3
	0x4301bad4		$a.4
	0x4301bad4		gatDnsTask
	0x4301bb94		$d.5
	0x4301bba8		$a.6
	0x4301bba8		_dnsTick
	0x4301bce4		$d.7
	0x4301bd00		$a.8
	0x4301bd00		_getDnsReqByName
	0x4301bd78		$d.9
	0x4301bd84		$a.10
	0x4301bd84		_dnsResult
	0x4301bff8		$d.11
	0x4301c02c		$a.12
	0x4301c02c		_dnsResultCb
.text	0x4301c060	0x3f68	D:\GC_connection\GC_connection\gagent\libgagent.a(gserver.o)	#SHT_PROGBITS,SHF_ALLOC|SHF_EXECINSTR,4
	0x4301c060		$a.0
	0x4301c060		Http_Decrypt_RES
	0x4301c658		$d.1
	0x4301c68c		gatParsingGServerErrcode
	0x4301c68c		$a.2
	0x4301c76c		$d.3
	0x4301c780		$a.4
	0x4301c780		gatRegsiter
	0x4301d68c		$d.5
	0x4301d690		$a.6
	0x4301d8a0		$d.7
	0x4301d8b4		$a.8
	0x4301d998		$d.9
	0x4301d9ac		$a.10
	0x4301da7c		$d.11
	0x4301da90		$a.12
	0x4301dc9c		$d.13
	0x4301dcb0		$a.14
	0x4301dcc0		$d.15
	0x4301dd84		$a.16
	0x4301dd84		gatProvision
	0x4301e01c		$d.17
	0x4301e050		$a.18
	0x4301e050		gatProvisionRecCb
	0x4301e800		$d.19
	0x4301e86c		gatNormalDeviceDisable
	0x4301e86c		$a.20
	0x4301eaa4		$d.21
	0x4301eadc		$a.22
	0x4301eadc		gatDeviceDisableRecCb
	0x4301eee8		$d.23
	0x4301ef30		$a.24
	0x4301ef30		gatGServerStart
	0x4301f300		$d.25
	0x4301f338		$a.26
	0x4301f338		gserverDnsCb
	0x4301f474		$d.27
	0x4301f490		$a.28
	0x4301f490		gatRegsiterRecCb
	0x4301fa38		$d.29
	0x4301fa94		$a.30
	0x4301fa94		gatGServerInit
	0x4301faa0		$d.31
	0x4301faa4		gatGServerHandleGatStatus
	0x4301faa4		$a.32
	0x4301fd20		$d.33
	0x4301fd58		gatProvisionTimer
	0x4301fd58		$a.34
	0x4301fd6c		gatRegsiterTimer
	0x4301fec0		$d.35
	0x4301fee4		gserverExcepTimeout
	0x4301fee4		$a.36
	0x4301ffb0		$d.37
.text	0x4301ffc8	0x300c	D:\GC_connection\GC_connection\gagent\libgagent.a(httpgat.o)	#SHT_PROGBITS,SHF_ALLOC|SHF_EXECINSTR,4
	0x4301ffc8		$a.0
	0x4301ffc8		gatHttpInit
	0x43020020		$d.1
	0x43020030		$a.2
	0x43020030		httpDelSendNode
	0x43020194		$d.3
	0x430201b0		httpDelRecNode
	0x430201b0		$a.4
	0x430203a0		$d.5
	0x430203bc		$a.6
	0x430203bc		httpRecCb
	0x430213a4		$d.7
	0x430213a8		$a.8
	0x430213f4		$d.9
	0x43021418		$a.10
	0x43021588		$d.11
	0x4302158c		$a.12
	0x430215b8		$d.13
	0x430215c0		$a.14
	0x43021778		$d.15
	0x4302177c		$a.16
	0x43021888		$d.17
	0x4302188c		$a.18
	0x43021964		$d.19
	0x43021974		$a.20
	0x43021ac8		$d.21
	0x43021b64		$a.22
	0x43021b64		gatHTTPRecvTick
	0x43021cc8		$d.23
	0x43021ce4		httpSendResult
	0x43021ce4		$a.24
	0x43021d24		httpSigHandle
	0x43021ef4		$d.25
	0x43021f18		$a.26
	0x43021f18		httpConnCb
	0x430222a0		$d.27
	0x430222e0		$a.28
	0x430222e0		httpSendCb
	0x430224ec		$d.29
	0x43022510		$a.30
	0x43022510		gatHttpReq
	0x43022848		$d.31
	0x43022858		$a.32
	0x43022cd8		$d.33
	0x43022d30		$a.34
	0x43022d30		httpParseRescode
	0x43022e1c		$d.35
	0x43022e2c		$a.36
	0x43022e2c		httpPostContextAdapter
	0x43022f20		$d.37
	0x43022f24		$a.38
	0x43022f24		httpBodyUserCb
	0x43022fcc		$d.39
.text	0x43022fd4	0x101c	D:\GC_connection\GC_connection\gagent\libgagent.a(ioffile.o)	#SHT_PROGBITS,SHF_ALLOC|SHF_EXECINSTR,4
	0x43022fd4		$a.0
	0x43022fd4		iofFileOpen
	0x430231c8		$d.1
	0x430231e8		$a.2
	0x430231e8		fs_errorMsg
	0x43023270		$d.3
	0x430232b0		$a.4
	0x430232c0		$d.5
	0x43023310		$a.6
	0x43023310		iofFileClose
	0x430233c4		$d.7
	0x430233d8		$a.8
	0x430233d8		iofFileRead
	0x43023538		$d.9
	0x43023554		$a.10
	0x43023554		iofFileWrite
	0x43023988		$d.11
	0x430239b4		$a.12
	0x430239b4		iofFileErase
	0x43023b00		$d.13
	0x43023b18		$a.14
	0x43023b18		iofFileProductInfoTransformation
	0x43023fd4		$d.15
.text	0x43023ff0	0x2810	D:\GC_connection\GC_connection\gagent\libgagent.a(iofnet.o)	#SHT_PROGBITS,SHF_ALLOC|SHF_EXECINSTR,4
	0x43023ff0		$a.0
	0x43023ff0		gatNetLocalIp
	0x43023ff8		$d.1
	0x43023ffc		gatNetCacheSSIDGet
	0x43023ffc		$a.2
	0x43024004		$d.3
	0x43024008		gatNetCachePwdGet
	0x43024008		$a.4
	0x43024010		$d.5
	0x43024014		$a.6
	0x43024014		gatNetCacheBSSIDGet
	0x4302401c		gatNetBackupSSIDGet
	0x4302404c		gatNetBackupPwdGet
	0x4302407c		gatNetBackupBSSIDGet
	0x430240ac		gatNetCacheSSIDSet
	0x430240dc		gatNetCachePwdSet
	0x43024110		gatNetCacheBSSIDSet
	0x43024144		gatNetBackupSSIDSet
	0x43024178		gatNetBackupPwdSet
	0x430241ac		gatNetBackupBSSIDSet
	0x430241e0		gatNetStationStart
	0x43024208		gatNetStationStop
	0x43024210		gatNetSoftApStart
	0x43024294		$d.7
	0x430242a8		gatNetSoftApStop
	0x430242a8		$a.8
	0x430242b0		gatNetMACGet
	0x43024498		$d.9
	0x430244c4		gatIofNetInit
	0x430244c4		$a.10
	0x430245a8		$d.11
	0x430245c8		$a.12
	0x430245c8		gatIofNetGetRssi
	0x43024724		$d.13
	0x43024744		$a.14
	0x43024744		gatNetGetSignalLevel
	0x430247a0		gatOpenAirlink
	0x430247c4		$d.15
	0x430247cc		$a.16
	0x430247cc		gatCloseAirlink
	0x430247d4		gatWiFiScanResult
	0x430247dc		$d.17
	0x430247e0		$a.18
	0x430247e0		iofWifiScan
	0x43024860		$d.19
	0x43024878		$a.20
	0x43024878		gatNetStartScan
	0x430249e4		$d.21
	0x43024a08		$a.22
	0x43024a08		iofGetHostByName
	0x43024af4		$d.23
	0x43024b10		get_ip_from_url
	0x43024b10		$a.24
	0x43024fb8		$d.25
	0x43024fe8		iofGatGetHostByName
	0x43024fe8		$a.26
	0x430250b8		$d.27
	0x430250cc		iofNetDnsHandle
	0x430250cc		$a.28
	0x43025278		$d.29
	0x4302529c		iofNetCheckNetStatus
	0x4302529c		$a.30
	0x430253d0		$d.31
	0x430253ec		$a.32
	0x430253ec		tcp_inet_ntoa
	0x43025450		$d.33
	0x43025454		$a.34
	0x43025454		tcp_show_sysinfo
	0x43025818		$d.35
	0x4302584c		$a.36
	0x4302584c		tcp_netctrl_start
	0x43025d38		$d.37
	0x43025d84		tcp_netctrl_stop
	0x43025d84		$a.38
	0x43025e38		$d.39
	0x43025e50		iofNetActiveHandle
	0x43025e50		$a.40
	0x430262cc		$d.41
	0x43026310		dns_parser
	0x43026310		$a.42
	0x43026414		$d.43
	0x4302642c		$a.44
	0x4302642c		tcp_net_event_cb
	0x4302676c		$d.45
	0x4302679c		$a.46
	0x4302679c		qapi_dss_cb_uspace_dispatcher
	0x430267fc		$d.47
.text	0x43026800	0x86c	D:\GC_connection\GC_connection\gagent\libgagent.a(iofserial.o)	#SHT_PROGBITS,SHF_ALLOC|SHF_EXECINSTR,4
	0x43026800		$a.0
	0x43026800		iofSerialRecGet
	0x4302680c		$d.1
	0x43026810		$a.2
	0x43026810		iofSerialOpen
	0x43026aac		$d.3
	0x43026aec		$a.4
	0x43026aec		SerialRxCb
	0x43026b5c		$d.5
	0x43026b74		$a.6
	0x43026b74		SerialTxCb
	0x43026bcc		$d.7
	0x43026be0		$a.8
	0x43026be0		qapi_uart_tx_user_cb_dispatcher
	0x43026c00		qapi_uart_rx_user_cb_dispatcher
	0x43026c20		iofSerialInit
	0x43026cc8		$d.9
	0x43026ce8		$a.10
	0x43026ce8		iofSerialSelect
	0x43026d50		$d.11
	0x43026d68		$a.12
	0x43026d68		iofSerialSend
	0x43026f0c		$d.13
	0x43026f3c		$a.14
	0x43026f3c		iofSerialRead
	0x43027048		$d.15
.text	0x4302706c	0x5c8	D:\GC_connection\GC_connection\gagent\libgagent.a(iofsocket.o)	#SHT_PROGBITS,SHF_ALLOC|SHF_EXECINSTR,4
	0x4302706c		$a.0
	0x4302706c		gatIofSocketClose
	0x43027110		$d.1
	0x43027128		$a.2
	0x43027128		gatIofSocketConnect
	0x43027348		$d.3
	0x43027368		$a.4
	0x43027368		gatIofTcpSend
	0x43027504		$d.5
	0x4302751c		$a.6
	0x4302751c		gatTcpSendResult
	0x43027548		gatIofUdpSend
	0x43027550		gatIofSocketTcpRecv
	0x430275a0		$d.7
	0x430275a4		$a.8
	0x430275a4		gatIofSocketUdpRecv
	0x430275ac		gatIofSelect
	0x43027604		gatIofTcpCreateServer
	0x4302760c		gatIofTcpServerListen
	0x43027614		gatCreateUDPServer
	0x4302761c		gatIofUdpCreateBCServer
	0x43027624		gatIofSocketInit
	0x43027628		gatIofTcpSocketInfoGet
	0x4302762c		gatIofUdpSocketInfoGet
.text	0x43027634	0x564	D:\GC_connection\GC_connection\gagent\libgagent.a(ioftime.o)	#SHT_PROGBITS,SHF_ALLOC|SHF_EXECINSTR,4
	0x43027634		$a.0
	0x43027634		milliseconds_sleep
	0x43027644		iofThreadDelay
	0x43027654		getDevTime_MS
	0x430276fc		$d.1
	0x43027714		$a.2
	0x43027714		getDevTime_S
	0x430277bc		$d.3
	0x430277d4		$a.4
	0x430277d4		iofTimerInit
	0x430278d0		$d.5
	0x430278f0		$a.6
	0x430278f0		timerCb
	0x43027908		iofCurTime
	0x4302790c		iofLocalTimerMSStart
	0x43027a58		$d.7
	0x43027a80		$a.8
	0x43027a80		iofLocalTimerMSStop
	0x43027b80		$d.9
.text	0x43027b98	0x80	D:\GC_connection\GC_connection\gagent\libgagent.a(lanvirtual.o)	#SHT_PROGBITS,SHF_ALLOC|SHF_EXECINSTR,4
	0x43027b98		$a.0
	0x43027b98		isLoginClient
	0x43027ba0		gatLanSend
	0x43027bfc		$d.1
	0x43027c10		$a.2
	0x43027c10		gatLanLoginClientNumGet
.text	0x43027c18	0x17a8	D:\GC_connection\GC_connection\gagent\libgagent.a(mqttgat.o)	#SHT_PROGBITS,SHF_ALLOC|SHF_EXECINSTR,4
	0x43027c18		$a.0
	0x43027c18		mqttConnBrokerInit
	0x43027ce4		$d.1
	0x43027cfc		$a.2
	0x43027cfc		mqttDoHeartBeat
	0x43027f54		$d.3
	0x43027f80		mqttPingTimeSetAlive
	0x43027f80		$a.4
	0x43027f9c		mqttExtractPacket
	0x430280bc		$d.5
	0x430280ec		$a.6
	0x4302890c		$d.7
	0x43028978		mqttDataHandle
	0x43028978		$a.8
	0x43028a20		$d.9
	0x43028a50		$a.10
	0x43028c48		$d.11
	0x43028c78		$a.12
	0x43028c78		mqttSubTopicS
	0x43028d7c		$d.13
	0x43028d90		$a.14
	0x43028d90		mqttSendPubData
	0x43028e14		gatMqttInit
	0x43028e94		$d.15
	0x43028eb0		gatMqttReInit
	0x43028eb0		$a.16
	0x43028fd4		$d.17
	0x43028ff4		gatM2MHeartBeatStart
	0x43028ff4		$a.18
	0x4302907c		$d.19
	0x43029098		gatM2MHeartBeatStop
	0x43029098		$a.20
	0x430290fc		$d.21
	0x43029110		gatCleanMqttCacheBuf
	0x43029110		$a.22
	0x430291e4		$d.23
	0x43029200		gatCloudGizDataSend
	0x43029200		$a.24
	0x430293a0		$d.25
.text	0x430293c0	0x1330	D:\GC_connection\GC_connection\gagent\libgagent.a(mqttlib.o)	#SHT_PROGBITS,SHF_ALLOC|SHF_EXECINSTR,4
	0x430293c0		$a.0
	0x430293c0		mqtt_num_rem_len_bytes_safe
	0x430294f0		$d.1
	0x4302950c		$a.2
	0x4302950c		mqtt_num_rem_len_bytes
	0x43029544		mqtt_len_of_bytes
	0x43029594		mqtt_parse_rem_len
	0x430295d0		mqtt_parse_msg_id
	0x43029650		mqtt_parse_pub_topic_ptr
	0x4302969c		mqtt_parse_publish_msg
	0x430296cc		mqtt_parse_pub_msg_ptr
	0x43029744		mqtt_init
	0x430297c4		mqtt_init_auth
	0x43029818		mqtt_set_alive
	0x43029820		mqtt_connect
	0x43029e00		$d.3
	0x43029e34		$a.4
	0x43029e34		mqtt_disconnect
	0x43029e7c		mqtt_ping
	0x43029ec4		mqtt_publish_with_qos
	0x4302a2bc		$d.5
	0x4302a2ec		$a.6
	0x4302a2ec		mqtt_subscribes
	0x4302a6c0		$d.7
.text	0x4302a6f0	0x1f78	D:\GC_connection\GC_connection\gagent\libgagent.a(otawan.o)	#SHT_PROGBITS,SHF_ALLOC|SHF_EXECINSTR,4
	0x4302a6f0		$a.0
	0x4302a6f0		gatWanOtaParmGet
	0x4302a6f8		$d.1
	0x4302a6fc		gatWanOtaStatusGet
	0x4302a6fc		$a.2
	0x4302a760		$d.3
	0x4302a778		$a.4
	0x4302a778		gatOTAEventHandle
	0x4302a8e4		$d.5
	0x4302a900		$a.6
	0x4302a900		gatReqLastVersion
	0x4302aacc		$d.7
	0x4302ab08		$a.8
	0x4302ab08		gatGetMD5
	0x4302ace0		$d.9
	0x4302ad04		$a.10
	0x4302ad04		gatGetFileType
	0x4302aedc		$d.11
	0x4302af04		$a.12
	0x4302af04		gatReqLastVersionCb
	0x4302b6d0		$d.13
	0x4302b740		$a.14
	0x4302b740		gatDownloadFirmware
	0x4302b874		$d.15
	0x4302b890		$a.16
	0x4302b890		gatDownLoadFirmwareCb
	0x4302c484		$d.17
	0x4302c52c		$a.18
	0x4302c52c		gatWanOtaStatusSet
	0x4302c594		$d.19
	0x4302c5ac		$a.20
	0x4302c5ac		gatReDownloadTimerCb
	0x4302c650		$d.21
.text	0x4302c668	0xc34	D:\GC_connection\GC_connection\gagent\libgagent.a(gagent_md5.o)	#SHT_PROGBITS,SHF_ALLOC|SHF_EXECINSTR,4
	0x4302c668		$a.0
	0x4302c668		GAgent_MD5Init
	0x4302c698		$d.1
	0x4302c6a8		$a.2
	0x4302c6a8		GAgent_MD5Update
	0x4302c768		GAgent_MD5Transform
	0x4302d090		$d.3
	0x4302d18c		$a.4
	0x4302d18c		GAgent_MD5Final
	0x4302d200		$d.5
	0x4302d204		$a.6
	0x4302d204		GAgent_MD5Encode
	0x4302d254		GAgent_MD5Decode
.text	0x4302d29c	0x45bc	D:\GC_connection\GC_connection\gagent\libgagent.a(simulator.o)	#SHT_PROGBITS,SHF_ALLOC|SHF_EXECINSTR,4
	0x4302d29c		$a.0
	0x4302d29c		simulatorLogOutCloudTimeOutCb
	0x4302d370		$d.1
	0x4302d38c		$a.2
	0x4302d38c		onSimulatorLoginCb
	0x4302d588		$d.3
	0x4302d598		$a.4
	0x4302d768		$d.5
	0x4302d7a4		onSimulatorSignOutCb
	0x4302d7a4		$a.6
	0x4302d9b0		$d.7
	0x4302d9e0		gatSubDevsLoginCb
	0x4302d9e0		$a.8
	0x4302dac8		$d.9
	0x4302dae0		$a.10
	0x4302dae0		gatSubDevsRegisterCb
	0x4302dc00		$d.11
	0x4302dc20		$a.12
	0x4302dc20		gagentDevsLogin
	0x4302e20c		$d.13
	0x4302e268		$a.14
	0x4302e268		gagentconnect2M2M
	0x4302e534		$d.15
	0x4302e56c		$a.16
	0x4302e56c		gagentDevsRegister
	0x4302f304		$d.17
	0x4302f3ac		$a.18
	0x4302f3ac		gagentDisconnectM2M
	0x4302f6e0		$d.19
	0x4302f720		$a.20
	0x4302f720		simulatorM2MSignOutSocketCb
	0x4302f80c		$d.21
	0x4302f828		$a.22
	0x4302f828		gagentResetSimulator
	0x4302fa4c		$d.23
	0x4302fa60		$a.24
	0x4302fba0		$d.25
	0x4302fbdc		simulatorGServerResetRec_Cb
	0x4302fbdc		$a.26
	0x43030438		$d.27
	0x430304a8		gatRegsiterSubRecCb
	0x430304a8		$a.28
	0x43031288		$d.29
	0x430312f8		$a.30
	0x430312f8		simulatorDevsLoginTimeOutCb
	0x43031474		$d.31
	0x43031498		gatRegsiterErrorHandle
	0x43031498		$a.32
	0x43031828		$d.33
.text.qapi_Timer_Get_Cbinfo	0x43031858	0x38	sdk\libs\timer_dam_lib.lib(qapi_timer_user.o)	#SHT_PROGBITS,SHF_ALLOC|SHF_EXECINSTR,4
	0x43031858		$t.0
	0x43031859		qapi_Timer_Get_Cbinfo
	0x4303188c		$d.1
.text.timer_client_cb_handler	0x43031890	0x28	sdk\libs\timer_dam_lib.lib(qapi_timer_user.o)	#SHT_PROGBITS,SHF_ALLOC|SHF_EXECINSTR,2
	0x43031890		$t.2
	0x43031891		timer_client_cb_handler
.text.qapi_timer_user_init	0x430318b8	0xb4	sdk\libs\timer_dam_lib.lib(qapi_timer_user.o)	#SHT_PROGBITS,SHF_ALLOC|SHF_EXECINSTR,4
	0x430318b8		$t.3
	0x430318b9		qapi_timer_user_init
	0x43031948		$d.4
.text.qapi_Timer_Def	0x4303196c	0x54	sdk\libs\timer_dam_lib.lib(qapi_timer_user.o)	#SHT_PROGBITS,SHF_ALLOC|SHF_EXECINSTR,4
	0x4303196c		$t.5
	0x4303196d		qapi_Timer_Def
	0x430319b4		$d.6
.text.qapi_Timer_Set	0x430319c0	0x38	sdk\libs\timer_dam_lib.lib(qapi_timer_user.o)	#SHT_PROGBITS,SHF_ALLOC|SHF_EXECINSTR,4
	0x430319c0		$t.7
	0x430319c1		qapi_Timer_Set
	0x430319f4		$d.8
.text.qapi_Timer_Get_Timer_Info	0x430319f8	0x38	sdk\libs\timer_dam_lib.lib(qapi_timer_user.o)	#SHT_PROGBITS,SHF_ALLOC|SHF_EXECINSTR,4
	0x430319f8		$t.9
	0x430319f9		qapi_Timer_Get_Timer_Info
	0x43031a2c		$d.10
.text.qapi_Timer_Sleep	0x43031a30	0x38	sdk\libs\timer_dam_lib.lib(qapi_timer_user.o)	#SHT_PROGBITS,SHF_ALLOC|SHF_EXECINSTR,4
	0x43031a30		$t.11
	0x43031a31		qapi_Timer_Sleep
	0x43031a64		$d.12
.text.qapi_Timer_Undef	0x43031a68	0x34	sdk\libs\timer_dam_lib.lib(qapi_timer_user.o)	#SHT_PROGBITS,SHF_ALLOC|SHF_EXECINSTR,4
	0x43031a68		$t.13
	0x43031a69		qapi_Timer_Undef
	0x43031a98		$d.14
.text.qapi_Timer_Stop	0x43031a9c	0x34	sdk\libs\timer_dam_lib.lib(qapi_timer_user.o)	#SHT_PROGBITS,SHF_ALLOC|SHF_EXECINSTR,4
	0x43031a9c		$t.15
	0x43031a9d		qapi_Timer_Stop
	0x43031acc		$d.16
.text.qapi_time_get	0x43031ad0	0x3c	sdk\libs\timer_dam_lib.lib(qapi_timer_user.o)	#SHT_PROGBITS,SHF_ALLOC|SHF_EXECINSTR,4
	0x43031ad0		$t.17
	0x43031ad1		qapi_time_get
	0x43031b08		$d.18
.text._txm_module_thread_shell_entry	0x43031b0c	0x94	sdk\libs\txm_lib.lib(txm_module_thread_shell_entry.o)	#SHT_PROGBITS,SHF_ALLOC|SHF_EXECINSTR,4
	0x43031b0c		$a.0
	0x43031b0c		_txm_module_thread_shell_entry
	0x43031b94		$d.1
.text._txm_module_callback_request_thread_entry	0x43031ba0	0x108	sdk\libs\txm_lib.lib(txm_module_callback_request_thread_entry.o)	#SHT_PROGBITS,SHF_ALLOC|SHF_EXECINSTR,4
	0x43031ba0		$a.0
	0x43031ba0		_txm_module_callback_request_thread_entry
	0x43031bf8		$d.1
	0x43031c0c		$a.2
	0x43031ca0		$d.3
.text._txm_module_system_call11	0x43031ca8	0x68	sdk\libs\txm_lib.lib(txm_module_system_call11.o)	#SHT_PROGBITS,SHF_ALLOC|SHF_EXECINSTR,4
	0x43031ca8		$a.0
	0x43031ca8		_txm_module_system_call11
	0x43031d0c		$d.1
.text._txm_module_system_call12	0x43031d10	0x70	sdk\libs\txm_lib.lib(txm_module_system_call12.o)	#SHT_PROGBITS,SHF_ALLOC|SHF_EXECINSTR,4
	0x43031d10		$a.0
	0x43031d10		_txm_module_system_call12
	0x43031d7c		$d.1
.text._txm_module_system_call4	0x43031d80	0x2c	sdk\libs\txm_lib.lib(txm_module_system_call4.o)	#SHT_PROGBITS,SHF_ALLOC|SHF_EXECINSTR,4
	0x43031d80		$a.0
	0x43031d80		_txm_module_system_call4
	0x43031da8		$d.1
.text._txm_module_system_call5	0x43031dac	0x34	sdk\libs\txm_lib.lib(txm_module_system_call5.o)	#SHT_PROGBITS,SHF_ALLOC|SHF_EXECINSTR,4
	0x43031dac		$a.0
	0x43031dac		_txm_module_system_call5
	0x43031ddc		$d.1
.text._txm_module_system_call6	0x43031de0	0x3c	sdk\libs\txm_lib.lib(txm_module_system_call6.o)	#SHT_PROGBITS,SHF_ALLOC|SHF_EXECINSTR,4
	0x43031de0		$a.0
	0x43031de0		_txm_module_system_call6
	0x43031e18		$d.1
.text._txm_module_system_call7	0x43031e1c	0x44	sdk\libs\txm_lib.lib(txm_module_system_call7.o)	#SHT_PROGBITS,SHF_ALLOC|SHF_EXECINSTR,4
	0x43031e1c		$a.0
	0x43031e1c		_txm_module_system_call7
	0x43031e5c		$d.1
.text._txm_module_system_call8	0x43031e60	0x4c	sdk\libs\txm_lib.lib(txm_module_system_call8.o)	#SHT_PROGBITS,SHF_ALLOC|SHF_EXECINSTR,4
	0x43031e60		$a.0
	0x43031e60		_txm_module_system_call8
	0x43031ea8		$d.1
.text.tolower	0x43031eac	0xe	D:\4.0.3\armv7m-none-eabi\libc\lib/libc.a(tolower.o)	#SHT_PROGBITS,SHF_ALLOC|SHF_EXECINSTR,2
	0x43031eac		$t
	0x43031ead		tolower
.text.__tolower_l	0x43031eba	0x4	D:\4.0.3\armv7m-none-eabi\libc\lib/libc.a(tolower.o)	#SHT_PROGBITS,SHF_ALLOC|SHF_EXECINSTR,2
	0x43031eba		$t
	0x43031ebb		__tolower_l
	0x43031ebb		tolower_l
.text.toupper	0x43031ebe	0xe	D:\4.0.3\armv7m-none-eabi\libc\lib/libc.a(toupper.o)	#SHT_PROGBITS,SHF_ALLOC|SHF_EXECINSTR,2
	0x43031ebe		$t
	0x43031ebf		toupper
.text.__toupper_l	0x43031ecc	0x4	D:\4.0.3\armv7m-none-eabi\libc\lib/libc.a(toupper.o)	#SHT_PROGBITS,SHF_ALLOC|SHF_EXECINSTR,2
	0x43031ecc		$t
	0x43031ecd		__toupper_l
	0x43031ecd		toupper_l
.text.malloc	0x43031ed0	0x1b8	D:\4.0.3\armv7m-none-eabi\libc\lib/libc.a(malloc.o)	#SHT_PROGBITS,SHF_ALLOC|SHF_EXECINSTR,4
	0x43031ed0		$t
	0x43031ed1		malloc
	0x43032070		$d
.text.adjust_size	0x43032088	0x34	D:\4.0.3\armv7m-none-eabi\libc\lib/libc.a(malloc.o)	#SHT_PROGBITS,SHF_ALLOC|SHF_EXECINSTR,4
	0x43032088		$t
	0x43032089		adjust_size
	0x430320b8		$d
.text.alloc_rev	0x430320bc	0x40	D:\4.0.3\armv7m-none-eabi\libc\lib/libc.a(malloc.o)	#SHT_PROGBITS,SHF_ALLOC|SHF_EXECINSTR,2
	0x430320bc		$t
	0x430320bd		alloc_rev
.text.lock_bin	0x430320fc	0x28	D:\4.0.3\armv7m-none-eabi\libc\lib/libc.a(malloc.o)	#SHT_PROGBITS,SHF_ALLOC|SHF_EXECINSTR,4
	0x430320fc		$t
	0x430320fd		lock_bin
	0x43032120		$d
.text.unbin	0x43032124	0x68	D:\4.0.3\armv7m-none-eabi\libc\lib/libc.a(malloc.o)	#SHT_PROGBITS,SHF_ALLOC|SHF_EXECINSTR,4
	0x43032124		$t
	0x43032125		unbin
	0x43032188		$d
.text.unlock_bin	0x4303218c	0x10	D:\4.0.3\armv7m-none-eabi\libc\lib/libc.a(malloc.o)	#SHT_PROGBITS,SHF_ALLOC|SHF_EXECINSTR,4
	0x4303218c		$t
	0x4303218d		unlock_bin
	0x43032198		$d
.text.trim	0x4303219c	0x32	D:\4.0.3\armv7m-none-eabi\libc\lib/libc.a(malloc.o)	#SHT_PROGBITS,SHF_ALLOC|SHF_EXECINSTR,2
	0x4303219c		$t
	0x4303219d		trim
.text.__malloc0	0x430321ce	0x2a	D:\4.0.3\armv7m-none-eabi\libc\lib/libc.a(malloc.o)	#SHT_PROGBITS,SHF_ALLOC|SHF_EXECINSTR,2
	0x430321ce		$t
	0x430321cf		__malloc0
.text.realloc	0x430321f8	0x108	D:\4.0.3\armv7m-none-eabi\libc\lib/libc.a(malloc.o)	#SHT_PROGBITS,SHF_ALLOC|SHF_EXECINSTR,2
	0x430321f8		$t
	0x430321f9		realloc
	0x43032236		$d
	0x43032238		$t
	0x43032298		$d
	0x4303229a		$t
.text.free	0x43032300	0x178	D:\4.0.3\armv7m-none-eabi\libc\lib/libc.a(malloc.o)	#SHT_PROGBITS,SHF_ALLOC|SHF_EXECINSTR,4
	0x43032300		$t
	0x43032301		free
	0x43032328		$d
	0x4303232a		$t
	0x4303233a		$d
	0x4303233c		$t
	0x43032474		$d
.text.alloc_fwd	0x43032478	0x3c	D:\4.0.3\armv7m-none-eabi\libc\lib/libc.a(malloc.o)	#SHT_PROGBITS,SHF_ALLOC|SHF_EXECINSTR,2
	0x43032478		$t
	0x43032479		alloc_fwd
.text.bin_index	0x430324b4	0x2c	D:\4.0.3\armv7m-none-eabi\libc\lib/libc.a(malloc.o)	#SHT_PROGBITS,SHF_ALLOC|SHF_EXECINSTR,4
	0x430324b4		$t
	0x430324b5		bin_index
	0x430324dc		$d
.text.lock	0x430324e0	0x3c	D:\4.0.3\armv7m-none-eabi\libc\lib/libc.a(malloc.o)	#SHT_PROGBITS,SHF_ALLOC|SHF_EXECINSTR,4
	0x430324e0		$t
	0x430324e1		lock
	0x43032518		$d
.text.unlock	0x4303251c	0x32	D:\4.0.3\armv7m-none-eabi\libc\lib/libc.a(malloc.o)	#SHT_PROGBITS,SHF_ALLOC|SHF_EXECINSTR,2
	0x4303251c		$t
	0x4303251d		unlock
.text.a_and	0x4303254e	0x22	D:\4.0.3\armv7m-none-eabi\libc\lib/libc.a(malloc.o)	#SHT_PROGBITS,SHF_ALLOC|SHF_EXECINSTR,2
	0x4303254e		$t
	0x4303254f		a_and
.text.a_sc	0x43032570	0xe	D:\4.0.3\armv7m-none-eabi\libc\lib/libc.a(malloc.o)	#SHT_PROGBITS,SHF_ALLOC|SHF_EXECINSTR,2
	0x43032570		$t
	0x43032571		a_sc
.text.__syscall3	0x4303257e	0xa	D:\4.0.3\armv7m-none-eabi\libc\lib/libc.a(malloc.o)	#SHT_PROGBITS,SHF_ALLOC|SHF_EXECINSTR,2
	0x4303257e		$t
	0x4303257f		__syscall3
.text.a_or	0x43032588	0x22	D:\4.0.3\armv7m-none-eabi\libc\lib/libc.a(malloc.o)	#SHT_PROGBITS,SHF_ALLOC|SHF_EXECINSTR,2
	0x43032588		$t
	0x43032589		a_or
.text.__madvise	0x430325aa	0xe	D:\4.0.3\armv7m-none-eabi\libc\lib/libc.a(madvise.o)	#SHT_PROGBITS,SHF_ALLOC|SHF_EXECINSTR,2
	0x430325aa		$t
	0x430325ab		__madvise
	0x430325ab		madvise
.text.dummy	0x430325b8	0x2	D:\4.0.3\armv7m-none-eabi\libc\lib/libc.a(mremap.o)	#SHT_PROGBITS,SHF_ALLOC|SHF_EXECINSTR,2
	0x430325b8		$t
	0x430325b9		dummy
	0x430325b9		__vm_wait
PADDING_ALIGNMENT	0x430325ba	0x2	0x0
.text.__mremap	0x430325bc	0x54	D:\4.0.3\armv7m-none-eabi\libc\lib/libc.a(mremap.o)	#SHT_PROGBITS,SHF_ALLOC|SHF_EXECINSTR,4
	0x430325bc		$t
	0x430325bd		__mremap
	0x430325bd		mremap
	0x4303260c		$d
.text.dummy	0x43032610	0x2	D:\4.0.3\armv7m-none-eabi\libc\lib/libc.a(munmap.o)	#SHT_PROGBITS,SHF_ALLOC|SHF_EXECINSTR,2
	0x43032610		$t
	0x43032611		dummy
.text.__munmap	0x43032612	0x1a	D:\4.0.3\armv7m-none-eabi\libc\lib/libc.a(munmap.o)	#SHT_PROGBITS,SHF_ALLOC|SHF_EXECINSTR,2
	0x43032612		$t
	0x43032613		__munmap
	0x43032613		munmap
.text.srand	0x4303262c	0x10	D:\4.0.3\armv7m-none-eabi\libc\lib/libc.a(rand.o)	#SHT_PROGBITS,SHF_ALLOC|SHF_EXECINSTR,4
	0x4303262c		$t
	0x4303262d		srand
	0x43032638		$d
.text.rand	0x4303263c	0x34	D:\4.0.3\armv7m-none-eabi\libc\lib/libc.a(rand.o)	#SHT_PROGBITS,SHF_ALLOC|SHF_EXECINSTR,4
	0x4303263c		$t
	0x4303263d		rand
	0x43032664		$d
.text.vfprintf	0x43032670	0xd6	D:\4.0.3\armv7m-none-eabi\libc\lib/libc.a(vfprintf.o)	#SHT_PROGBITS,SHF_ALLOC|SHF_EXECINSTR,2
	0x43032670		$t
	0x43032671		vfprintf
PADDING_ALIGNMENT	0x43032746	0x2	0x0
.text.printf_core	0x43032748	0x6a8	D:\4.0.3\armv7m-none-eabi\libc\lib/libc.a(vfprintf.o)	#SHT_PROGBITS,SHF_ALLOC|SHF_EXECINSTR,4
	0x43032748		$t
	0x43032749		printf_core
	0x430329f8		$d
	0x43032a00		$t
	0x43032c68		$d
	0x43032c8e		$t
	0x43032dcc		$d
.text.vsnprintf	0x43032df0	0x1a4	D:\4.0.3\armv7m-none-eabi\libc\lib/libc.a(vfprintf.o)	#SHT_PROGBITS,SHF_ALLOC|SHF_EXECINSTR,4
	0x43032df0		$t
	0x43032df1		vsnprintf
	0x43032f90		$d
.text.fmt_u32	0x43032f94	0x22	D:\4.0.3\armv7m-none-eabi\libc\lib/libc.a(vfprintf.o)	#SHT_PROGBITS,SHF_ALLOC|SHF_EXECINSTR,2
	0x43032f94		$t
	0x43032f95		fmt_u32
.text.out	0x43032fb6	0x14	D:\4.0.3\armv7m-none-eabi\libc\lib/libc.a(vfprintf.o)	#SHT_PROGBITS,SHF_ALLOC|SHF_EXECINSTR,2
	0x43032fb6		$t
	0x43032fb7		out
.text.getint	0x43032fca	0x1e	D:\4.0.3\armv7m-none-eabi\libc\lib/libc.a(vfprintf.o)	#SHT_PROGBITS,SHF_ALLOC|SHF_EXECINSTR,2
	0x43032fca		$t
	0x43032fcb		getint
.text.pop_arg	0x43032fe8	0x80	D:\4.0.3\armv7m-none-eabi\libc\lib/libc.a(vfprintf.o)	#SHT_PROGBITS,SHF_ALLOC|SHF_EXECINSTR,4
	0x43032fe8		$t
	0x43032fe9		pop_arg
	0x43032ff6		$d
	0x43033000		$t
.text.pad	0x43033068	0x4e	D:\4.0.3\armv7m-none-eabi\libc\lib/libc.a(vfprintf.o)	#SHT_PROGBITS,SHF_ALLOC|SHF_EXECINSTR,2
	0x43033068		$t
	0x43033069		pad
.text.__fwritex	0x430330b6	0x76	D:\4.0.3\armv7m-none-eabi\libc\lib/libc.a(fwrite.o)	#SHT_PROGBITS,SHF_ALLOC|SHF_EXECINSTR,2
	0x430330b6		$t
	0x430330b7		__fwritex
.text.fwrite	0x4303312c	0x58	D:\4.0.3\armv7m-none-eabi\libc\lib/libc.a(fwrite.o)	#SHT_PROGBITS,SHF_ALLOC|SHF_EXECINSTR,2
	0x4303312c		$t
	0x4303312d		fwrite
	0x4303312d		fwrite_unlocked
.text.snprintf	0x43033184	0x16	D:\4.0.3\armv7m-none-eabi\libc\lib/libc.a(snprintf.o)	#SHT_PROGBITS,SHF_ALLOC|SHF_EXECINSTR,2
	0x43033184		$t
	0x43033185		snprintf
.text.sprintf	0x4303319a	0x18	D:\4.0.3\armv7m-none-eabi\libc\lib/libc.a(sprintf.o)	#SHT_PROGBITS,SHF_ALLOC|SHF_EXECINSTR,2
	0x4303319a		$t
	0x4303319b		sprintf
PADDING_ALIGNMENT	0x430331b2	0x2	0x0
.text.vsnprintf_full	0x430331b4	0x74	D:\4.0.3\armv7m-none-eabi\libc\lib/libc.a(vsnprintf.o)	#SHT_PROGBITS,SHF_ALLOC|SHF_EXECINSTR,4
	0x430331b4		$t
	0x430331b5		vsnprintf_full
	0x43033220		$d
.text.sn_write	0x43033228	0x22	D:\4.0.3\armv7m-none-eabi\libc\lib/libc.a(vsnprintf.o)	#SHT_PROGBITS,SHF_ALLOC|SHF_EXECINSTR,2
	0x43033228		$t
	0x43033229		sn_write
PADDING_ALIGNMENT	0x4303324a	0x2	0x0
.text.vsprintf	0x4303324c	0x10	D:\4.0.3\armv7m-none-eabi\libc\lib/libc.a(vsprintf.o)	#SHT_PROGBITS,SHF_ALLOC|SHF_EXECINSTR,4
	0x4303324c		$t
	0x4303324d		vsprintf
	0x43033258		$d
.text.strtoull	0x4303325c	0x12	D:\4.0.3\armv7m-none-eabi\libc\lib/libc.a(strtol.o)	#SHT_PROGBITS,SHF_ALLOC|SHF_EXECINSTR,2
	0x4303325c		$t
	0x4303325d		strtoull
	0x4303325d		__strtoull_internal
PADDING_ALIGNMENT	0x4303326e	0x2	0x0
.text.strtox	0x43033270	0x5c	D:\4.0.3\armv7m-none-eabi\libc\lib/libc.a(strtol.o)	#SHT_PROGBITS,SHF_ALLOC|SHF_EXECINSTR,4
	0x43033270		$t
	0x43033271		strtox
	0x430332c8		$d
.text.strtoll	0x430332cc	0x14	D:\4.0.3\armv7m-none-eabi\libc\lib/libc.a(strtol.o)	#SHT_PROGBITS,SHF_ALLOC|SHF_EXECINSTR,2
	0x430332cc		$t
	0x430332cd		strtoll
	0x430332cd		__strtoll_internal
.text.strtoul	0x430332e0	0x14	D:\4.0.3\armv7m-none-eabi\libc\lib/libc.a(strtol.o)	#SHT_PROGBITS,SHF_ALLOC|SHF_EXECINSTR,2
	0x430332e0		$t
	0x430332e1		strtoul
	0x430332e1		__strtoul_internal
.text.strtol	0x430332f4	0x14	D:\4.0.3\armv7m-none-eabi\libc\lib/libc.a(strtol.o)	#SHT_PROGBITS,SHF_ALLOC|SHF_EXECINSTR,2
	0x430332f4		$t
	0x430332f5		strtol
	0x430332f5		__strtol_internal
.text.strtoimax	0x43033308	0x4	D:\4.0.3\armv7m-none-eabi\libc\lib/libc.a(strtol.o)	#SHT_PROGBITS,SHF_ALLOC|SHF_EXECINSTR,2
	0x43033308		$t
	0x43033309		strtoimax
	0x43033309		__strtoimax_internal
.text.strtoumax	0x4303330c	0x4	D:\4.0.3\armv7m-none-eabi\libc\lib/libc.a(strtol.o)	#SHT_PROGBITS,SHF_ALLOC|SHF_EXECINSTR,2
	0x4303330c		$t
	0x4303330d		strtoumax
	0x4303330d		__strtoumax_internal
.text.__aeabi_memclr	0x43033310	0x8	D:\4.0.3\armv7m-none-eabi\libc\lib/libc.a(__aeabi_memclr.o)	#SHT_PROGBITS,SHF_ALLOC|SHF_EXECINSTR,2
	0x43033310		$t
	0x43033311		__aeabi_memclr
	0x43033311		__aeabi_memclr4
	0x43033311		__aeabi_memclr8
.text.__aeabi_memcpy	0x43033318	0x4	D:\4.0.3\armv7m-none-eabi\libc\lib/libc.a(__aeabi_memcpy.o)	#SHT_PROGBITS,SHF_ALLOC|SHF_EXECINSTR,2
	0x43033318		$t
	0x43033319		__aeabi_memcpy
	0x43033319		__aeabi_memcpy4
	0x43033319		__aeabi_memcpy8
.text	0x4303331c	0x2ee	D:\4.0.3\armv7m-none-eabi\libc\lib/libc.a(memcpy_le.o)	#SHT_PROGBITS,SHF_ALLOC|SHF_EXECINSTR,2
	0x4303331c		$t
	0x4303331d		memcpy
	0x4303335c		src_aligned
	0x430333aa		congruent_aligned32
	0x430333aa		cached_aligned32
	0x430333c0		less_than_32_left
	0x4303340e		non_congruent
	0x4303348a		loop16
	0x430334e6		loop8
	0x43033542		loop24
	0x4303359a		less_than_thirtytwo
	0x430335c4		partial_word_tail
	0x430335e0		copy_last_3_and_return
PADDING_ALIGNMENT	0x4303360a	0x2	0x0
.text	0x4303360c	0x68	D:\4.0.3\armv7m-none-eabi\libc\lib/libc.a(memset_nofp_armv7.o)	#SHT_PROGBITS,SHF_ALLOC|SHF_EXECINSTR,4
	0x4303360c		$t
	0x4303360d		memset
.text.memchr	0x43033674	0x5c	D:\4.0.3\armv7m-none-eabi\libc\lib/libc.a(memchr.o)	#SHT_PROGBITS,SHF_ALLOC|SHF_EXECINSTR,2
	0x43033674		$t
	0x43033675		memchr
.text.memcmp	0x430336d0	0x1c	D:\4.0.3\armv7m-none-eabi\libc\lib/libc.a(memcmp.o)	#SHT_PROGBITS,SHF_ALLOC|SHF_EXECINSTR,2
	0x430336d0		$t
	0x430336d1		memcmp
.text.strchr	0x430336ec	0x14	D:\4.0.3\armv7m-none-eabi\libc\lib/libc.a(strchr.o)	#SHT_PROGBITS,SHF_ALLOC|SHF_EXECINSTR,2
	0x430336ec		$t
	0x430336ed		strchr
.text.__strchrnul	0x43033700	0x5c	D:\4.0.3\armv7m-none-eabi\libc\lib/libc.a(strchrnul.o)	#SHT_PROGBITS,SHF_ALLOC|SHF_EXECINSTR,2
	0x43033700		$t
	0x43033701		__strchrnul
	0x43033701		strchrnul
.text.strcmp	0x4303375c	0x14	D:\4.0.3\armv7m-none-eabi\libc\lib/libc.a(strcmp.o)	#SHT_PROGBITS,SHF_ALLOC|SHF_EXECINSTR,2
	0x4303375c		$t
	0x4303375d		strcmp
.text.strcpy	0x43033770	0xc	D:\4.0.3\armv7m-none-eabi\libc\lib/libc.a(strcpy.o)	#SHT_PROGBITS,SHF_ALLOC|SHF_EXECINSTR,2
	0x43033770		$t
	0x43033771		strcpy
.text.strlen	0x4303377c	0x34	D:\4.0.3\armv7m-none-eabi\libc\lib/libc.a(strlen.o)	#SHT_PROGBITS,SHF_ALLOC|SHF_EXECINSTR,2
	0x4303377c		$t
	0x4303377d		strlen
.text.strncasecmp	0x430337b0	0x48	D:\4.0.3\armv7m-none-eabi\libc\lib/libc.a(strncasecmp.o)	#SHT_PROGBITS,SHF_ALLOC|SHF_EXECINSTR,2
	0x430337b0		$t
	0x430337b1		strncasecmp
.text.__strncasecmp_l	0x430337f8	0x4	D:\4.0.3\armv7m-none-eabi\libc\lib/libc.a(strncasecmp.o)	#SHT_PROGBITS,SHF_ALLOC|SHF_EXECINSTR,2
	0x430337f8		$t
	0x430337f9		__strncasecmp_l
	0x430337f9		strncasecmp_l
.text.strncmp	0x430337fc	0x28	D:\4.0.3\armv7m-none-eabi\libc\lib/libc.a(strncmp.o)	#SHT_PROGBITS,SHF_ALLOC|SHF_EXECINSTR,2
	0x430337fc		$t
	0x430337fd		strncmp
.text.strncpy	0x43033824	0xc	D:\4.0.3\armv7m-none-eabi\libc\lib/libc.a(strncpy.o)	#SHT_PROGBITS,SHF_ALLOC|SHF_EXECINSTR,2
	0x43033824		$t
	0x43033825		strncpy
.text.strstr	0x43033830	0x2d0	D:\4.0.3\armv7m-none-eabi\libc\lib/libc.a(strstr.o)	#SHT_PROGBITS,SHF_ALLOC|SHF_EXECINSTR,2
	0x43033830		$t
	0x43033831		strstr
.text.__wait	0x43033b00	0x64	D:\4.0.3\armv7m-none-eabi\libc\lib/libc.a(__wait.o)	#SHT_PROGBITS,SHF_ALLOC|SHF_EXECINSTR,2
	0x43033b00		$t
	0x43033b01		__wait
.text.__syscall4	0x43033b64	0xa	D:\4.0.3\armv7m-none-eabi\libc\lib/libc.a(__wait.o)	#SHT_PROGBITS,SHF_ALLOC|SHF_EXECINSTR,2
	0x43033b64		$t
	0x43033b65		__syscall4
.text.a_fetch_add	0x43033b6e	0x18	D:\4.0.3\armv7m-none-eabi\libc\lib/libc.a(__wait.o)	#SHT_PROGBITS,SHF_ALLOC|SHF_EXECINSTR,2
	0x43033b6e		$t
	0x43033b6f		a_fetch_add
.text.__errno_location	0x43033b86	0x8	D:\4.0.3\armv7m-none-eabi\libc\lib/libc.a(__errno_location.o)	#SHT_PROGBITS,SHF_ALLOC|SHF_EXECINSTR,2
	0x43033b86		$t
	0x43033b87		__errno_location
PADDING_ALIGNMENT	0x43033b8e	0x2	0x0
.text.__strerror_l	0x43033b90	0x3c	D:\4.0.3\armv7m-none-eabi\libc\lib/libc.a(strerror.o)	#SHT_PROGBITS,SHF_ALLOC|SHF_EXECINSTR,4
	0x43033b90		$t
	0x43033b91		__strerror_l
	0x43033b91		strerror_l
	0x43033bc4		$d
.text.strerror	0x43033bcc	0xc	D:\4.0.3\armv7m-none-eabi\libc\lib/libc.a(strerror.o)	#SHT_PROGBITS,SHF_ALLOC|SHF_EXECINSTR,2
	0x43033bcc		$t
	0x43033bcd		strerror
.text.__intscan	0x43033bd8	0x418	D:\4.0.3\armv7m-none-eabi\libc\lib/libc.a(intscan.o)	#SHT_PROGBITS,SHF_ALLOC|SHF_EXECINSTR,4
	0x43033bd8		$t
	0x43033bd9		__intscan
	0x43033fdc		$d
.text.__shlim	0x43033ff0	0x2a	D:\4.0.3\armv7m-none-eabi\libc\lib/libc.a(shgetc.o)	#SHT_PROGBITS,SHF_ALLOC|SHF_EXECINSTR,2
	0x43033ff0		$t
	0x43033ff1		__shlim
.text.__shgetc	0x4303401a	0x8c	D:\4.0.3\armv7m-none-eabi\libc\lib/libc.a(shgetc.o)	#SHT_PROGBITS,SHF_ALLOC|SHF_EXECINSTR,2
	0x4303401a		$t
	0x4303401b		__shgetc
PADDING_ALIGNMENT	0x430340a6	0x2	0x0
.text.__syscall_ret	0x430340a8	0x20	D:\4.0.3\armv7m-none-eabi\libc\lib/libc.a(syscall_ret.o)	#SHT_PROGBITS,SHF_ALLOC|SHF_EXECINSTR,4
	0x430340a8		$t
	0x430340a9		__syscall_ret
	0x430340c4		$d
.text.dummy	0x430340c8	0x2	D:\4.0.3\armv7m-none-eabi\libc\lib/libc.a(__lctrans.o)	#SHT_PROGBITS,SHF_ALLOC|SHF_EXECINSTR,2
	0x430340c8		$t
	0x430340c9		dummy
	0x430340c9		__lctrans_impl
.text.__lctrans	0x430340ca	0x4	D:\4.0.3\armv7m-none-eabi\libc\lib/libc.a(__lctrans.o)	#SHT_PROGBITS,SHF_ALLOC|SHF_EXECINSTR,2
	0x430340ca		$t
	0x430340cb		__lctrans
.text.__lctrans_cur	0x430340ce	0xe	D:\4.0.3\armv7m-none-eabi\libc\lib/libc.a(__lctrans.o)	#SHT_PROGBITS,SHF_ALLOC|SHF_EXECINSTR,2
	0x430340ce		$t
	0x430340cf		__lctrans_cur
.text.__expand_heap	0x430340dc	0x50	D:\4.0.3\armv7m-none-eabi\libc\lib/libc.a(expand_heap.o)	#SHT_PROGBITS,SHF_ALLOC|SHF_EXECINSTR,4
	0x430340dc		$t
	0x430340dd		__expand_heap
	0x43034120		$d
.text.wctomb	0x4303412c	0xc	D:\4.0.3\armv7m-none-eabi\libc\lib/libc.a(wctomb.o)	#SHT_PROGBITS,SHF_ALLOC|SHF_EXECINSTR,2
	0x4303412c		$t
	0x4303412d		wctomb
.text.__towrite	0x43034138	0x38	D:\4.0.3\armv7m-none-eabi\libc\lib/libc.a(__towrite.o)	#SHT_PROGBITS,SHF_ALLOC|SHF_EXECINSTR,2
	0x43034138		$t
	0x43034139		__towrite
.text.__towrite_needs_stdio_exit	0x43034170	0x4	D:\4.0.3\armv7m-none-eabi\libc\lib/libc.a(__towrite.o)	#SHT_PROGBITS,SHF_ALLOC|SHF_EXECINSTR,2
	0x43034170		$t
	0x43034171		__towrite_needs_stdio_exit
.text.__uflow	0x43034174	0x2a	D:\4.0.3\armv7m-none-eabi\libc\lib/libc.a(__uflow.o)	#SHT_PROGBITS,SHF_ALLOC|SHF_EXECINSTR,2
	0x43034174		$t
	0x43034175		__uflow
.text.__lockfile	0x4303419e	0x4	D:\4.0.3\armv7m-none-eabi\libc\lib/libc.a(__lockfile.o)	#SHT_PROGBITS,SHF_ALLOC|SHF_EXECINSTR,2
	0x4303419e		$t
	0x4303419f		__lockfile
.text.__unlockfile	0x430341a2	0x2	D:\4.0.3\armv7m-none-eabi\libc\lib/libc.a(__lockfile.o)	#SHT_PROGBITS,SHF_ALLOC|SHF_EXECINSTR,2
	0x430341a2		$t
	0x430341a3		__unlockfile
.text.__stpcpy	0x430341a4	0x3e	D:\4.0.3\armv7m-none-eabi\libc\lib/libc.a(stpcpy.o)	#SHT_PROGBITS,SHF_ALLOC|SHF_EXECINSTR,2
	0x430341a4		$t
	0x430341a5		__stpcpy
	0x430341a5		stpcpy
.text.__stpncpy	0x430341e2	0x68	D:\4.0.3\armv7m-none-eabi\libc\lib/libc.a(stpncpy.o)	#SHT_PROGBITS,SHF_ALLOC|SHF_EXECINSTR,2
	0x430341e2		$t
	0x430341e3		__stpncpy
	0x430341e3		stpncpy
PADDING_ALIGNMENT	0x4303424a	0x2	0x0
.text.__brk	0x4303424c	0x78	D:\4.0.3\armv7m-none-eabi\libc\lib/libc.a(__brk.o)	#SHT_PROGBITS,SHF_ALLOC|SHF_EXECINSTR,4
	0x4303424c		$t
	0x4303424d		__brk
	0x430342ac		$d
.text.wcrtomb	0x430342c4	0xb0	D:\4.0.3\armv7m-none-eabi\libc\lib/libc.a(wcrtomb.o)	#SHT_PROGBITS,SHF_ALLOC|SHF_EXECINSTR,2
	0x430342c4		$t
	0x430342c5		wcrtomb
.text.__stdio_exit	0x43034374	0x30	D:\4.0.3\armv7m-none-eabi\libc\lib/libc.a(__stdio_exit.o)	#SHT_PROGBITS,SHF_ALLOC|SHF_EXECINSTR,4
	0x43034374		$t
	0x43034375		__stdio_exit
	0x43034375		__stdio_exit_needed
	0x4303439c		$d
.text.close_file	0x430343a4	0x3c	D:\4.0.3\armv7m-none-eabi\libc\lib/libc.a(__stdio_exit.o)	#SHT_PROGBITS,SHF_ALLOC|SHF_EXECINSTR,2
	0x430343a4		$t
	0x430343a5		close_file
.text.__toread	0x430343e0	0x50	D:\4.0.3\armv7m-none-eabi\libc\lib/libc.a(__toread.o)	#SHT_PROGBITS,SHF_ALLOC|SHF_EXECINSTR,2
	0x430343e0		$t
	0x430343e1		__toread
.text.__toread_needs_stdio_exit	0x43034430	0x4	D:\4.0.3\armv7m-none-eabi\libc\lib/libc.a(__toread.o)	#SHT_PROGBITS,SHF_ALLOC|SHF_EXECINSTR,2
	0x43034430		$t
	0x43034431		__toread_needs_stdio_exit
.text.__ofl_lock	0x43034434	0x8	D:\4.0.3\armv7m-none-eabi\libc\lib/libc.a(ofl.o)	#SHT_PROGBITS,SHF_ALLOC|SHF_EXECINSTR,4
	0x43034434		$t
	0x43034435		__ofl_lock
	0x43034438		$d
.text.__ofl_unlock	0x4303443c	0x2	D:\4.0.3\armv7m-none-eabi\libc\lib/libc.a(ofl.o)	#SHT_PROGBITS,SHF_ALLOC|SHF_EXECINSTR,2
	0x4303443c		$t
	0x4303443d		__ofl_unlock
PADDING_ALIGNMENT	0x4303443e	0x2	0x0
.text	0x43034440	0x14	D:\4.0.3\lib\clang\4.0.3\lib\baremetal/libclang_rt.builtins-armv7m.a(aeabi_uldivmod.S.obj)	#SHT_PROGBITS,SHF_ALLOC|SHF_EXECINSTR,4
	0x43034440		$t.0
	0x43034441		__aeabi_uldivmod
.text.__addsf3	0x43034454	0x180	D:\4.0.3\lib\clang\4.0.3\lib\baremetal/libclang_rt.builtins-armv7m.a(addsf3.c.obj)	#SHT_PROGBITS,SHF_ALLOC|SHF_EXECINSTR,4
	0x43034454		$t.0
	0x43034455		__addsf3
	0x43034455		__aeabi_fadd
	0x430345c8		$d.1
.text.fromRep	0x430345d4	0x2	D:\4.0.3\lib\clang\4.0.3\lib\baremetal/libclang_rt.builtins-armv7m.a(addsf3.c.obj)	#SHT_PROGBITS,SHF_ALLOC|SHF_EXECINSTR,2
	0x430345d4		$t.2
	0x430345d5		fromRep
.text.normalize	0x430345d6	0x14	D:\4.0.3\lib\clang\4.0.3\lib\baremetal/libclang_rt.builtins-armv7m.a(addsf3.c.obj)	#SHT_PROGBITS,SHF_ALLOC|SHF_EXECINSTR,2
	0x430345d6		$t.3
	0x430345d7		normalize
.text.__divsf3	0x430345ec	0x16c	D:\4.0.3\lib\clang\4.0.3\lib\baremetal/libclang_rt.builtins-armv7m.a(divsf3.c.obj)	#SHT_PROGBITS,SHF_ALLOC|SHF_EXECINSTR,4
	0x430345ec		$t.0
	0x430345ed		__aeabi_fdiv
	0x430345ed		__divsf3
	0x4303474c		$d.1
.text.normalize	0x43034758	0x14	D:\4.0.3\lib\clang\4.0.3\lib\baremetal/libclang_rt.builtins-armv7m.a(divsf3.c.obj)	#SHT_PROGBITS,SHF_ALLOC|SHF_EXECINSTR,2
	0x43034758		$t.2
	0x43034759		normalize
.text.__fixdfsi	0x4303476c	0x68	D:\4.0.3\lib\clang\4.0.3\lib\baremetal/libclang_rt.builtins-armv7m.a(fixdfsi.c.obj)	#SHT_PROGBITS,SHF_ALLOC|SHF_EXECINSTR,4
	0x4303476c		$t.0
	0x4303476d		__aeabi_d2iz
	0x4303476d		__fixdfsi
	0x430347cc		$d.1
.text.__fixunssfsi	0x430347d4	0x40	D:\4.0.3\lib\clang\4.0.3\lib\baremetal/libclang_rt.builtins-armv7m.a(fixunssfsi.c.obj)	#SHT_PROGBITS,SHF_ALLOC|SHF_EXECINSTR,4
	0x430347d4		$t.0
	0x430347d5		__aeabi_f2uiz
	0x430347d5		__fixunssfsi
	0x43034810		$d.1
.text.__floatsisf	0x43034814	0x62	D:\4.0.3\lib\clang\4.0.3\lib\baremetal/libclang_rt.builtins-armv7m.a(floatsisf.c.obj)	#SHT_PROGBITS,SHF_ALLOC|SHF_EXECINSTR,2
	0x43034814		$t.0
	0x43034815		__aeabi_i2f
	0x43034815		__floatsisf
.text.__floatunsidf	0x43034878	0x46	D:\4.0.3\lib\clang\4.0.3\lib\baremetal/libclang_rt.builtins-armv7m.a(floatunsidf.c.obj)	#SHT_PROGBITS,SHF_ALLOC|SHF_EXECINSTR,2
	0x43034878		$t.0
	0x43034879		__aeabi_ui2d
	0x43034879		__floatunsidf
.text.__floatunsisf	0x430348c0	0x4e	D:\4.0.3\lib\clang\4.0.3\lib\baremetal/libclang_rt.builtins-armv7m.a(floatunsisf.c.obj)	#SHT_PROGBITS,SHF_ALLOC|SHF_EXECINSTR,2
	0x430348c0		$t.0
	0x430348c1		__aeabi_ui2f
	0x430348c1		__floatunsisf
.text.__muldf3	0x43034910	0x32c	D:\4.0.3\lib\clang\4.0.3\lib\baremetal/libclang_rt.builtins-armv7m.a(muldf3.c.obj)	#SHT_PROGBITS,SHF_ALLOC|SHF_EXECINSTR,4
	0x43034910		$t.0
	0x43034911		__aeabi_dmul
	0x43034911		__muldf3
	0x43034c28		$d.1
.text.normalize	0x43034c3c	0x46	D:\4.0.3\lib\clang\4.0.3\lib\baremetal/libclang_rt.builtins-armv7m.a(muldf3.c.obj)	#SHT_PROGBITS,SHF_ALLOC|SHF_EXECINSTR,2
	0x43034c3c		$t.2
	0x43034c3d		normalize
.text.__mulsf3	0x43034c84	0x13c	D:\4.0.3\lib\clang\4.0.3\lib\baremetal/libclang_rt.builtins-armv7m.a(mulsf3.c.obj)	#SHT_PROGBITS,SHF_ALLOC|SHF_EXECINSTR,4
	0x43034c84		$t.0
	0x43034c85		__aeabi_fmul
	0x43034c85		__mulsf3
	0x43034db8		$d.1
.text.normalize	0x43034dc0	0x14	D:\4.0.3\lib\clang\4.0.3\lib\baremetal/libclang_rt.builtins-armv7m.a(mulsf3.c.obj)	#SHT_PROGBITS,SHF_ALLOC|SHF_EXECINSTR,2
	0x43034dc0		$t.2
	0x43034dc1		normalize
.text.__subsf3	0x43034dd4	0xc	D:\4.0.3\lib\clang\4.0.3\lib\baremetal/libclang_rt.builtins-armv7m.a(subsf3.c.obj)	#SHT_PROGBITS,SHF_ALLOC|SHF_EXECINSTR,2
	0x43034dd4		$t.0
	0x43034dd5		__aeabi_fsub
	0x43034dd5		__subsf3
.text.__udivmoddi4	0x43034de0	0x1d4	D:\4.0.3\lib\clang\4.0.3\lib\baremetal/libclang_rt.builtins-armv7m.a(udivmoddi4.c.obj)	#SHT_PROGBITS,SHF_ALLOC|SHF_EXECINSTR,2
	0x43034de0		$t.0
	0x43034de1		__udivmoddi4
*(Init )
*(.rodata .rodata.* )
PADDING_ALIGNMENT	0x43034fb4	0x4	0x0
.rodata	0x43034fb8	0x30	D:\GC_connection\GC_connection\objs\common.o	#SHT_PROGBITS,SHF_ALLOC,8
.rodata.str1.1	0x43034fe8	0x29	D:\GC_connection\GC_connection\objs\gizwits_product.o	#SHT_PROGBITS,SHF_ALLOC|SHF_MERGE|SHF_STRINGS,1
	0x43034fe8		.L.str
.rodata.str1.1	0x43035011	0x1f	D:\GC_connection\GC_connection\objs\gizwits_product.o	#SHT_PROGBITS,SHF_ALLOC|SHF_MERGE|SHF_STRINGS,1
	0x43035011		.L.str.1
.rodata.str1.1	0x43035030	0x21	D:\GC_connection\GC_connection\objs\gizwits_product.o	#SHT_PROGBITS,SHF_ALLOC|SHF_MERGE|SHF_STRINGS,1
	0x43035030		.L.str.2
.rodata.str1.1	0x43035051	0x1d	D:\GC_connection\GC_connection\objs\gizwits_product.o	#SHT_PROGBITS,SHF_ALLOC|SHF_MERGE|SHF_STRINGS,1
	0x43035051		.L.str.3
.rodata.str1.1	0x4303506e	0x20	D:\GC_connection\GC_connection\objs\gizwits_product.o	#SHT_PROGBITS,SHF_ALLOC|SHF_MERGE|SHF_STRINGS,1
	0x4303506e		.L.str.4
.rodata.str1.1	0x4303508e	0x1a	D:\GC_connection\GC_connection\objs\gizwits_product.o	#SHT_PROGBITS,SHF_ALLOC|SHF_MERGE|SHF_STRINGS,1
	0x4303508e		.L.str.5
.rodata.str1.1	0x430350a8	0x1d	D:\GC_connection\GC_connection\objs\gizwits_product.o	#SHT_PROGBITS,SHF_ALLOC|SHF_MERGE|SHF_STRINGS,1
	0x430350a8		.L.str.6
.rodata.str1.1	0x430350c5	0x14	D:\GC_connection\GC_connection\objs\gizwits_product.o	#SHT_PROGBITS,SHF_ALLOC|SHF_MERGE|SHF_STRINGS,1
	0x430350c5		.L.str.7
.rodata.str1.1	0x430350d9	0x19	D:\GC_connection\GC_connection\objs\gizwits_product.o	#SHT_PROGBITS,SHF_ALLOC|SHF_MERGE|SHF_STRINGS,1
	0x430350d9		.L.str.8
.rodata.str1.1	0x430350f2	0x17	D:\GC_connection\GC_connection\objs\gizwits_product.o	#SHT_PROGBITS,SHF_ALLOC|SHF_MERGE|SHF_STRINGS,1
	0x430350f2		.L.str.9
.rodata.str1.1	0x43035109	0x2a	D:\GC_connection\GC_connection\objs\gizwits_protocol.o	#SHT_PROGBITS,SHF_ALLOC|SHF_MERGE|SHF_STRINGS,1
	0x43035109		.L.str
.rodata.str1.1	0x43035133	0x2a	D:\GC_connection\GC_connection\objs\gizwits_protocol.o	#SHT_PROGBITS,SHF_ALLOC|SHF_MERGE|SHF_STRINGS,1
	0x43035133		.L.str.1
.rodata.str1.1	0x4303515d	0x26	D:\GC_connection\GC_connection\objs\gizwits_protocol.o	#SHT_PROGBITS,SHF_ALLOC|SHF_MERGE|SHF_STRINGS,1
	0x4303515d		.L.str.2
.rodata.str1.1	0x43035183	0x3f	D:\GC_connection\GC_connection\objs\gizwits_protocol.o	#SHT_PROGBITS,SHF_ALLOC|SHF_MERGE|SHF_STRINGS,1
	0x43035183		.L.str.3
.rodata.str1.1	0x430351c2	0x27	D:\GC_connection\GC_connection\objs\gizwits_protocol.o	#SHT_PROGBITS,SHF_ALLOC|SHF_MERGE|SHF_STRINGS,1
	0x430351c2		.L.str.4
.rodata.str1.1	0x430351e9	0x21	D:\GC_connection\GC_connection\objs\gizwits_protocol.o	#SHT_PROGBITS,SHF_ALLOC|SHF_MERGE|SHF_STRINGS,1
	0x430351e9		.L.str.5
.rodata.str1.1	0x4303520a	0x21	D:\GC_connection\GC_connection\objs\gizwits_protocol.o	#SHT_PROGBITS,SHF_ALLOC|SHF_MERGE|SHF_STRINGS,1
	0x4303520a		.L.str.6
.rodata.str1.1	0x4303522b	0x25	D:\GC_connection\GC_connection\objs\gizwits_protocol.o	#SHT_PROGBITS,SHF_ALLOC|SHF_MERGE|SHF_STRINGS,1
	0x4303522b		.L.str.7
.rodata.str1.1	0x43035250	0x26	D:\GC_connection\GC_connection\objs\gizwits_protocol.o	#SHT_PROGBITS,SHF_ALLOC|SHF_MERGE|SHF_STRINGS,1
	0x43035250		.L.str.8
.rodata.str1.1	0x43035276	0x26	D:\GC_connection\GC_connection\objs\gizwits_protocol.o	#SHT_PROGBITS,SHF_ALLOC|SHF_MERGE|SHF_STRINGS,1
	0x43035276		.L.str.9
.rodata.str1.1	0x4303529c	0x29	D:\GC_connection\GC_connection\objs\gizwits_protocol.o	#SHT_PROGBITS,SHF_ALLOC|SHF_MERGE|SHF_STRINGS,1
	0x4303529c		.L.str.10
.rodata.str1.1	0x430352c5	0x23	D:\GC_connection\GC_connection\objs\gizwits_protocol.o	#SHT_PROGBITS,SHF_ALLOC|SHF_MERGE|SHF_STRINGS,1
	0x430352c5		.L.str.11
.rodata.str1.1	0x430352e8	0x26	D:\GC_connection\GC_connection\objs\gizwits_protocol.o	#SHT_PROGBITS,SHF_ALLOC|SHF_MERGE|SHF_STRINGS,1
	0x430352e8		.L.str.12
.rodata.str1.1	0x4303530e	0x21	D:\GC_connection\GC_connection\objs\gizwits_protocol.o	#SHT_PROGBITS,SHF_ALLOC|SHF_MERGE|SHF_STRINGS,1
	0x4303530e		.L.str.13
.rodata.str1.1	0x4303532f	0x24	D:\GC_connection\GC_connection\objs\gizwits_protocol.o	#SHT_PROGBITS,SHF_ALLOC|SHF_MERGE|SHF_STRINGS,1
	0x4303532f		.L.str.14
.rodata.str1.1	0x43035353	0x22	D:\GC_connection\GC_connection\objs\gizwits_protocol.o	#SHT_PROGBITS,SHF_ALLOC|SHF_MERGE|SHF_STRINGS,1
	0x43035353		.L.str.15
.rodata.str1.1	0x43035375	0x23	D:\GC_connection\GC_connection\objs\gizwits_protocol.o	#SHT_PROGBITS,SHF_ALLOC|SHF_MERGE|SHF_STRINGS,1
	0x43035375		.L.str.16
.rodata.str1.1	0x43035398	0x23	D:\GC_connection\GC_connection\objs\gizwits_protocol.o	#SHT_PROGBITS,SHF_ALLOC|SHF_MERGE|SHF_STRINGS,1
	0x43035398		.L.str.17
.rodata.str1.1	0x430353bb	0x2a	D:\GC_connection\GC_connection\objs\gizwits_protocol.o	#SHT_PROGBITS,SHF_ALLOC|SHF_MERGE|SHF_STRINGS,1
	0x430353bb		.L.str.18
.rodata.str1.1	0x430353e5	0x23	D:\GC_connection\GC_connection\objs\gizwits_protocol.o	#SHT_PROGBITS,SHF_ALLOC|SHF_MERGE|SHF_STRINGS,1
	0x430353e5		.L.str.19
.rodata.str1.1	0x43035408	0xb	D:\GC_connection\GC_connection\objs\gizwits_protocol.o	#SHT_PROGBITS,SHF_ALLOC|SHF_MERGE|SHF_STRINGS,1
	0x43035408		.L.str.20
.rodata.str1.1	0x43035413	0xf	D:\GC_connection\GC_connection\objs\gizwits_protocol.o	#SHT_PROGBITS,SHF_ALLOC|SHF_MERGE|SHF_STRINGS,1
	0x43035413		.L.str.21
.rodata.str1.1	0x43035422	0x10	D:\GC_connection\GC_connection\objs\gizwits_protocol.o	#SHT_PROGBITS,SHF_ALLOC|SHF_MERGE|SHF_STRINGS,1
	0x43035422		.L.str.22
.rodata.str1.1	0x43035432	0x1c	D:\GC_connection\GC_connection\objs\gizwits_protocol.o	#SHT_PROGBITS,SHF_ALLOC|SHF_MERGE|SHF_STRINGS,1
	0x43035432		.L.str.23
.rodata.str1.1	0x4303544e	0x2c	D:\GC_connection\GC_connection\objs\gizwits_protocol.o	#SHT_PROGBITS,SHF_ALLOC|SHF_MERGE|SHF_STRINGS,1
	0x4303544e		.L.str.24
.rodata.str1.1	0x4303547a	0x29	D:\GC_connection\GC_connection\objs\gizwits_protocol.o	#SHT_PROGBITS,SHF_ALLOC|SHF_MERGE|SHF_STRINGS,1
	0x4303547a		.L.str.25
.rodata.str1.1	0x430354a3	0x1e	D:\GC_connection\GC_connection\objs\gizwits_protocol.o	#SHT_PROGBITS,SHF_ALLOC|SHF_MERGE|SHF_STRINGS,1
	0x430354a3		.L.str.26
.rodata.str1.1	0x430354c1	0x1f	D:\GC_connection\GC_connection\objs\gizwits_protocol.o	#SHT_PROGBITS,SHF_ALLOC|SHF_MERGE|SHF_STRINGS,1
	0x430354c1		.L.str.27
.rodata.str1.1	0x430354e0	0x23	D:\GC_connection\GC_connection\objs\gizwits_protocol.o	#SHT_PROGBITS,SHF_ALLOC|SHF_MERGE|SHF_STRINGS,1
	0x430354e0		.L.str.29
.rodata.str1.1	0x43035503	0x16	D:\GC_connection\GC_connection\objs\gizwits_protocol.o	#SHT_PROGBITS,SHF_ALLOC|SHF_MERGE|SHF_STRINGS,1
	0x43035503		.L.str.30
.rodata.str1.1	0x43035519	0x32	D:\GC_connection\GC_connection\objs\gizwits_protocol.o	#SHT_PROGBITS,SHF_ALLOC|SHF_MERGE|SHF_STRINGS,1
	0x43035519		.L.str.31
.rodata.str1.1	0x4303554b	0x8	D:\GC_connection\GC_connection\objs\gizwits_protocol.o	#SHT_PROGBITS,SHF_ALLOC|SHF_MERGE|SHF_STRINGS,1
	0x4303554b		.L.str.32
.rodata.str1.1	0x43035553	0x22	D:\GC_connection\GC_connection\objs\gizwits_protocol.o	#SHT_PROGBITS,SHF_ALLOC|SHF_MERGE|SHF_STRINGS,1
	0x43035553		.L.str.33
.rodata.str1.1	0x43035575	0x2b	D:\GC_connection\GC_connection\objs\gizwits_protocol.o	#SHT_PROGBITS,SHF_ALLOC|SHF_MERGE|SHF_STRINGS,1
	0x43035575		.L.str.34
.rodata.str1.1	0x430355a0	0x21	D:\GC_connection\GC_connection\objs\gizwits_protocol.o	#SHT_PROGBITS,SHF_ALLOC|SHF_MERGE|SHF_STRINGS,1
	0x430355a0		.L.str.35
.rodata.str1.1	0x430355c1	0x50	D:\GC_connection\GC_connection\objs\gizwits_protocol.o	#SHT_PROGBITS,SHF_ALLOC|SHF_MERGE|SHF_STRINGS,1
	0x430355c1		.L.str.36
.rodata.str1.1	0x43035611	0x16	D:\GC_connection\GC_connection\objs\gizwits_protocol.o	#SHT_PROGBITS,SHF_ALLOC|SHF_MERGE|SHF_STRINGS,1
	0x43035611		.L.str.37
.rodata.str1.1	0x43035627	0x49	D:\GC_connection\GC_connection\objs\gizwits_protocol.o	#SHT_PROGBITS,SHF_ALLOC|SHF_MERGE|SHF_STRINGS,1
	0x43035627		.L.str.38
.rodata.str1.1	0x43035670	0x48	D:\GC_connection\GC_connection\objs\gizwits_protocol.o	#SHT_PROGBITS,SHF_ALLOC|SHF_MERGE|SHF_STRINGS,1
	0x43035670		.L.str.39
.rodata.str1.1	0x430356b8	0x39	D:\GC_connection\GC_connection\objs\gizwits_protocol.o	#SHT_PROGBITS,SHF_ALLOC|SHF_MERGE|SHF_STRINGS,1
	0x430356b8		.L.str.40
.rodata.str1.1	0x430356f1	0xc	D:\GC_connection\GC_connection\objs\gizwits_protocol.o	#SHT_PROGBITS,SHF_ALLOC|SHF_MERGE|SHF_STRINGS,1
	0x430356f1		.L.str.41
.rodata.str1.1	0x430356fd	0x35	D:\GC_connection\GC_connection\objs\gizwits_protocol.o	#SHT_PROGBITS,SHF_ALLOC|SHF_MERGE|SHF_STRINGS,1
	0x430356fd		.L.str.42
.rodata.str1.1	0x43035732	0x36	D:\GC_connection\GC_connection\objs\gizwits_protocol.o	#SHT_PROGBITS,SHF_ALLOC|SHF_MERGE|SHF_STRINGS,1
	0x43035732		.L.str.43
.rodata.str1.1	0x43035768	0x35	D:\GC_connection\GC_connection\objs\gizwits_protocol.o	#SHT_PROGBITS,SHF_ALLOC|SHF_MERGE|SHF_STRINGS,1
	0x43035768		.L.str.44
.rodata.str1.1	0x4303579d	0xe	D:\GC_connection\GC_connection\objs\gizwits_protocol.o	#SHT_PROGBITS,SHF_ALLOC|SHF_MERGE|SHF_STRINGS,1
	0x4303579d		.L.str.45
.rodata.str1.1	0x430357ab	0x3d	D:\GC_connection\GC_connection\objs\gizwits_protocol.o	#SHT_PROGBITS,SHF_ALLOC|SHF_MERGE|SHF_STRINGS,1
	0x430357ab		.L.str.46
.rodata.str1.1	0x430357e8	0x3c	D:\GC_connection\GC_connection\objs\gizwits_protocol.o	#SHT_PROGBITS,SHF_ALLOC|SHF_MERGE|SHF_STRINGS,1
	0x430357e8		.L.str.47
.rodata.str1.1	0x43035824	0x2a	D:\GC_connection\GC_connection\objs\gizwits_protocol.o	#SHT_PROGBITS,SHF_ALLOC|SHF_MERGE|SHF_STRINGS,1
	0x43035824		.L.str.48
.rodata.str1.1	0x4303584e	0x10	D:\GC_connection\GC_connection\objs\gizwits_protocol.o	#SHT_PROGBITS,SHF_ALLOC|SHF_MERGE|SHF_STRINGS,1
	0x4303584e		.L.str.56
.rodata.str1.1	0x4303585e	0x10	D:\GC_connection\GC_connection\objs\gizwits_protocol.o	#SHT_PROGBITS,SHF_ALLOC|SHF_MERGE|SHF_STRINGS,1
	0x4303585e		.L.str.57
.rodata.str1.1	0x4303586e	0x3	D:\GC_connection\GC_connection\objs\gizwits_protocol.o	#SHT_PROGBITS,SHF_ALLOC|SHF_MERGE|SHF_STRINGS,1
	0x4303586e		.L.str.58
.rodata.str1.1	0x43035871	0xc	D:\GC_connection\GC_connection\objs\gizwits_protocol.o	#SHT_PROGBITS,SHF_ALLOC|SHF_MERGE|SHF_STRINGS,1
	0x43035871		.L.str.59
.rodata.str1.1	0x4303587d	0xa	D:\GC_connection\GC_connection\objs\gizwits_protocol.o	#SHT_PROGBITS,SHF_ALLOC|SHF_MERGE|SHF_STRINGS,1
	0x4303587d		.L.str.60
.rodata.str1.1	0x43035887	0x4	D:\GC_connection\GC_connection\objs\gizwits_protocol.o	#SHT_PROGBITS,SHF_ALLOC|SHF_MERGE|SHF_STRINGS,1
	0x43035887		.L.str.61
.rodata.str1.1	0x4303588b	0x3	D:\GC_connection\GC_connection\objs\gizwits_protocol.o	#SHT_PROGBITS,SHF_ALLOC|SHF_MERGE|SHF_STRINGS,1
	0x4303588b		.L.str.62
.rodata.str1.1	0x4303588e	0x4	D:\GC_connection\GC_connection\objs\gizwits_protocol.o	#SHT_PROGBITS,SHF_ALLOC|SHF_MERGE|SHF_STRINGS,1
	0x4303588e		.L.str.63
.rodata.str1.1	0x43035892	0x6	D:\GC_connection\GC_connection\objs\gizwits_protocol.o	#SHT_PROGBITS,SHF_ALLOC|SHF_MERGE|SHF_STRINGS,1
	0x43035892		.L.str.64
.rodata.str1.1	0x43035898	0x2	D:\GC_connection\GC_connection\objs\gizwits_protocol.o	#SHT_PROGBITS,SHF_ALLOC|SHF_MERGE|SHF_STRINGS,1
	0x43035898		.L.str.65
.rodata.str1.1	0x4303589a	0x18	D:\GC_connection\GC_connection\objs\gizwits_protocol.o	#SHT_PROGBITS,SHF_ALLOC|SHF_MERGE|SHF_STRINGS,1
	0x4303589a		.L.str.66
.rodata.str1.1	0x430358b2	0x20	D:\GC_connection\GC_connection\objs\gizwits_protocol.o	#SHT_PROGBITS,SHF_ALLOC|SHF_MERGE|SHF_STRINGS,1
	0x430358b2		.L.str.67
.rodata.str1.1	0x430358d2	0x1f	D:\GC_connection\GC_connection\objs\gizwits_protocol.o	#SHT_PROGBITS,SHF_ALLOC|SHF_MERGE|SHF_STRINGS,1
	0x430358d2		.L.str.68
.rodata.str1.1	0x430358f1	0x39	D:\GC_connection\GC_connection\objs\gizwits_protocol.o	#SHT_PROGBITS,SHF_ALLOC|SHF_MERGE|SHF_STRINGS,1
	0x430358f1		.L.str.70
.rodata.str1.1	0x4303592a	0x1d	D:\GC_connection\GC_connection\objs\gizwits_protocol.o	#SHT_PROGBITS,SHF_ALLOC|SHF_MERGE|SHF_STRINGS,1
	0x4303592a		.L.str.72
.rodata.str1.1	0x43035947	0x1a	D:\GC_connection\GC_connection\objs\gizwits_protocol.o	#SHT_PROGBITS,SHF_ALLOC|SHF_MERGE|SHF_STRINGS,1
	0x43035947		.L.str.73
.rodata.str1.1	0x43035961	0x23	D:\GC_connection\GC_connection\objs\gizwits_protocol.o	#SHT_PROGBITS,SHF_ALLOC|SHF_MERGE|SHF_STRINGS,1
	0x43035961		.L.str.74
.rodata.str1.1	0x43035984	0x21	D:\GC_connection\GC_connection\objs\gizwits_protocol.o	#SHT_PROGBITS,SHF_ALLOC|SHF_MERGE|SHF_STRINGS,1
	0x43035984		.L.str.75
.rodata.str1.1	0x430359a5	0x21	D:\GC_connection\GC_connection\objs\gizwits_protocol.o	#SHT_PROGBITS,SHF_ALLOC|SHF_MERGE|SHF_STRINGS,1
	0x430359a5		.L.str.76
.rodata.str1.1	0x430359c6	0x21	D:\GC_connection\GC_connection\objs\gizwits_protocol.o	#SHT_PROGBITS,SHF_ALLOC|SHF_MERGE|SHF_STRINGS,1
	0x430359c6		.L.str.77
.rodata.str1.1	0x430359e7	0x23	D:\GC_connection\GC_connection\objs\gizwits_protocol.o	#SHT_PROGBITS,SHF_ALLOC|SHF_MERGE|SHF_STRINGS,1
	0x430359e7		.L.str.78
PADDING_ALIGNMENT	0x43035a0a	0x6	0x0
.rodata.str1.8	0x43035a10	0x49	D:\GC_connection\GC_connection\objs\gizwits_protocol.o	#SHT_PROGBITS,SHF_ALLOC|SHF_MERGE|SHF_STRINGS,8
	0x43035a10		.L.str.52
	0x43035a38		.L.str.53
.rodata.str1.1	0x43035a59	0x1b	D:\GC_connection\GC_connection\objs\led.o	#SHT_PROGBITS,SHF_ALLOC|SHF_MERGE|SHF_STRINGS,1
	0x43035a59		.L.str
.rodata.str1.1	0x43035a74	0x30	D:\GC_connection\GC_connection\objs\led.o	#SHT_PROGBITS,SHF_ALLOC|SHF_MERGE|SHF_STRINGS,1
	0x43035a74		.L.str.1
.rodata.str1.1	0x43035aa4	0x31	D:\GC_connection\GC_connection\objs\led.o	#SHT_PROGBITS,SHF_ALLOC|SHF_MERGE|SHF_STRINGS,1
	0x43035aa4		.L.str.2
.rodata.str1.1	0x43035ad5	0x1f	D:\GC_connection\GC_connection\objs\led.o	#SHT_PROGBITS,SHF_ALLOC|SHF_MERGE|SHF_STRINGS,1
	0x43035ad5		.L.str.3
.rodata.str1.1	0x43035af4	0x32	D:\GC_connection\GC_connection\objs\led.o	#SHT_PROGBITS,SHF_ALLOC|SHF_MERGE|SHF_STRINGS,1
	0x43035af4		.L.str.4
.rodata.str1.1	0x43035b26	0x34	D:\GC_connection\GC_connection\objs\led.o	#SHT_PROGBITS,SHF_ALLOC|SHF_MERGE|SHF_STRINGS,1
	0x43035b26		.L.str.5
.rodata.str1.1	0x43035b5a	0x1f	D:\GC_connection\GC_connection\objs\led.o	#SHT_PROGBITS,SHF_ALLOC|SHF_MERGE|SHF_STRINGS,1
	0x43035b5a		.L.str.6
.rodata.str1.1	0x43035b79	0x7	D:\GC_connection\GC_connection\objs\main.o	#SHT_PROGBITS,SHF_ALLOC|SHF_MERGE|SHF_STRINGS,1
	0x43035b79		.L.str
.rodata.str1.1	0x43035b80	0x7	D:\GC_connection\GC_connection\objs\main.o	#SHT_PROGBITS,SHF_ALLOC|SHF_MERGE|SHF_STRINGS,1
	0x43035b80		.L.str.1
.rodata.str1.1	0x43035b87	0x7	D:\GC_connection\GC_connection\objs\main.o	#SHT_PROGBITS,SHF_ALLOC|SHF_MERGE|SHF_STRINGS,1
	0x43035b87		.L.str.2
.rodata.str1.1	0x43035b8e	0x7	D:\GC_connection\GC_connection\objs\main.o	#SHT_PROGBITS,SHF_ALLOC|SHF_MERGE|SHF_STRINGS,1
	0x43035b8e		.L.str.3
.rodata.str1.1	0x43035b95	0x7	D:\GC_connection\GC_connection\objs\main.o	#SHT_PROGBITS,SHF_ALLOC|SHF_MERGE|SHF_STRINGS,1
	0x43035b95		.L.str.4
.rodata.str1.1	0x43035b9c	0x7	D:\GC_connection\GC_connection\objs\main.o	#SHT_PROGBITS,SHF_ALLOC|SHF_MERGE|SHF_STRINGS,1
	0x43035b9c		.L.str.5
.rodata.str1.1	0x43035ba3	0x7	D:\GC_connection\GC_connection\objs\main.o	#SHT_PROGBITS,SHF_ALLOC|SHF_MERGE|SHF_STRINGS,1
	0x43035ba3		.L.str.6
.rodata.str1.1	0x43035baa	0x7	D:\GC_connection\GC_connection\objs\main.o	#SHT_PROGBITS,SHF_ALLOC|SHF_MERGE|SHF_STRINGS,1
	0x43035baa		.L.str.7
.rodata.str1.1	0x43035bb1	0x7	D:\GC_connection\GC_connection\objs\main.o	#SHT_PROGBITS,SHF_ALLOC|SHF_MERGE|SHF_STRINGS,1
	0x43035bb1		.L.str.8
.rodata.str1.1	0x43035bb8	0x7	D:\GC_connection\GC_connection\objs\main.o	#SHT_PROGBITS,SHF_ALLOC|SHF_MERGE|SHF_STRINGS,1
	0x43035bb8		.L.str.9
.rodata.str1.1	0x43035bbf	0x7	D:\GC_connection\GC_connection\objs\main.o	#SHT_PROGBITS,SHF_ALLOC|SHF_MERGE|SHF_STRINGS,1
	0x43035bbf		.L.str.10
.rodata.str1.1	0x43035bc6	0x7	D:\GC_connection\GC_connection\objs\main.o	#SHT_PROGBITS,SHF_ALLOC|SHF_MERGE|SHF_STRINGS,1
	0x43035bc6		.L.str.11
.rodata.str1.1	0x43035bcd	0x7	D:\GC_connection\GC_connection\objs\main.o	#SHT_PROGBITS,SHF_ALLOC|SHF_MERGE|SHF_STRINGS,1
	0x43035bcd		.L.str.12
.rodata.str1.1	0x43035bd4	0x7	D:\GC_connection\GC_connection\objs\main.o	#SHT_PROGBITS,SHF_ALLOC|SHF_MERGE|SHF_STRINGS,1
	0x43035bd4		.L.str.13
.rodata.str1.1	0x43035bdb	0x1e	D:\GC_connection\GC_connection\objs\main.o	#SHT_PROGBITS,SHF_ALLOC|SHF_MERGE|SHF_STRINGS,1
	0x43035bdb		.L.str.14
.rodata.str1.1	0x43035bf9	0x26	D:\GC_connection\GC_connection\objs\main.o	#SHT_PROGBITS,SHF_ALLOC|SHF_MERGE|SHF_STRINGS,1
	0x43035bf9		.L.str.15
.rodata.str1.1	0x43035c1f	0x22	D:\GC_connection\GC_connection\objs\main.o	#SHT_PROGBITS,SHF_ALLOC|SHF_MERGE|SHF_STRINGS,1
	0x43035c1f		.L.str.16
.rodata.str1.1	0x43035c41	0x22	D:\GC_connection\GC_connection\objs\main.o	#SHT_PROGBITS,SHF_ALLOC|SHF_MERGE|SHF_STRINGS,1
	0x43035c41		.L.str.17
.rodata.str1.1	0x43035c63	0x1b	D:\GC_connection\GC_connection\objs\main.o	#SHT_PROGBITS,SHF_ALLOC|SHF_MERGE|SHF_STRINGS,1
	0x43035c63		.L.str.18
.rodata.str1.1	0x43035c7e	0x21	D:\GC_connection\GC_connection\objs\main.o	#SHT_PROGBITS,SHF_ALLOC|SHF_MERGE|SHF_STRINGS,1
	0x43035c7e		.L.str.19
.rodata.str1.1	0x43035c9f	0x1c	D:\GC_connection\GC_connection\objs\main.o	#SHT_PROGBITS,SHF_ALLOC|SHF_MERGE|SHF_STRINGS,1
	0x43035c9f		.L.str.23
.rodata.str1.1	0x43035cbb	0xd8	D:\GC_connection\GC_connection\objs\main.o	#SHT_PROGBITS,SHF_ALLOC|SHF_MERGE|SHF_STRINGS,1
	0x43035cbb		.L.str.24
.rodata.str1.1	0x43035d93	0x21	D:\GC_connection\GC_connection\objs\main.o	#SHT_PROGBITS,SHF_ALLOC|SHF_MERGE|SHF_STRINGS,1
	0x43035d93		.L.str.25
.rodata.str1.1	0x43035db4	0xa	D:\GC_connection\GC_connection\objs\main.o	#SHT_PROGBITS,SHF_ALLOC|SHF_MERGE|SHF_STRINGS,1
	0x43035db4		.L.str.26
.rodata.str1.1	0x43035dbe	0x26	D:\GC_connection\GC_connection\objs\main.o	#SHT_PROGBITS,SHF_ALLOC|SHF_MERGE|SHF_STRINGS,1
	0x43035dbe		.L.str.27
.rodata	0x43035de4	0x10	D:\GC_connection\GC_connection\objs\quectel_utils.o	#SHT_PROGBITS,SHF_ALLOC,4
	0x43035de4		quectel_format_log_msg.xx_msg_const
.rodata.str1.1	0x43035df4	0x2d	D:\GC_connection\GC_connection\objs\quectel_utils.o	#SHT_PROGBITS,SHF_ALLOC|SHF_MERGE|SHF_STRINGS,1
	0x43035df4		.L.str
.rodata.str1.1	0x43035e21	0x3a	D:\GC_connection\GC_connection\objs\quectel_utils.o	#SHT_PROGBITS,SHF_ALLOC|SHF_MERGE|SHF_STRINGS,1
	0x43035e21		.L.str.1
.rodata.str1.1	0x43035e5b	0xa	D:\GC_connection\GC_connection\gagent\libgagent.a(gagentThread.o)	#SHT_PROGBITS,SHF_ALLOC|SHF_MERGE|SHF_STRINGS,1
	0x43035e5b		.L.str
.rodata.str1.1	0x43035e65	0x7	D:\GC_connection\GC_connection\gagent\libgagent.a(gagentThread.o)	#SHT_PROGBITS,SHF_ALLOC|SHF_MERGE|SHF_STRINGS,1
	0x43035e65		.L.str.1
.rodata.str1.1	0x43035e6c	0x12	D:\GC_connection\GC_connection\gagent\libgagent.a(gagentThread.o)	#SHT_PROGBITS,SHF_ALLOC|SHF_MERGE|SHF_STRINGS,1
	0x43035e6c		.L.str.2
.rodata.str1.1	0x43035e7e	0xf	D:\GC_connection\GC_connection\gagent\libgagent.a(gagentThread.o)	#SHT_PROGBITS,SHF_ALLOC|SHF_MERGE|SHF_STRINGS,1
	0x43035e7e		.L__FUNCTION__.groudEntryInit
.rodata.str1.1	0x43035e8d	0x27	D:\GC_connection\GC_connection\gagent\libgagent.a(gagentThread.o)	#SHT_PROGBITS,SHF_ALLOC|SHF_MERGE|SHF_STRINGS,1
	0x43035e8d		.L.str.3
.rodata.str1.1	0x43035eb4	0xc	D:\GC_connection\GC_connection\gagent\libgagent.a(gagentThread.o)	#SHT_PROGBITS,SHF_ALLOC|SHF_MERGE|SHF_STRINGS,1
	0x43035eb4		.L.str.4
.rodata.str1.1	0x43035ec0	0x9	D:\GC_connection\GC_connection\gagent\libgagent.a(gagentThread.o)	#SHT_PROGBITS,SHF_ALLOC|SHF_MERGE|SHF_STRINGS,1
	0x43035ec0		.L.str.5
.rodata.str1.1	0x43035ec9	0xb	D:\GC_connection\GC_connection\gagent\libgagent.a(gagentThread.o)	#SHT_PROGBITS,SHF_ALLOC|SHF_MERGE|SHF_STRINGS,1
	0x43035ec9		.L.str.6
.rodata.str1.1	0x43035ed4	0x17	D:\GC_connection\GC_connection\gagent\libgagent.a(gagentThread.o)	#SHT_PROGBITS,SHF_ALLOC|SHF_MERGE|SHF_STRINGS,1
	0x43035ed4		.L.str.7
.rodata.str1.1	0x43035eeb	0xb	D:\GC_connection\GC_connection\gagent\libgagent.a(gagentThread.o)	#SHT_PROGBITS,SHF_ALLOC|SHF_MERGE|SHF_STRINGS,1
	0x43035eeb		.L__FUNCTION__.groudEvent
.rodata.str1.1	0x43035ef6	0x31	D:\GC_connection\GC_connection\gagent\libgagent.a(gagentThread.o)	#SHT_PROGBITS,SHF_ALLOC|SHF_MERGE|SHF_STRINGS,1
	0x43035ef6		.L.str.8
.rodata.str1.1	0x43035f27	0x2e	D:\GC_connection\GC_connection\gagent\libgagent.a(gagentThread.o)	#SHT_PROGBITS,SHF_ALLOC|SHF_MERGE|SHF_STRINGS,1
	0x43035f27		.L.str.9
.rodata.str1.1	0x43035f55	0x9	D:\GC_connection\GC_connection\gagent\libgagent.a(gagentThread.o)	#SHT_PROGBITS,SHF_ALLOC|SHF_MERGE|SHF_STRINGS,1
	0x43035f55		.L.str.10
.rodata.str1.1	0x43035f5e	0x2e	D:\GC_connection\GC_connection\gagent\libgagent.a(gagentThread.o)	#SHT_PROGBITS,SHF_ALLOC|SHF_MERGE|SHF_STRINGS,1
	0x43035f5e		.L.str.11
.rodata.str1.1	0x43035f8c	0x9	D:\GC_connection\GC_connection\gagent\libgagent.a(gagentThread.o)	#SHT_PROGBITS,SHF_ALLOC|SHF_MERGE|SHF_STRINGS,1
	0x43035f8c		.L.str.12
.rodata.str1.1	0x43035f95	0x15	D:\GC_connection\GC_connection\gagent\libgagent.a(gagentThread.o)	#SHT_PROGBITS,SHF_ALLOC|SHF_MERGE|SHF_STRINGS,1
	0x43035f95		.L__FUNCTION__.gagent_dam_app_start
.rodata.str1.1	0x43035faa	0x35	D:\GC_connection\GC_connection\gagent\libgagent.a(gagentThread.o)	#SHT_PROGBITS,SHF_ALLOC|SHF_MERGE|SHF_STRINGS,1
	0x43035faa		.L.str.13
.rodata.str1.1	0x43035fdf	0x11	D:\GC_connection\GC_connection\gagent\libgagent.a(gagentThread.o)	#SHT_PROGBITS,SHF_ALLOC|SHF_MERGE|SHF_STRINGS,1
	0x43035fdf		.L.str.14
.rodata.str1.1	0x43035ff0	0x2e	D:\GC_connection\GC_connection\gagent\libgagent.a(gagentThread.o)	#SHT_PROGBITS,SHF_ALLOC|SHF_MERGE|SHF_STRINGS,1
	0x43035ff0		.L.str.15
.rodata.str1.1	0x4303601e	0x2b	D:\GC_connection\GC_connection\gagent\libgagent.a(gagentThread.o)	#SHT_PROGBITS,SHF_ALLOC|SHF_MERGE|SHF_STRINGS,1
	0x4303601e		.L.str.16
.rodata.str1.1	0x43036049	0x12	D:\GC_connection\GC_connection\gagent\libgagent.a(gagentThread.o)	#SHT_PROGBITS,SHF_ALLOC|SHF_MERGE|SHF_STRINGS,1
	0x43036049		.L.str.17
.rodata.str1.1	0x4303605b	0x2b	D:\GC_connection\GC_connection\gagent\libgagent.a(gagentThread.o)	#SHT_PROGBITS,SHF_ALLOC|SHF_MERGE|SHF_STRINGS,1
	0x4303605b		.L.str.18
.rodata.str1.1	0x43036086	0xe	D:\GC_connection\GC_connection\gagent\libgagent.a(gagentThread.o)	#SHT_PROGBITS,SHF_ALLOC|SHF_MERGE|SHF_STRINGS,1
	0x43036086		.L__FUNCTION__.gatMainThread
.rodata.str1.1	0x43036094	0x27	D:\GC_connection\GC_connection\gagent\libgagent.a(gagentThread.o)	#SHT_PROGBITS,SHF_ALLOC|SHF_MERGE|SHF_STRINGS,1
	0x43036094		.L.str.19
.rodata.str1.1	0x430360bb	0x15	D:\GC_connection\GC_connection\gagent\libgagent.a(gagentThread.o)	#SHT_PROGBITS,SHF_ALLOC|SHF_MERGE|SHF_STRINGS,1
	0x430360bb		.L__FUNCTION__.gatStartgagentThread
.rodata.str1.1	0x430360d0	0x35	D:\GC_connection\GC_connection\gagent\libgagent.a(gagentThread.o)	#SHT_PROGBITS,SHF_ALLOC|SHF_MERGE|SHF_STRINGS,1
	0x430360d0		.L.str.20
.rodata.str1.1	0x43036105	0x16	D:\GC_connection\GC_connection\gagent\libgagent.a(iofdev.o)	#SHT_PROGBITS,SHF_ALLOC|SHF_MERGE|SHF_STRINGS,1
	0x43036105		.L.str.2
.rodata.str1.1	0x4303611b	0xb	D:\GC_connection\GC_connection\gagent\libgagent.a(iofdev.o)	#SHT_PROGBITS,SHF_ALLOC|SHF_MERGE|SHF_STRINGS,1
	0x4303611b		.L__FUNCTION__.devRestart
.rodata.str1.1	0x43036126	0x10	D:\GC_connection\GC_connection\gagent\libgagent.a(iofdev.o)	#SHT_PROGBITS,SHF_ALLOC|SHF_MERGE|SHF_STRINGS,1
	0x43036126		.L.str.3
.rodata.str1.1	0x43036136	0x12	D:\GC_connection\GC_connection\gagent\libgagent.a(iofdev.o)	#SHT_PROGBITS,SHF_ALLOC|SHF_MERGE|SHF_STRINGS,1
	0x43036136		.L__FUNCTION__.iofGatAuthKeyRead
.rodata.str1.1	0x43036148	0x35	D:\GC_connection\GC_connection\gagent\libgagent.a(iofdev.o)	#SHT_PROGBITS,SHF_ALLOC|SHF_MERGE|SHF_STRINGS,1
	0x43036148		.L.str.4
.rodata.str1.1	0x4303617d	0x3	D:\GC_connection\GC_connection\gagent\libgagent.a(iofdev.o)	#SHT_PROGBITS,SHF_ALLOC|SHF_MERGE|SHF_STRINGS,1
	0x4303617d		.L.str.5
.rodata.str1.1	0x43036180	0x6	D:\GC_connection\GC_connection\gagent\libgagent.a(iofdev.o)	#SHT_PROGBITS,SHF_ALLOC|SHF_MERGE|SHF_STRINGS,1
	0x43036180		.L.str.6
.rodata.str1.1	0x43036186	0x5	D:\GC_connection\GC_connection\gagent\libgagent.a(iofdev.o)	#SHT_PROGBITS,SHF_ALLOC|SHF_MERGE|SHF_STRINGS,1
	0x43036186		.L.str.7
.rodata.str1.1	0x4303618b	0x16	D:\GC_connection\GC_connection\gagent\libgagent.a(iofdev.o)	#SHT_PROGBITS,SHF_ALLOC|SHF_MERGE|SHF_STRINGS,1
	0x4303618b		.L.str.8
.rodata.str1.1	0x430361a1	0x2a	D:\GC_connection\GC_connection\gagent\libgagent.a(iofdev.o)	#SHT_PROGBITS,SHF_ALLOC|SHF_MERGE|SHF_STRINGS,1
	0x430361a1		.L.str.9
.rodata.str1.1	0x430361cb	0xe	D:\GC_connection\GC_connection\gagent\libgagent.a(iofdev.o)	#SHT_PROGBITS,SHF_ALLOC|SHF_MERGE|SHF_STRINGS,1
	0x430361cb		.L__FUNCTION__.devOtaUpgrade
.rodata.str1.1	0x430361d9	0xc	D:\GC_connection\GC_connection\gagent\libgagent.a(iofdev.o)	#SHT_PROGBITS,SHF_ALLOC|SHF_MERGE|SHF_STRINGS,1
	0x430361d9		.L.str.10
.rodata.str1.1	0x430361e5	0x2a	D:\GC_connection\GC_connection\gagent\libgagent.a(iofdev.o)	#SHT_PROGBITS,SHF_ALLOC|SHF_MERGE|SHF_STRINGS,1
	0x430361e5		.L.str.11
.rodata.str1.1	0x4303620f	0x13	D:\GC_connection\GC_connection\gagent\libgagent.a(iofdev.o)	#SHT_PROGBITS,SHF_ALLOC|SHF_MERGE|SHF_STRINGS,1
	0x4303620f		.L.str.12
.rodata.str1.1	0x43036222	0xc	D:\GC_connection\GC_connection\gagent\libgagent.a(iofipc.o)	#SHT_PROGBITS,SHF_ALLOC|SHF_MERGE|SHF_STRINGS,1
	0x43036222		.L__FUNCTION__.iofMsgCreat
.rodata.str1.1	0x4303622e	0x1f	D:\GC_connection\GC_connection\gagent\libgagent.a(iofipc.o)	#SHT_PROGBITS,SHF_ALLOC|SHF_MERGE|SHF_STRINGS,1
	0x4303622e		.L.str.2
.rodata.str1.1	0x4303624d	0x9	D:\GC_connection\GC_connection\gagent\libgagent.a(iofipc.o)	#SHT_PROGBITS,SHF_ALLOC|SHF_MERGE|SHF_STRINGS,1
	0x4303624d		.L.str.3
.rodata.str1.1	0x43036256	0x39	D:\GC_connection\GC_connection\gagent\libgagent.a(iofipc.o)	#SHT_PROGBITS,SHF_ALLOC|SHF_MERGE|SHF_STRINGS,1
	0x43036256		.L.str.4
.rodata.str1.1	0x4303628f	0x16	D:\GC_connection\GC_connection\gagent\libgagent.a(iofipc.o)	#SHT_PROGBITS,SHF_ALLOC|SHF_MERGE|SHF_STRINGS,1
	0x4303628f		.L.str.5
.rodata.str1.1	0x430362a5	0xb	D:\GC_connection\GC_connection\gagent\libgagent.a(iofipc.o)	#SHT_PROGBITS,SHF_ALLOC|SHF_MERGE|SHF_STRINGS,1
	0x430362a5		.L__FUNCTION__.iofSendSig
.rodata.str1.1	0x430362b0	0x32	D:\GC_connection\GC_connection\gagent\libgagent.a(iofipc.o)	#SHT_PROGBITS,SHF_ALLOC|SHF_MERGE|SHF_STRINGS,1
	0x430362b0		.L.str.6
.rodata.str1.1	0x430362e2	0x25	D:\GC_connection\GC_connection\gagent\libgagent.a(iofipc.o)	#SHT_PROGBITS,SHF_ALLOC|SHF_MERGE|SHF_STRINGS,1
	0x430362e2		.L.str.7
.rodata.str1.1	0x43036307	0x34	D:\GC_connection\GC_connection\gagent\libgagent.a(iofipc.o)	#SHT_PROGBITS,SHF_ALLOC|SHF_MERGE|SHF_STRINGS,1
	0x43036307		.L.str.8
.rodata.str1.1	0x4303633b	0xe	D:\GC_connection\GC_connection\gagent\libgagent.a(iofipc.o)	#SHT_PROGBITS,SHF_ALLOC|SHF_MERGE|SHF_STRINGS,1
	0x4303633b		.L.str.9
.rodata.str1.1	0x43036349	0xc	D:\GC_connection\GC_connection\gagent\libgagent.a(iofipc.o)	#SHT_PROGBITS,SHF_ALLOC|SHF_MERGE|SHF_STRINGS,1
	0x43036349		.L__FUNCTION__.iofLockInit
.rodata.str1.1	0x43036355	0x13	D:\GC_connection\GC_connection\gagent\libgagent.a(iofpthread.o)	#SHT_PROGBITS,SHF_ALLOC|SHF_MERGE|SHF_STRINGS,1
	0x43036355		.L.str
.rodata.str1.1	0x43036368	0x15	D:\GC_connection\GC_connection\gagent\libgagent.a(iofpthread.o)	#SHT_PROGBITS,SHF_ALLOC|SHF_MERGE|SHF_STRINGS,1
	0x43036368		.L.str.1
.rodata.str1.1	0x4303637d	0x14	D:\GC_connection\GC_connection\gagent\libgagent.a(iofpthread.o)	#SHT_PROGBITS,SHF_ALLOC|SHF_MERGE|SHF_STRINGS,1
	0x4303637d		.L.str.2
.rodata.str1.1	0x43036391	0x11	D:\GC_connection\GC_connection\gagent\libgagent.a(iofpthread.o)	#SHT_PROGBITS,SHF_ALLOC|SHF_MERGE|SHF_STRINGS,1
	0x43036391		.L.str.3
.rodata.str1.1	0x430363a2	0x10	D:\GC_connection\GC_connection\gagent\libgagent.a(iofpthread.o)	#SHT_PROGBITS,SHF_ALLOC|SHF_MERGE|SHF_STRINGS,1
	0x430363a2		.L.str.4
.rodata.str1.1	0x430363b2	0x14	D:\GC_connection\GC_connection\gagent\libgagent.a(iofpthread.o)	#SHT_PROGBITS,SHF_ALLOC|SHF_MERGE|SHF_STRINGS,1
	0x430363b2		.L.str.5
.rodata.str1.1	0x430363c6	0x13	D:\GC_connection\GC_connection\gagent\libgagent.a(iofpthread.o)	#SHT_PROGBITS,SHF_ALLOC|SHF_MERGE|SHF_STRINGS,1
	0x430363c6		.L.str.6
.rodata.str1.1	0x430363d9	0xd	D:\GC_connection\GC_connection\gagent\libgagent.a(iofpthread.o)	#SHT_PROGBITS,SHF_ALLOC|SHF_MERGE|SHF_STRINGS,1
	0x430363d9		.L.str.7
.rodata.str1.1	0x430363e6	0xd	D:\GC_connection\GC_connection\gagent\libgagent.a(iofpthread.o)	#SHT_PROGBITS,SHF_ALLOC|SHF_MERGE|SHF_STRINGS,1
	0x430363e6		.L.str.8
.rodata.str1.1	0x430363f3	0x15	D:\GC_connection\GC_connection\gagent\libgagent.a(iofpthread.o)	#SHT_PROGBITS,SHF_ALLOC|SHF_MERGE|SHF_STRINGS,1
	0x430363f3		.L.str.9
.rodata.str1.1	0x43036408	0x11	D:\GC_connection\GC_connection\gagent\libgagent.a(iofpthread.o)	#SHT_PROGBITS,SHF_ALLOC|SHF_MERGE|SHF_STRINGS,1
	0x43036408		.L__FUNCTION__.iofPthreadCreate
.rodata.str1.1	0x43036419	0x22	D:\GC_connection\GC_connection\gagent\libgagent.a(iofpthread.o)	#SHT_PROGBITS,SHF_ALLOC|SHF_MERGE|SHF_STRINGS,1
	0x43036419		.L.str.12
.rodata.str1.1	0x4303643b	0x2f	D:\GC_connection\GC_connection\gagent\libgagent.a(iofpthread.o)	#SHT_PROGBITS,SHF_ALLOC|SHF_MERGE|SHF_STRINGS,1
	0x4303643b		.L.str.13
.rodata.str1.1	0x4303646a	0x2c	D:\GC_connection\GC_connection\gagent\libgagent.a(iofpthread.o)	#SHT_PROGBITS,SHF_ALLOC|SHF_MERGE|SHF_STRINGS,1
	0x4303646a		.L.str.14
.rodata.str1.1	0x43036496	0x30	D:\GC_connection\GC_connection\gagent\libgagent.a(iofpthread.o)	#SHT_PROGBITS,SHF_ALLOC|SHF_MERGE|SHF_STRINGS,1
	0x43036496		.L.str.15
.rodata.str1.1	0x430364c6	0x35	D:\GC_connection\GC_connection\gagent\libgagent.a(iofpthread.o)	#SHT_PROGBITS,SHF_ALLOC|SHF_MERGE|SHF_STRINGS,1
	0x430364c6		.L.str.16
.rodata.str1.1	0x430364fb	0x1f	D:\GC_connection\GC_connection\gagent\libgagent.a(iofpthread.o)	#SHT_PROGBITS,SHF_ALLOC|SHF_MERGE|SHF_STRINGS,1
	0x430364fb		.L.str.17
.rodata.str1.1	0x4303651a	0x12	D:\GC_connection\GC_connection\gagent\libgagent.a(iofpthread.o)	#SHT_PROGBITS,SHF_ALLOC|SHF_MERGE|SHF_STRINGS,1
	0x4303651a		.L__FUNCTION__.iofPthreadNameSet
.rodata.str1.1	0x4303652c	0x2a	D:\GC_connection\GC_connection\gagent\libgagent.a(iofpthread.o)	#SHT_PROGBITS,SHF_ALLOC|SHF_MERGE|SHF_STRINGS,1
	0x4303652c		.L.str.18
.rodata.str1.1	0x43036556	0x5	D:\GC_connection\GC_connection\gagent\libgagent.a(iofpthread.o)	#SHT_PROGBITS,SHF_ALLOC|SHF_MERGE|SHF_STRINGS,1
	0x43036556		.L.str.19
.rodata.str1.1	0x4303655b	0x5	D:\GC_connection\GC_connection\gagent\libgagent.a(iofpthread.o)	#SHT_PROGBITS,SHF_ALLOC|SHF_MERGE|SHF_STRINGS,1
	0x4303655b		.L.str.20
.rodata.str1.1	0x43036560	0x8	D:\GC_connection\GC_connection\gagent\libgagent.a(iofpthread.o)	#SHT_PROGBITS,SHF_ALLOC|SHF_MERGE|SHF_STRINGS,1
	0x43036560		.L.str.21
.rodata.str1.1	0x43036568	0x2d	D:\GC_connection\GC_connection\gagent\libgagent.a(iofpthread.o)	#SHT_PROGBITS,SHF_ALLOC|SHF_MERGE|SHF_STRINGS,1
	0x43036568		.L.str.22
.rodata.str1.1	0x43036595	0x15	D:\GC_connection\GC_connection\gagent\libgagent.a(iofpthread.o)	#SHT_PROGBITS,SHF_ALLOC|SHF_MERGE|SHF_STRINGS,1
	0x43036595		.L.str.23
.rodata.str1.1	0x430365aa	0x13	D:\GC_connection\GC_connection\gagent\libgagent.a(iofpthread.o)	#SHT_PROGBITS,SHF_ALLOC|SHF_MERGE|SHF_STRINGS,1
	0x430365aa		.L.str.24
.rodata.str1.1	0x430365bd	0x10	D:\GC_connection\GC_connection\gagent\libgagent.a(iofpthread.o)	#SHT_PROGBITS,SHF_ALLOC|SHF_MERGE|SHF_STRINGS,1
	0x430365bd		.L.str.25
.rodata.str1.1	0x430365cd	0x13	D:\GC_connection\GC_connection\gagent\libgagent.a(iofpthread.o)	#SHT_PROGBITS,SHF_ALLOC|SHF_MERGE|SHF_STRINGS,1
	0x430365cd		.L.str.26
.rodata.str1.1	0x430365e0	0x27	D:\GC_connection\GC_connection\gagent\libgagent.a(iofstring.o)	#SHT_PROGBITS,SHF_ALLOC|SHF_MERGE|SHF_STRINGS,1
	0x430365e0		.L.str.2
.rodata.str1.1	0x43036607	0x30	D:\GC_connection\GC_connection\gagent\libgagent.a(iofstring.o)	#SHT_PROGBITS,SHF_ALLOC|SHF_MERGE|SHF_STRINGS,1
	0x43036607		.L.str.3
.rodata.str1.1	0x43036637	0x2f	D:\GC_connection\GC_connection\gagent\libgagent.a(iofstring.o)	#SHT_PROGBITS,SHF_ALLOC|SHF_MERGE|SHF_STRINGS,1
	0x43036637		.L.str.4
.rodata.str1.1	0x43036666	0x2b	D:\GC_connection\GC_connection\gagent\libgagent.a(iofstring.o)	#SHT_PROGBITS,SHF_ALLOC|SHF_MERGE|SHF_STRINGS,1
	0x43036666		.L.str.5
.rodata.str1.1	0x43036691	0x25	D:\GC_connection\GC_connection\gagent\libgagent.a(iofstring.o)	#SHT_PROGBITS,SHF_ALLOC|SHF_MERGE|SHF_STRINGS,1
	0x43036691		.L.str.6
.rodata.str1.1	0x430366b6	0x20	D:\GC_connection\GC_connection\gagent\libgagent.a(iofstring.o)	#SHT_PROGBITS,SHF_ALLOC|SHF_MERGE|SHF_STRINGS,1
	0x430366b6		.L.str.7
.rodata.str1.1	0x430366d6	0x17	D:\GC_connection\GC_connection\gagent\libgagent.a(iofstring.o)	#SHT_PROGBITS,SHF_ALLOC|SHF_MERGE|SHF_STRINGS,1
	0x430366d6		.L.str.8
.rodata.str1.1	0x430366ed	0x18	D:\GC_connection\GC_connection\gagent\libgagent.a(iofstring.o)	#SHT_PROGBITS,SHF_ALLOC|SHF_MERGE|SHF_STRINGS,1
	0x430366ed		.L.str.9
.rodata.str1.1	0x43036705	0x1f	D:\GC_connection\GC_connection\gagent\libgagent.a(local.o)	#SHT_PROGBITS,SHF_ALLOC|SHF_MERGE|SHF_STRINGS,1
	0x43036705		.L.str.2
.rodata.str1.1	0x43036724	0x3a	D:\GC_connection\GC_connection\gagent\libgagent.a(local.o)	#SHT_PROGBITS,SHF_ALLOC|SHF_MERGE|SHF_STRINGS,1
	0x43036724		.L.str.4
.rodata.str1.1	0x4303675e	0x29	D:\GC_connection\GC_connection\gagent\libgagent.a(local.o)	#SHT_PROGBITS,SHF_ALLOC|SHF_MERGE|SHF_STRINGS,1
	0x4303675e		.L.str.5
.rodata.str1.1	0x43036787	0x22	D:\GC_connection\GC_connection\gagent\libgagent.a(local.o)	#SHT_PROGBITS,SHF_ALLOC|SHF_MERGE|SHF_STRINGS,1
	0x43036787		.L.str.6
.rodata.str1.1	0x430367a9	0x1b	D:\GC_connection\GC_connection\gagent\libgagent.a(local.o)	#SHT_PROGBITS,SHF_ALLOC|SHF_MERGE|SHF_STRINGS,1
	0x430367a9		.L.str.7
.rodata.str1.1	0x430367c4	0x2e	D:\GC_connection\GC_connection\gagent\libgagent.a(local.o)	#SHT_PROGBITS,SHF_ALLOC|SHF_MERGE|SHF_STRINGS,1
	0x430367c4		.L.str.9
.rodata.str1.1	0x430367f2	0x27	D:\GC_connection\GC_connection\gagent\libgagent.a(local.o)	#SHT_PROGBITS,SHF_ALLOC|SHF_MERGE|SHF_STRINGS,1
	0x430367f2		.L.str.10
.rodata.str1.1	0x43036819	0x27	D:\GC_connection\GC_connection\gagent\libgagent.a(local.o)	#SHT_PROGBITS,SHF_ALLOC|SHF_MERGE|SHF_STRINGS,1
	0x43036819		.L.str.11
.rodata.str1.1	0x43036840	0x27	D:\GC_connection\GC_connection\gagent\libgagent.a(local.o)	#SHT_PROGBITS,SHF_ALLOC|SHF_MERGE|SHF_STRINGS,1
	0x43036840		.L.str.12
.rodata.str1.1	0x43036867	0x27	D:\GC_connection\GC_connection\gagent\libgagent.a(local.o)	#SHT_PROGBITS,SHF_ALLOC|SHF_MERGE|SHF_STRINGS,1
	0x43036867		.L.str.13
.rodata.str1.1	0x4303688e	0x27	D:\GC_connection\GC_connection\gagent\libgagent.a(local.o)	#SHT_PROGBITS,SHF_ALLOC|SHF_MERGE|SHF_STRINGS,1
	0x4303688e		.L.str.14
.rodata.str1.1	0x430368b5	0x27	D:\GC_connection\GC_connection\gagent\libgagent.a(local.o)	#SHT_PROGBITS,SHF_ALLOC|SHF_MERGE|SHF_STRINGS,1
	0x430368b5		.L.str.15
.rodata.str1.1	0x430368dc	0x27	D:\GC_connection\GC_connection\gagent\libgagent.a(local.o)	#SHT_PROGBITS,SHF_ALLOC|SHF_MERGE|SHF_STRINGS,1
	0x430368dc		.L.str.16
.rodata.str1.1	0x43036903	0x28	D:\GC_connection\GC_connection\gagent\libgagent.a(local.o)	#SHT_PROGBITS,SHF_ALLOC|SHF_MERGE|SHF_STRINGS,1
	0x43036903		.L.str.17
.rodata.str1.1	0x4303692b	0x8	D:\GC_connection\GC_connection\gagent\libgagent.a(local.o)	#SHT_PROGBITS,SHF_ALLOC|SHF_MERGE|SHF_STRINGS,1
	0x4303692b		.L.str.22
.rodata.str1.1	0x43036933	0x9	D:\GC_connection\GC_connection\gagent\libgagent.a(local.o)	#SHT_PROGBITS,SHF_ALLOC|SHF_MERGE|SHF_STRINGS,1
	0x43036933		.L.str.23
.rodata.str1.1	0x4303693c	0x7	D:\GC_connection\GC_connection\gagent\libgagent.a(local.o)	#SHT_PROGBITS,SHF_ALLOC|SHF_MERGE|SHF_STRINGS,1
	0x4303693c		.L.str.24
.rodata.str1.1	0x43036943	0x5	D:\GC_connection\GC_connection\gagent\libgagent.a(local.o)	#SHT_PROGBITS,SHF_ALLOC|SHF_MERGE|SHF_STRINGS,1
	0x43036943		.L.str.25
.rodata.str1.1	0x43036948	0x7	D:\GC_connection\GC_connection\gagent\libgagent.a(local.o)	#SHT_PROGBITS,SHF_ALLOC|SHF_MERGE|SHF_STRINGS,1
	0x43036948		.L.str.26
.rodata.str1.1	0x4303694f	0x8	D:\GC_connection\GC_connection\gagent\libgagent.a(local.o)	#SHT_PROGBITS,SHF_ALLOC|SHF_MERGE|SHF_STRINGS,1
	0x4303694f		.L.str.27
.rodata.str1.1	0x43036957	0x6	D:\GC_connection\GC_connection\gagent\libgagent.a(local.o)	#SHT_PROGBITS,SHF_ALLOC|SHF_MERGE|SHF_STRINGS,1
	0x43036957		.L.str.28
.rodata.str1.1	0x4303695d	0xa	D:\GC_connection\GC_connection\gagent\libgagent.a(local.o)	#SHT_PROGBITS,SHF_ALLOC|SHF_MERGE|SHF_STRINGS,1
	0x4303695d		.L.str.29
.rodata.str1.1	0x43036967	0x6	D:\GC_connection\GC_connection\gagent\libgagent.a(local.o)	#SHT_PROGBITS,SHF_ALLOC|SHF_MERGE|SHF_STRINGS,1
	0x43036967		.L.str.30
.rodata.str1.1	0x4303696d	0x3	D:\GC_connection\GC_connection\gagent\libgagent.a(local.o)	#SHT_PROGBITS,SHF_ALLOC|SHF_MERGE|SHF_STRINGS,1
	0x4303696d		.L.str.31
.rodata.str1.1	0x43036970	0x8	D:\GC_connection\GC_connection\gagent\libgagent.a(local.o)	#SHT_PROGBITS,SHF_ALLOC|SHF_MERGE|SHF_STRINGS,1
	0x43036970		.L.str.32
.rodata.str1.1	0x43036978	0xa	D:\GC_connection\GC_connection\gagent\libgagent.a(local.o)	#SHT_PROGBITS,SHF_ALLOC|SHF_MERGE|SHF_STRINGS,1
	0x43036978		.L.str.33
.rodata.str1.1	0x43036982	0x8	D:\GC_connection\GC_connection\gagent\libgagent.a(local.o)	#SHT_PROGBITS,SHF_ALLOC|SHF_MERGE|SHF_STRINGS,1
	0x43036982		.L.str.34
.rodata.str1.1	0x4303698a	0x10	D:\GC_connection\GC_connection\gagent\libgagent.a(local.o)	#SHT_PROGBITS,SHF_ALLOC|SHF_MERGE|SHF_STRINGS,1
	0x4303698a		.L.str.35
.rodata.str1.1	0x4303699a	0x2b	D:\GC_connection\GC_connection\gagent\libgagent.a(local.o)	#SHT_PROGBITS,SHF_ALLOC|SHF_MERGE|SHF_STRINGS,1
	0x4303699a		.L.str.36
.rodata.str1.1	0x430369c5	0x11	D:\GC_connection\GC_connection\gagent\libgagent.a(local.o)	#SHT_PROGBITS,SHF_ALLOC|SHF_MERGE|SHF_STRINGS,1
	0x430369c5		.L__FUNCTION__.gatAppData2Local
.rodata.str1.1	0x430369d6	0x3c	D:\GC_connection\GC_connection\gagent\libgagent.a(local.o)	#SHT_PROGBITS,SHF_ALLOC|SHF_MERGE|SHF_STRINGS,1
	0x430369d6		.L.str.37
.rodata.str1.1	0x43036a12	0x2d	D:\GC_connection\GC_connection\gagent\libgagent.a(local.o)	#SHT_PROGBITS,SHF_ALLOC|SHF_MERGE|SHF_STRINGS,1
	0x43036a12		.L.str.38
.rodata.str1.1	0x43036a3f	0xe	D:\GC_connection\GC_connection\gagent\libgagent.a(local.o)	#SHT_PROGBITS,SHF_ALLOC|SHF_MERGE|SHF_STRINGS,1
	0x43036a3f		.L.str.39
.rodata.str1.1	0x43036a4d	0x11	D:\GC_connection\GC_connection\gagent\libgagent.a(local.o)	#SHT_PROGBITS,SHF_ALLOC|SHF_MERGE|SHF_STRINGS,1
	0x43036a4d		.L.str.40
.rodata.str1.1	0x43036a5e	0x13	D:\GC_connection\GC_connection\gagent\libgagent.a(local.o)	#SHT_PROGBITS,SHF_ALLOC|SHF_MERGE|SHF_STRINGS,1
	0x43036a5e		.L.str.41
.rodata.str1.1	0x43036a71	0x1e	D:\GC_connection\GC_connection\gagent\libgagent.a(local.o)	#SHT_PROGBITS,SHF_ALLOC|SHF_MERGE|SHF_STRINGS,1
	0x43036a71		.L.str.42
.rodata.str1.1	0x43036a8f	0xe	D:\GC_connection\GC_connection\gagent\libgagent.a(local.o)	#SHT_PROGBITS,SHF_ALLOC|SHF_MERGE|SHF_STRINGS,1
	0x43036a8f		.L__FUNCTION__.GAgentInfoGet
.rodata.str1.1	0x43036a9d	0x1c	D:\GC_connection\GC_connection\gagent\libgagent.a(local.o)	#SHT_PROGBITS,SHF_ALLOC|SHF_MERGE|SHF_STRINGS,1
	0x43036a9d		.L.str.43
.rodata.str1.1	0x43036ab9	0x13	D:\GC_connection\GC_connection\gagent\libgagent.a(local.o)	#SHT_PROGBITS,SHF_ALLOC|SHF_MERGE|SHF_STRINGS,1
	0x43036ab9		.L__FUNCTION__.gatLocalSendStatus
.rodata.str1.1	0x43036acc	0x34	D:\GC_connection\GC_connection\gagent\libgagent.a(local.o)	#SHT_PROGBITS,SHF_ALLOC|SHF_MERGE|SHF_STRINGS,1
	0x43036acc		.L.str.44
.rodata.str1.1	0x43036b00	0x20	D:\GC_connection\GC_connection\gagent\libgagent.a(local.o)	#SHT_PROGBITS,SHF_ALLOC|SHF_MERGE|SHF_STRINGS,1
	0x43036b00		.L.str.45
.rodata.str1.1	0x43036b20	0x19	D:\GC_connection\GC_connection\gagent\libgagent.a(local.o)	#SHT_PROGBITS,SHF_ALLOC|SHF_MERGE|SHF_STRINGS,1
	0x43036b20		.L.str.46
.rodata.str1.1	0x43036b39	0x10	D:\GC_connection\GC_connection\gagent\libgagent.a(local.o)	#SHT_PROGBITS,SHF_ALLOC|SHF_MERGE|SHF_STRINGS,1
	0x43036b39		.L.str.47
.rodata.str1.1	0x43036b49	0x13	D:\GC_connection\GC_connection\gagent\libgagent.a(local.o)	#SHT_PROGBITS,SHF_ALLOC|SHF_MERGE|SHF_STRINGS,1
	0x43036b49		.L__FUNCTION__.gatLocalStatusSync
.rodata.str1.1	0x43036b5c	0x18	D:\GC_connection\GC_connection\gagent\libgagent.a(localcomm.o)	#SHT_PROGBITS,SHF_ALLOC|SHF_MERGE|SHF_STRINGS,1
	0x43036b5c		.L.str.2
.rodata.str1.1	0x43036b74	0x13	D:\GC_connection\GC_connection\gagent\libgagent.a(localcomm.o)	#SHT_PROGBITS,SHF_ALLOC|SHF_MERGE|SHF_STRINGS,1
	0x43036b74		.L__FUNCTION__.gatEnableBindStart
.rodata.str1.1	0x43036b87	0x12	D:\GC_connection\GC_connection\gagent\libgagent.a(localcomm.o)	#SHT_PROGBITS,SHF_ALLOC|SHF_MERGE|SHF_STRINGS,1
	0x43036b87		.L.str.3
.rodata.str1.1	0x43036b99	0x2c	D:\GC_connection\GC_connection\gagent\libgagent.a(localcomm.o)	#SHT_PROGBITS,SHF_ALLOC|SHF_MERGE|SHF_STRINGS,1
	0x43036b99		.L.str.4
.rodata.str1.1	0x43036bc5	0xf	D:\GC_connection\GC_connection\gagent\libgagent.a(localcomm.o)	#SHT_PROGBITS,SHF_ALLOC|SHF_MERGE|SHF_STRINGS,1
	0x43036bc5		.L.str.5
.rodata.str1.1	0x43036bd4	0xf	D:\GC_connection\GC_connection\gagent\libgagent.a(localcomm.o)	#SHT_PROGBITS,SHF_ALLOC|SHF_MERGE|SHF_STRINGS,1
	0x43036bd4		.L__FUNCTION__.gatFactoryMode
.rodata.str1.1	0x43036be3	0x26	D:\GC_connection\GC_connection\gagent\libgagent.a(localcomm.o)	#SHT_PROGBITS,SHF_ALLOC|SHF_MERGE|SHF_STRINGS,1
	0x43036be3		.L.str.6
.rodata.str1.1	0x43036c09	0xc	D:\GC_connection\GC_connection\gagent\libgagent.a(localcomm.o)	#SHT_PROGBITS,SHF_ALLOC|SHF_MERGE|SHF_STRINGS,1
	0x43036c09		.L.str.7
.rodata.str1.1	0x43036c15	0x5	D:\GC_connection\GC_connection\gagent\libgagent.a(localcomm.o)	#SHT_PROGBITS,SHF_ALLOC|SHF_MERGE|SHF_STRINGS,1
	0x43036c15		.L.str.12
.rodata.str1.1	0x43036c1a	0x1a	D:\GC_connection\GC_connection\gagent\libgagent.a(localcomm.o)	#SHT_PROGBITS,SHF_ALLOC|SHF_MERGE|SHF_STRINGS,1
	0x43036c1a		.L.str.13
.rodata.str1.1	0x43036c34	0xc	D:\GC_connection\GC_connection\gagent\libgagent.a(localcomm.o)	#SHT_PROGBITS,SHF_ALLOC|SHF_MERGE|SHF_STRINGS,1
	0x43036c34		.L.str.14
.rodata.str1.1	0x43036c40	0x35	D:\GC_connection\GC_connection\gagent\libgagent.a(localcomm.o)	#SHT_PROGBITS,SHF_ALLOC|SHF_MERGE|SHF_STRINGS,1
	0x43036c40		.L.str.15
.rodata.str1.1	0x43036c75	0x9	D:\GC_connection\GC_connection\gagent\libgagent.a(localcomm.o)	#SHT_PROGBITS,SHF_ALLOC|SHF_MERGE|SHF_STRINGS,1
	0x43036c75		.L.str.18
.rodata.str1.1	0x43036c7e	0x11	D:\GC_connection\GC_connection\gagent\libgagent.a(localcomm.o)	#SHT_PROGBITS,SHF_ALLOC|SHF_MERGE|SHF_STRINGS,1
	0x43036c7e		.L.str.19
.rodata.str1.1	0x43036c8f	0xd	D:\GC_connection\GC_connection\gagent\libgagent.a(localcomm.o)	#SHT_PROGBITS,SHF_ALLOC|SHF_MERGE|SHF_STRINGS,1
	0x43036c8f		.L__FUNCTION__.gatEnterTest
.rodata.str1.1	0x43036c9c	0x16	D:\GC_connection\GC_connection\gagent\libgagent.a(localcomm.o)	#SHT_PROGBITS,SHF_ALLOC|SHF_MERGE|SHF_STRINGS,1
	0x43036c9c		.L__FUNCTION__.gatLocalGAgentRestart
.rodata.str1.1	0x43036cb2	0x10	D:\GC_connection\GC_connection\gagent\libgagent.a(localcomm.o)	#SHT_PROGBITS,SHF_ALLOC|SHF_MERGE|SHF_STRINGS,1
	0x43036cb2		.L.str.20
.rodata.str1.1	0x43036cc2	0x1c	D:\GC_connection\GC_connection\gagent\libgagent.a(localcomm.o)	#SHT_PROGBITS,SHF_ALLOC|SHF_MERGE|SHF_STRINGS,1
	0x43036cc2		.L__FUNCTION__.gatLocalErrHandleAckTimeOut
.rodata.str1.1	0x43036cde	0x3b	D:\GC_connection\GC_connection\gagent\libgagent.a(localcomm.o)	#SHT_PROGBITS,SHF_ALLOC|SHF_MERGE|SHF_STRINGS,1
	0x43036cde		.L.str.21
.rodata.str1.1	0x43036d19	0x23	D:\GC_connection\GC_connection\gagent\libgagent.a(localcomm.o)	#SHT_PROGBITS,SHF_ALLOC|SHF_MERGE|SHF_STRINGS,1
	0x43036d19		.L.str.22
.rodata.str1.1	0x43036d3c	0x17	D:\GC_connection\GC_connection\gagent\libgagent.a(localcomm.o)	#SHT_PROGBITS,SHF_ALLOC|SHF_MERGE|SHF_STRINGS,1
	0x43036d3c		.L.str.23
.rodata.str1.1	0x43036d53	0xf	D:\GC_connection\GC_connection\gagent\libgagent.a(localcomm.o)	#SHT_PROGBITS,SHF_ALLOC|SHF_MERGE|SHF_STRINGS,1
	0x43036d53		.L__FUNCTION__.gatLocalHandle
.rodata.str1.1	0x43036d62	0x12	D:\GC_connection\GC_connection\gagent\libgagent.a(localcomm.o)	#SHT_PROGBITS,SHF_ALLOC|SHF_MERGE|SHF_STRINGS,1
	0x43036d62		.L.str.26
.rodata.str1.1	0x43036d74	0x18	D:\GC_connection\GC_connection\gagent\libgagent.a(localcomm.o)	#SHT_PROGBITS,SHF_ALLOC|SHF_MERGE|SHF_STRINGS,1
	0x43036d74		.L__FUNCTION__.gatLocalSignalCheckTick
.rodata.str1.1	0x43036d8c	0x1b	D:\GC_connection\GC_connection\gagent\libgagent.a(localcomm.o)	#SHT_PROGBITS,SHF_ALLOC|SHF_MERGE|SHF_STRINGS,1
	0x43036d8c		.L.str.28
.rodata.str1.1	0x43036da7	0x13	D:\GC_connection\GC_connection\gagent\libgagent.a(localcomm.o)	#SHT_PROGBITS,SHF_ALLOC|SHF_MERGE|SHF_STRINGS,1
	0x43036da7		.L.str.29
.rodata.str1.1	0x43036dba	0x1b	D:\GC_connection\GC_connection\gagent\libgagent.a(localcomm.o)	#SHT_PROGBITS,SHF_ALLOC|SHF_MERGE|SHF_STRINGS,1
	0x43036dba		.L.str.30
.rodata.str1.1	0x43036dd5	0x15	D:\GC_connection\GC_connection\gagent\libgagent.a(localcomm.o)	#SHT_PROGBITS,SHF_ALLOC|SHF_MERGE|SHF_STRINGS,1
	0x43036dd5		.L__FUNCTION__.gatEnableBindTimeOut
.rodata.str1.1	0x43036dea	0x14	D:\GC_connection\GC_connection\gagent\libgagent.a(localio.o)	#SHT_PROGBITS,SHF_ALLOC|SHF_MERGE|SHF_STRINGS,1
	0x43036dea		.L__FUNCTION__.localChannelNodeGet
.rodata.str1.1	0x43036dfe	0x19	D:\GC_connection\GC_connection\gagent\libgagent.a(localio.o)	#SHT_PROGBITS,SHF_ALLOC|SHF_MERGE|SHF_STRINGS,1
	0x43036dfe		.L.str
.rodata.str1.1	0x43036e17	0x1a	D:\GC_connection\GC_connection\gagent\libgagent.a(localio.o)	#SHT_PROGBITS,SHF_ALLOC|SHF_MERGE|SHF_STRINGS,1
	0x43036e17		.L.str.3
.rodata.str1.1	0x43036e31	0xf	D:\GC_connection\GC_connection\gagent\libgagent.a(localio.o)	#SHT_PROGBITS,SHF_ALLOC|SHF_MERGE|SHF_STRINGS,1
	0x43036e31		.L__FUNCTION__.gatLocalioInit
.rodata.str1.1	0x43036e40	0x10	D:\GC_connection\GC_connection\gagent\libgagent.a(localio.o)	#SHT_PROGBITS,SHF_ALLOC|SHF_MERGE|SHF_STRINGS,1
	0x43036e40		.L.str.4
.rodata.str1.1	0x43036e50	0x15	D:\GC_connection\GC_connection\gagent\libgagent.a(localio.o)	#SHT_PROGBITS,SHF_ALLOC|SHF_MERGE|SHF_STRINGS,1
	0x43036e50		.L.str.5
.rodata.str1.1	0x43036e65	0x15	D:\GC_connection\GC_connection\gagent\libgagent.a(localio.o)	#SHT_PROGBITS,SHF_ALLOC|SHF_MERGE|SHF_STRINGS,1
	0x43036e65		.L.str.6
.rodata.str1.1	0x43036e7a	0xd	D:\GC_connection\GC_connection\gagent\libgagent.a(localio.o)	#SHT_PROGBITS,SHF_ALLOC|SHF_MERGE|SHF_STRINGS,1
	0x43036e7a		.L.str.7
.rodata.str1.1	0x43036e87	0x2	D:\GC_connection\GC_connection\gagent\libgagent.a(localio.o)	#SHT_PROGBITS,SHF_ALLOC|SHF_MERGE|SHF_STRINGS,1
	0x43036e87		.L.str.8
.rodata.str1.1	0x43036e89	0x18	D:\GC_connection\GC_connection\gagent\libgagent.a(localio.o)	#SHT_PROGBITS,SHF_ALLOC|SHF_MERGE|SHF_STRINGS,1
	0x43036e89		.L.str.9
.rodata.str1.1	0x43036ea1	0x1a	D:\GC_connection\GC_connection\gagent\libgagent.a(localio.o)	#SHT_PROGBITS,SHF_ALLOC|SHF_MERGE|SHF_STRINGS,1
	0x43036ea1		.L.str.10
.rodata.str1.1	0x43036ebb	0x14	D:\GC_connection\GC_connection\gagent\libgagent.a(localio.o)	#SHT_PROGBITS,SHF_ALLOC|SHF_MERGE|SHF_STRINGS,1
	0x43036ebb		.L.str.11
.rodata.str1.1	0x43036ecf	0xf	D:\GC_connection\GC_connection\gagent\libgagent.a(localio.o)	#SHT_PROGBITS,SHF_ALLOC|SHF_MERGE|SHF_STRINGS,1
	0x43036ecf		.L__FUNCTION__.localRecDataCb
.rodata.str1.1	0x43036ede	0x48	D:\GC_connection\GC_connection\gagent\libgagent.a(localio.o)	#SHT_PROGBITS,SHF_ALLOC|SHF_MERGE|SHF_STRINGS,1
	0x43036ede		.L.str.17
.rodata.str1.1	0x43036f26	0x21	D:\GC_connection\GC_connection\gagent\libgagent.a(localio.o)	#SHT_PROGBITS,SHF_ALLOC|SHF_MERGE|SHF_STRINGS,1
	0x43036f26		.L.str.18
.rodata.str1.1	0x43036f47	0x49	D:\GC_connection\GC_connection\gagent\libgagent.a(localio.o)	#SHT_PROGBITS,SHF_ALLOC|SHF_MERGE|SHF_STRINGS,1
	0x43036f47		.L.str.21
.rodata.str1.1	0x43036f90	0x22	D:\GC_connection\GC_connection\gagent\libgagent.a(localio.o)	#SHT_PROGBITS,SHF_ALLOC|SHF_MERGE|SHF_STRINGS,1
	0x43036f90		.L.str.22
.rodata.str1.1	0x43036fb2	0x2a	D:\GC_connection\GC_connection\gagent\libgagent.a(localio.o)	#SHT_PROGBITS,SHF_ALLOC|SHF_MERGE|SHF_STRINGS,1
	0x43036fb2		.L.str.23
.rodata.str1.1	0x43036fdc	0x24	D:\GC_connection\GC_connection\gagent\libgagent.a(localio.o)	#SHT_PROGBITS,SHF_ALLOC|SHF_MERGE|SHF_STRINGS,1
	0x43036fdc		.L.str.24
.rodata.str1.1	0x43037000	0x3e	D:\GC_connection\GC_connection\gagent\libgagent.a(localio.o)	#SHT_PROGBITS,SHF_ALLOC|SHF_MERGE|SHF_STRINGS,1
	0x43037000		.L.str.25
.rodata.str1.1	0x4303703e	0xd	D:\GC_connection\GC_connection\gagent\libgagent.a(localio.o)	#SHT_PROGBITS,SHF_ALLOC|SHF_MERGE|SHF_STRINGS,1
	0x4303703e		.L__FUNCTION__.gatLocalSend
.rodata.str1.1	0x4303704b	0x1d	D:\GC_connection\GC_connection\gagent\libgagent.a(localio.o)	#SHT_PROGBITS,SHF_ALLOC|SHF_MERGE|SHF_STRINGS,1
	0x4303704b		.L.str.26
.rodata.str1.1	0x43037068	0x21	D:\GC_connection\GC_connection\gagent\libgagent.a(localio.o)	#SHT_PROGBITS,SHF_ALLOC|SHF_MERGE|SHF_STRINGS,1
	0x43037068		.L.str.27
.rodata.str1.1	0x43037089	0x25	D:\GC_connection\GC_connection\gagent\libgagent.a(localio.o)	#SHT_PROGBITS,SHF_ALLOC|SHF_MERGE|SHF_STRINGS,1
	0x43037089		.L.str.28
.rodata.str1.1	0x430370ae	0x24	D:\GC_connection\GC_connection\gagent\libgagent.a(localio.o)	#SHT_PROGBITS,SHF_ALLOC|SHF_MERGE|SHF_STRINGS,1
	0x430370ae		.L.str.29
.rodata.str1.1	0x430370d2	0x22	D:\GC_connection\GC_connection\gagent\libgagent.a(localio.o)	#SHT_PROGBITS,SHF_ALLOC|SHF_MERGE|SHF_STRINGS,1
	0x430370d2		.L.str.30
.rodata.str1.1	0x430370f4	0x1c	D:\GC_connection\GC_connection\gagent\libgagent.a(localio.o)	#SHT_PROGBITS,SHF_ALLOC|SHF_MERGE|SHF_STRINGS,1
	0x430370f4		.L.str.31
.rodata.str1.1	0x43037110	0x14	D:\GC_connection\GC_connection\gagent\libgagent.a(localio.o)	#SHT_PROGBITS,SHF_ALLOC|SHF_MERGE|SHF_STRINGS,1
	0x43037110		.L__FUNCTION__.gatSerialSendHandle
.rodata.str1.1	0x43037124	0x3b	D:\GC_connection\GC_connection\gagent\libgagent.a(localio.o)	#SHT_PROGBITS,SHF_ALLOC|SHF_MERGE|SHF_STRINGS,1
	0x43037124		.L.str.32
.rodata.str1.1	0x4303715f	0x5	D:\GC_connection\GC_connection\gagent\libgagent.a(localio.o)	#SHT_PROGBITS,SHF_ALLOC|SHF_MERGE|SHF_STRINGS,1
	0x4303715f		.L.str.33
.rodata.str1.1	0x43037164	0x6	D:\GC_connection\GC_connection\gagent\libgagent.a(localio.o)	#SHT_PROGBITS,SHF_ALLOC|SHF_MERGE|SHF_STRINGS,1
	0x43037164		.L.str.34
.rodata.str1.1	0x4303716a	0x1f	D:\GC_connection\GC_connection\gagent\libgagent.a(localio.o)	#SHT_PROGBITS,SHF_ALLOC|SHF_MERGE|SHF_STRINGS,1
	0x4303716a		.L.str.35
.rodata.str1.1	0x43037189	0x23	D:\GC_connection\GC_connection\gagent\libgagent.a(localio.o)	#SHT_PROGBITS,SHF_ALLOC|SHF_MERGE|SHF_STRINGS,1
	0x43037189		.L.str.36
.rodata.str1.1	0x430371ac	0x39	D:\GC_connection\GC_connection\gagent\libgagent.a(localio.o)	#SHT_PROGBITS,SHF_ALLOC|SHF_MERGE|SHF_STRINGS,1
	0x430371ac		.L.str.37
.rodata.str1.1	0x430371e5	0x13	D:\GC_connection\GC_connection\gagent\libgagent.a(localio.o)	#SHT_PROGBITS,SHF_ALLOC|SHF_MERGE|SHF_STRINGS,1
	0x430371e5		.L.str.38
.rodata.str1.1	0x430371f8	0x19	D:\GC_connection\GC_connection\gagent\libgagent.a(localio.o)	#SHT_PROGBITS,SHF_ALLOC|SHF_MERGE|SHF_STRINGS,1
	0x430371f8		.L.str.39
.rodata.str1.1	0x43037211	0x13	D:\GC_connection\GC_connection\gagent\libgagent.a(localio.o)	#SHT_PROGBITS,SHF_ALLOC|SHF_MERGE|SHF_STRINGS,1
	0x43037211		.L__FUNCTION__.gatSerialRecHandle
.rodata.str1.1	0x43037224	0x49	D:\GC_connection\GC_connection\gagent\libgagent.a(localio.o)	#SHT_PROGBITS,SHF_ALLOC|SHF_MERGE|SHF_STRINGS,1
	0x43037224		.L.str.40
.rodata.str1.1	0x4303726d	0x19	D:\GC_connection\GC_connection\gagent\libgagent.a(localio.o)	#SHT_PROGBITS,SHF_ALLOC|SHF_MERGE|SHF_STRINGS,1
	0x4303726d		.L.str.41
.rodata.str1.1	0x43037286	0x1a	D:\GC_connection\GC_connection\gagent\libgagent.a(localio.o)	#SHT_PROGBITS,SHF_ALLOC|SHF_MERGE|SHF_STRINGS,1
	0x43037286		.L__FUNCTION__.gatLocalRecTimerOutHandle
.rodata.str1.1	0x430372a0	0x19	D:\GC_connection\GC_connection\gagent\libgagent.a(localprotocol.o)	#SHT_PROGBITS,SHF_ALLOC|SHF_MERGE|SHF_STRINGS,1
	0x430372a0		.L.str.2
.rodata.str1.1	0x430372b9	0xb	D:\GC_connection\GC_connection\gagent\libgagent.a(localprotocol.o)	#SHT_PROGBITS,SHF_ALLOC|SHF_MERGE|SHF_STRINGS,1
	0x430372b9		.L__FUNCTION__.localWrite
.rodata.str1.1	0x430372c4	0x1c	D:\GC_connection\GC_connection\gagent\libgagent.a(localprotocol.o)	#SHT_PROGBITS,SHF_ALLOC|SHF_MERGE|SHF_STRINGS,1
	0x430372c4		.L.str.3
.rodata.str1.1	0x430372e0	0xa	D:\GC_connection\GC_connection\gagent\libgagent.a(localprotocol.o)	#SHT_PROGBITS,SHF_ALLOC|SHF_MERGE|SHF_STRINGS,1
	0x430372e0		.L.str.4
.rodata.str1.1	0x430372ea	0x3d	D:\GC_connection\GC_connection\gagent\libgagent.a(localprotocol.o)	#SHT_PROGBITS,SHF_ALLOC|SHF_MERGE|SHF_STRINGS,1
	0x430372ea		.L.str.5
.rodata.str1.1	0x43037327	0x13	D:\GC_connection\GC_connection\gagent\libgagent.a(localprotocol.o)	#SHT_PROGBITS,SHF_ALLOC|SHF_MERGE|SHF_STRINGS,1
	0x43037327		.L__FUNCTION__.localExtractPacket
.rodata.str1.1	0x4303733a	0x14	D:\GC_connection\GC_connection\gagent\libgagent.a(nwk_manage.o)	#SHT_PROGBITS,SHF_ALLOC|SHF_MERGE|SHF_STRINGS,1
	0x4303733a		.L.str.2
.rodata.str1.1	0x4303734e	0xb	D:\GC_connection\GC_connection\gagent\libgagent.a(nwk_manage.o)	#SHT_PROGBITS,SHF_ALLOC|SHF_MERGE|SHF_STRINGS,1
	0x4303734e		.L__FUNCTION__.gatNwkInit
.rodata.str1.1	0x43037359	0x26	D:\GC_connection\GC_connection\gagent\libgagent.a(nwk_manage.o)	#SHT_PROGBITS,SHF_ALLOC|SHF_MERGE|SHF_STRINGS,1
	0x43037359		.L.str.3
.rodata.str1.1	0x4303737f	0x14	D:\GC_connection\GC_connection\gagent\libgagent.a(nwk_manage.o)	#SHT_PROGBITS,SHF_ALLOC|SHF_MERGE|SHF_STRINGS,1
	0x4303737f		.L__FUNCTION__.gatNwkevtCbRegister
.rodata.str1.1	0x43037393	0x38	D:\GC_connection\GC_connection\gagent\libgagent.a(nwk_manage.o)	#SHT_PROGBITS,SHF_ALLOC|SHF_MERGE|SHF_STRINGS,1
	0x43037393		.L.str.4
.rodata.str1.1	0x430373cb	0x25	D:\GC_connection\GC_connection\gagent\libgagent.a(nwk_manage.o)	#SHT_PROGBITS,SHF_ALLOC|SHF_MERGE|SHF_STRINGS,1
	0x430373cb		.L.str.5
.rodata.str1.1	0x430373f0	0x17	D:\GC_connection\GC_connection\gagent\libgagent.a(nwk_manage.o)	#SHT_PROGBITS,SHF_ALLOC|SHF_MERGE|SHF_STRINGS,1
	0x430373f0		.L.str.6
.rodata.str1.1	0x43037407	0x27	D:\GC_connection\GC_connection\gagent\libgagent.a(nwk_manage.o)	#SHT_PROGBITS,SHF_ALLOC|SHF_MERGE|SHF_STRINGS,1
	0x43037407		.L.str.7
.rodata.str1.1	0x4303742e	0x19	D:\GC_connection\GC_connection\gagent\libgagent.a(nwk_manage.o)	#SHT_PROGBITS,SHF_ALLOC|SHF_MERGE|SHF_STRINGS,1
	0x4303742e		.L.str.8
.rodata.str1.1	0x43037447	0x26	D:\GC_connection\GC_connection\gagent\libgagent.a(nwk_manage.o)	#SHT_PROGBITS,SHF_ALLOC|SHF_MERGE|SHF_STRINGS,1
	0x43037447		.L.str.9
.rodata.str1.1	0x4303746d	0x18	D:\GC_connection\GC_connection\gagent\libgagent.a(nwk_manage.o)	#SHT_PROGBITS,SHF_ALLOC|SHF_MERGE|SHF_STRINGS,1
	0x4303746d		.L.str.10
.rodata.str1.1	0x43037485	0x28	D:\GC_connection\GC_connection\gagent\libgagent.a(nwk_manage.o)	#SHT_PROGBITS,SHF_ALLOC|SHF_MERGE|SHF_STRINGS,1
	0x43037485		.L.str.11
.rodata.str1.1	0x430374ad	0x1a	D:\GC_connection\GC_connection\gagent\libgagent.a(nwk_manage.o)	#SHT_PROGBITS,SHF_ALLOC|SHF_MERGE|SHF_STRINGS,1
	0x430374ad		.L.str.12
.rodata.str1.1	0x430374c7	0x2d	D:\GC_connection\GC_connection\gagent\libgagent.a(nwk_manage.o)	#SHT_PROGBITS,SHF_ALLOC|SHF_MERGE|SHF_STRINGS,1
	0x430374c7		.L.str.13
.rodata.str1.1	0x430374f4	0x1f	D:\GC_connection\GC_connection\gagent\libgagent.a(nwk_manage.o)	#SHT_PROGBITS,SHF_ALLOC|SHF_MERGE|SHF_STRINGS,1
	0x430374f4		.L.str.14
.rodata.str1.1	0x43037513	0x30	D:\GC_connection\GC_connection\gagent\libgagent.a(nwk_manage.o)	#SHT_PROGBITS,SHF_ALLOC|SHF_MERGE|SHF_STRINGS,1
	0x43037513		.L.str.15
.rodata.str1.1	0x43037543	0x22	D:\GC_connection\GC_connection\gagent\libgagent.a(nwk_manage.o)	#SHT_PROGBITS,SHF_ALLOC|SHF_MERGE|SHF_STRINGS,1
	0x43037543		.L.str.16
.rodata.str1.1	0x43037565	0x2c	D:\GC_connection\GC_connection\gagent\libgagent.a(nwk_manage.o)	#SHT_PROGBITS,SHF_ALLOC|SHF_MERGE|SHF_STRINGS,1
	0x43037565		.L.str.17
.rodata.str1.1	0x43037591	0x1f	D:\GC_connection\GC_connection\gagent\libgagent.a(nwk_manage.o)	#SHT_PROGBITS,SHF_ALLOC|SHF_MERGE|SHF_STRINGS,1
	0x43037591		.L.str.18
.rodata.str1.1	0x430375b0	0x2f	D:\GC_connection\GC_connection\gagent\libgagent.a(nwk_manage.o)	#SHT_PROGBITS,SHF_ALLOC|SHF_MERGE|SHF_STRINGS,1
	0x430375b0		.L.str.19
.rodata.str1.1	0x430375df	0x21	D:\GC_connection\GC_connection\gagent\libgagent.a(nwk_manage.o)	#SHT_PROGBITS,SHF_ALLOC|SHF_MERGE|SHF_STRINGS,1
	0x430375df		.L.str.20
.rodata.str1.1	0x43037600	0x2a	D:\GC_connection\GC_connection\gagent\libgagent.a(nwk_manage.o)	#SHT_PROGBITS,SHF_ALLOC|SHF_MERGE|SHF_STRINGS,1
	0x43037600		.L.str.21
.rodata.str1.1	0x4303762a	0x1c	D:\GC_connection\GC_connection\gagent\libgagent.a(nwk_manage.o)	#SHT_PROGBITS,SHF_ALLOC|SHF_MERGE|SHF_STRINGS,1
	0x4303762a		.L.str.22
.rodata.str1.1	0x43037646	0x2d	D:\GC_connection\GC_connection\gagent\libgagent.a(nwk_manage.o)	#SHT_PROGBITS,SHF_ALLOC|SHF_MERGE|SHF_STRINGS,1
	0x43037646		.L.str.23
.rodata.str1.1	0x43037673	0x1f	D:\GC_connection\GC_connection\gagent\libgagent.a(nwk_manage.o)	#SHT_PROGBITS,SHF_ALLOC|SHF_MERGE|SHF_STRINGS,1
	0x43037673		.L.str.24
.rodata.str1.1	0x43037692	0x16	D:\GC_connection\GC_connection\gagent\libgagent.a(nwk_manage.o)	#SHT_PROGBITS,SHF_ALLOC|SHF_MERGE|SHF_STRINGS,1
	0x43037692		.L.str.25
.rodata.str1.1	0x430376a8	0x24	D:\GC_connection\GC_connection\gagent\libgagent.a(nwk_manage.o)	#SHT_PROGBITS,SHF_ALLOC|SHF_MERGE|SHF_STRINGS,1
	0x430376a8		.L.str.26
.rodata.str1.1	0x430376cc	0x18	D:\GC_connection\GC_connection\gagent\libgagent.a(nwk_manage.o)	#SHT_PROGBITS,SHF_ALLOC|SHF_MERGE|SHF_STRINGS,1
	0x430376cc		.L.str.27
.rodata.str1.1	0x430376e4	0x26	D:\GC_connection\GC_connection\gagent\libgagent.a(nwk_manage.o)	#SHT_PROGBITS,SHF_ALLOC|SHF_MERGE|SHF_STRINGS,1
	0x430376e4		.L.str.28
.rodata.str1.1	0x4303770a	0x1b	D:\GC_connection\GC_connection\gagent\libgagent.a(nwk_manage.o)	#SHT_PROGBITS,SHF_ALLOC|SHF_MERGE|SHF_STRINGS,1
	0x4303770a		.L.str.29
.rodata.str1.1	0x43037725	0x2e	D:\GC_connection\GC_connection\gagent\libgagent.a(nwk_manage.o)	#SHT_PROGBITS,SHF_ALLOC|SHF_MERGE|SHF_STRINGS,1
	0x43037725		.L.str.30
.rodata.str1.1	0x43037753	0x1d	D:\GC_connection\GC_connection\gagent\libgagent.a(nwk_manage.o)	#SHT_PROGBITS,SHF_ALLOC|SHF_MERGE|SHF_STRINGS,1
	0x43037753		.L.str.31
.rodata.str1.1	0x43037770	0x2b	D:\GC_connection\GC_connection\gagent\libgagent.a(nwk_manage.o)	#SHT_PROGBITS,SHF_ALLOC|SHF_MERGE|SHF_STRINGS,1
	0x43037770		.L.str.32
.rodata.str1.1	0x4303779b	0x17	D:\GC_connection\GC_connection\gagent\libgagent.a(nwk_manage.o)	#SHT_PROGBITS,SHF_ALLOC|SHF_MERGE|SHF_STRINGS,1
	0x4303779b		.L.str.33
.rodata.str1.1	0x430377b2	0x1d	D:\GC_connection\GC_connection\gagent\libgagent.a(nwk_manage.o)	#SHT_PROGBITS,SHF_ALLOC|SHF_MERGE|SHF_STRINGS,1
	0x430377b2		.L.str.34
.rodata.str1.1	0x430377cf	0x15	D:\GC_connection\GC_connection\gagent\libgagent.a(nwk_manage.o)	#SHT_PROGBITS,SHF_ALLOC|SHF_MERGE|SHF_STRINGS,1
	0x430377cf		.L.str.35
.rodata.str1.1	0x430377e4	0x22	D:\GC_connection\GC_connection\gagent\libgagent.a(nwk_manage.o)	#SHT_PROGBITS,SHF_ALLOC|SHF_MERGE|SHF_STRINGS,1
	0x430377e4		.L.str.36
.rodata.str1.1	0x43037806	0x17	D:\GC_connection\GC_connection\gagent\libgagent.a(nwk_manage.o)	#SHT_PROGBITS,SHF_ALLOC|SHF_MERGE|SHF_STRINGS,1
	0x43037806		.L.str.37
.rodata.str1.1	0x4303781d	0x24	D:\GC_connection\GC_connection\gagent\libgagent.a(nwk_manage.o)	#SHT_PROGBITS,SHF_ALLOC|SHF_MERGE|SHF_STRINGS,1
	0x4303781d		.L.str.38
.rodata.str1.1	0x43037841	0x1e	D:\GC_connection\GC_connection\gagent\libgagent.a(nwk_manage.o)	#SHT_PROGBITS,SHF_ALLOC|SHF_MERGE|SHF_STRINGS,1
	0x43037841		.L.str.39
.rodata.str1.1	0x4303785f	0xf	D:\GC_connection\GC_connection\gagent\libgagent.a(nwk_manage.o)	#SHT_PROGBITS,SHF_ALLOC|SHF_MERGE|SHF_STRINGS,1
	0x4303785f		.L__FUNCTION__.gatSetNwkEvent
.rodata.str1.1	0x4303786e	0x24	D:\GC_connection\GC_connection\gagent\libgagent.a(nwk_manage.o)	#SHT_PROGBITS,SHF_ALLOC|SHF_MERGE|SHF_STRINGS,1
	0x4303786e		.L.str.40
.rodata.str1.1	0x43037892	0x1e	D:\GC_connection\GC_connection\gagent\libgagent.a(nwk_manage.o)	#SHT_PROGBITS,SHF_ALLOC|SHF_MERGE|SHF_STRINGS,1
	0x43037892		.L.str.41
.rodata.str1.1	0x430378b0	0x12	D:\GC_connection\GC_connection\gagent\libgagent.a(nwk_manage.o)	#SHT_PROGBITS,SHF_ALLOC|SHF_MERGE|SHF_STRINGS,1
	0x430378b0		.L__FUNCTION__.gatNwkEventHandle
.rodata.str1.1	0x430378c2	0x32	D:\GC_connection\GC_connection\gagent\libgagent.a(nwk_manage.o)	#SHT_PROGBITS,SHF_ALLOC|SHF_MERGE|SHF_STRINGS,1
	0x430378c2		.L.str.42
.rodata.str1.1	0x430378f4	0x37	D:\GC_connection\GC_connection\gagent\libgagent.a(productinfo.o)	#SHT_PROGBITS,SHF_ALLOC|SHF_MERGE|SHF_STRINGS,1
	0x430378f4		.L.str.2
.rodata.str1.1	0x4303792b	0x1c	D:\GC_connection\GC_connection\gagent\libgagent.a(productinfo.o)	#SHT_PROGBITS,SHF_ALLOC|SHF_MERGE|SHF_STRINGS,1
	0x4303792b		.L__FUNCTION__.gatProductInfoUpdateFromEnv
.rodata.str1.1	0x43037947	0x19	D:\GC_connection\GC_connection\gagent\libgagent.a(productinfo.o)	#SHT_PROGBITS,SHF_ALLOC|SHF_MERGE|SHF_STRINGS,1
	0x43037947		.L.str.3
.rodata.str1.1	0x43037960	0x1f	D:\GC_connection\GC_connection\gagent\libgagent.a(productinfo.o)	#SHT_PROGBITS,SHF_ALLOC|SHF_MERGE|SHF_STRINGS,1
	0x43037960		.L.str.4
.rodata.str1.1	0x4303797f	0x22	D:\GC_connection\GC_connection\gagent\libgagent.a(productinfo.o)	#SHT_PROGBITS,SHF_ALLOC|SHF_MERGE|SHF_STRINGS,1
	0x4303797f		.L.str.5
.rodata.str1.1	0x430379a1	0x46	D:\GC_connection\GC_connection\gagent\libgagent.a(productinfo.o)	#SHT_PROGBITS,SHF_ALLOC|SHF_MERGE|SHF_STRINGS,1
	0x430379a1		.L.str.6
.rodata.str1.1	0x430379e7	0x15	D:\GC_connection\GC_connection\gagent\libgagent.a(productinfo.o)	#SHT_PROGBITS,SHF_ALLOC|SHF_MERGE|SHF_STRINGS,1
	0x430379e7		.L.str.7
.rodata.str1.1	0x430379fc	0x25	D:\GC_connection\GC_connection\gagent\libgagent.a(productinfo.o)	#SHT_PROGBITS,SHF_ALLOC|SHF_MERGE|SHF_STRINGS,1
	0x430379fc		.L.str.10
.rodata.str1.1	0x43037a21	0x31	D:\GC_connection\GC_connection\gagent\libgagent.a(productinfo.o)	#SHT_PROGBITS,SHF_ALLOC|SHF_MERGE|SHF_STRINGS,1
	0x43037a21		.L.str.11
.rodata.str1.1	0x43037a52	0x2f	D:\GC_connection\GC_connection\gagent\libgagent.a(productinfo.o)	#SHT_PROGBITS,SHF_ALLOC|SHF_MERGE|SHF_STRINGS,1
	0x43037a52		.L.str.12
.rodata.str1.1	0x43037a81	0x3	D:\GC_connection\GC_connection\gagent\libgagent.a(productinfo.o)	#SHT_PROGBITS,SHF_ALLOC|SHF_MERGE|SHF_STRINGS,1
	0x43037a81		.L.str.13
.rodata.str1.1	0x43037a84	0x2f	D:\GC_connection\GC_connection\gagent\libgagent.a(productinfo.o)	#SHT_PROGBITS,SHF_ALLOC|SHF_MERGE|SHF_STRINGS,1
	0x43037a84		.L.str.14
.rodata.str1.1	0x43037ab3	0x22	D:\GC_connection\GC_connection\gagent\libgagent.a(productinfo.o)	#SHT_PROGBITS,SHF_ALLOC|SHF_MERGE|SHF_STRINGS,1
	0x43037ab3		.L.str.15
.rodata.str1.1	0x43037ad5	0x40	D:\GC_connection\GC_connection\gagent\libgagent.a(productinfo.o)	#SHT_PROGBITS,SHF_ALLOC|SHF_MERGE|SHF_STRINGS,1
	0x43037ad5		.L.str.16
.rodata.str1.1	0x43037b15	0x40	D:\GC_connection\GC_connection\gagent\libgagent.a(productinfo.o)	#SHT_PROGBITS,SHF_ALLOC|SHF_MERGE|SHF_STRINGS,1
	0x43037b15		.L.str.17
.rodata.str1.1	0x43037b55	0xf	D:\GC_connection\GC_connection\gagent\libgagent.a(productinfo.o)	#SHT_PROGBITS,SHF_ALLOC|SHF_MERGE|SHF_STRINGS,1
	0x43037b55		.L__FUNCTION__.gatDumpEnvInfo
.rodata.str1.1	0x43037b64	0x1d	D:\GC_connection\GC_connection\gagent\libgagent.a(productinfo.o)	#SHT_PROGBITS,SHF_ALLOC|SHF_MERGE|SHF_STRINGS,1
	0x43037b64		.L.str.18
.rodata.str1.1	0x43037b81	0x17	D:\GC_connection\GC_connection\gagent\libgagent.a(productinfo.o)	#SHT_PROGBITS,SHF_ALLOC|SHF_MERGE|SHF_STRINGS,1
	0x43037b81		.L.str.19
.rodata.str1.1	0x43037b98	0xd	D:\GC_connection\GC_connection\gagent\libgagent.a(productinfo.o)	#SHT_PROGBITS,SHF_ALLOC|SHF_MERGE|SHF_STRINGS,1
	0x43037b98		.L.str.20
.rodata.str1.1	0x43037ba5	0x1e	D:\GC_connection\GC_connection\gagent\libgagent.a(productinfo.o)	#SHT_PROGBITS,SHF_ALLOC|SHF_MERGE|SHF_STRINGS,1
	0x43037ba5		.L.str.21
.rodata.str1.1	0x43037bc3	0x9	D:\GC_connection\GC_connection\gagent\libgagent.a(productinfo.o)	#SHT_PROGBITS,SHF_ALLOC|SHF_MERGE|SHF_STRINGS,1
	0x43037bc3		.L.str.25
.rodata.str1.1	0x43037bcc	0x1f	D:\GC_connection\GC_connection\gagent\libgagent.a(productinfo.o)	#SHT_PROGBITS,SHF_ALLOC|SHF_MERGE|SHF_STRINGS,1
	0x43037bcc		.L.str.26
.rodata.str1.1	0x43037beb	0x2c	D:\GC_connection\GC_connection\gagent\libgagent.a(productinfo.o)	#SHT_PROGBITS,SHF_ALLOC|SHF_MERGE|SHF_STRINGS,1
	0x43037beb		.L.str.27
.rodata.str1.1	0x43037c17	0x2c	D:\GC_connection\GC_connection\gagent\libgagent.a(productinfo.o)	#SHT_PROGBITS,SHF_ALLOC|SHF_MERGE|SHF_STRINGS,1
	0x43037c17		.L.str.29
.rodata.str1.1	0x43037c43	0x2c	D:\GC_connection\GC_connection\gagent\libgagent.a(productinfo.o)	#SHT_PROGBITS,SHF_ALLOC|SHF_MERGE|SHF_STRINGS,1
	0x43037c43		.L.str.30
.rodata.str1.1	0x43037c6f	0x2c	D:\GC_connection\GC_connection\gagent\libgagent.a(productinfo.o)	#SHT_PROGBITS,SHF_ALLOC|SHF_MERGE|SHF_STRINGS,1
	0x43037c6f		.L.str.31
.rodata.str1.1	0x43037c9b	0x2c	D:\GC_connection\GC_connection\gagent\libgagent.a(productinfo.o)	#SHT_PROGBITS,SHF_ALLOC|SHF_MERGE|SHF_STRINGS,1
	0x43037c9b		.L.str.32
.rodata.str1.1	0x43037cc7	0x2c	D:\GC_connection\GC_connection\gagent\libgagent.a(productinfo.o)	#SHT_PROGBITS,SHF_ALLOC|SHF_MERGE|SHF_STRINGS,1
	0x43037cc7		.L.str.33
.rodata.str1.1	0x43037cf3	0x2c	D:\GC_connection\GC_connection\gagent\libgagent.a(productinfo.o)	#SHT_PROGBITS,SHF_ALLOC|SHF_MERGE|SHF_STRINGS,1
	0x43037cf3		.L.str.34
.rodata.str1.1	0x43037d1f	0x2c	D:\GC_connection\GC_connection\gagent\libgagent.a(productinfo.o)	#SHT_PROGBITS,SHF_ALLOC|SHF_MERGE|SHF_STRINGS,1
	0x43037d1f		.L.str.35
.rodata.str1.1	0x43037d4b	0x2f	D:\GC_connection\GC_connection\gagent\libgagent.a(productinfo.o)	#SHT_PROGBITS,SHF_ALLOC|SHF_MERGE|SHF_STRINGS,1
	0x43037d4b		.L.str.36
.rodata.str1.1	0x43037d7a	0x1f	D:\GC_connection\GC_connection\gagent\libgagent.a(productinfo.o)	#SHT_PROGBITS,SHF_ALLOC|SHF_MERGE|SHF_STRINGS,1
	0x43037d7a		.L.str.37
.rodata.str1.1	0x43037d99	0x2c	D:\GC_connection\GC_connection\gagent\libgagent.a(productinfo.o)	#SHT_PROGBITS,SHF_ALLOC|SHF_MERGE|SHF_STRINGS,1
	0x43037d99		.L.str.38
.rodata.str1.1	0x43037dc5	0x2c	D:\GC_connection\GC_connection\gagent\libgagent.a(productinfo.o)	#SHT_PROGBITS,SHF_ALLOC|SHF_MERGE|SHF_STRINGS,1
	0x43037dc5		.L.str.39
.rodata.str1.1	0x43037df1	0x2c	D:\GC_connection\GC_connection\gagent\libgagent.a(productinfo.o)	#SHT_PROGBITS,SHF_ALLOC|SHF_MERGE|SHF_STRINGS,1
	0x43037df1		.L.str.40
.rodata.str1.1	0x43037e1d	0x2c	D:\GC_connection\GC_connection\gagent\libgagent.a(productinfo.o)	#SHT_PROGBITS,SHF_ALLOC|SHF_MERGE|SHF_STRINGS,1
	0x43037e1d		.L.str.41
.rodata.str1.1	0x43037e49	0x2c	D:\GC_connection\GC_connection\gagent\libgagent.a(productinfo.o)	#SHT_PROGBITS,SHF_ALLOC|SHF_MERGE|SHF_STRINGS,1
	0x43037e49		.L.str.42
.rodata.str1.1	0x43037e75	0x2c	D:\GC_connection\GC_connection\gagent\libgagent.a(productinfo.o)	#SHT_PROGBITS,SHF_ALLOC|SHF_MERGE|SHF_STRINGS,1
	0x43037e75		.L.str.43
.rodata.str1.1	0x43037ea1	0x2c	D:\GC_connection\GC_connection\gagent\libgagent.a(productinfo.o)	#SHT_PROGBITS,SHF_ALLOC|SHF_MERGE|SHF_STRINGS,1
	0x43037ea1		.L.str.44
.rodata.str1.1	0x43037ecd	0x2c	D:\GC_connection\GC_connection\gagent\libgagent.a(productinfo.o)	#SHT_PROGBITS,SHF_ALLOC|SHF_MERGE|SHF_STRINGS,1
	0x43037ecd		.L.str.45
.rodata.str1.1	0x43037ef9	0x2c	D:\GC_connection\GC_connection\gagent\libgagent.a(productinfo.o)	#SHT_PROGBITS,SHF_ALLOC|SHF_MERGE|SHF_STRINGS,1
	0x43037ef9		.L.str.46
.rodata.str1.1	0x43037f25	0x2c	D:\GC_connection\GC_connection\gagent\libgagent.a(productinfo.o)	#SHT_PROGBITS,SHF_ALLOC|SHF_MERGE|SHF_STRINGS,1
	0x43037f25		.L.str.47
.rodata.str1.1	0x43037f51	0x2c	D:\GC_connection\GC_connection\gagent\libgagent.a(productinfo.o)	#SHT_PROGBITS,SHF_ALLOC|SHF_MERGE|SHF_STRINGS,1
	0x43037f51		.L.str.48
.rodata.str1.1	0x43037f7d	0x12	D:\GC_connection\GC_connection\gagent\libgagent.a(productinfo.o)	#SHT_PROGBITS,SHF_ALLOC|SHF_MERGE|SHF_STRINGS,1
	0x43037f7d		.L__FUNCTION__.gatProductInfoGet
.rodata.str1.1	0x43037f8f	0x18	D:\GC_connection\GC_connection\gagent\libgagent.a(productinfo.o)	#SHT_PROGBITS,SHF_ALLOC|SHF_MERGE|SHF_STRINGS,1
	0x43037f8f		.L__FUNCTION__.gatProductConfiInfoSave
.rodata.str1.1	0x43037fa7	0x14	D:\GC_connection\GC_connection\gagent\libgagent.a(productinfo.o)	#SHT_PROGBITS,SHF_ALLOC|SHF_MERGE|SHF_STRINGS,1
	0x43037fa7		.L.str.49
.rodata.str1.1	0x43037fbb	0x1c	D:\GC_connection\GC_connection\gagent\libgagent.a(productinfo.o)	#SHT_PROGBITS,SHF_ALLOC|SHF_MERGE|SHF_STRINGS,1
	0x43037fbb		.L.str.50
.rodata.str1.1	0x43037fd7	0x14	D:\GC_connection\GC_connection\gagent\libgagent.a(productinfo.o)	#SHT_PROGBITS,SHF_ALLOC|SHF_MERGE|SHF_STRINGS,1
	0x43037fd7		.L__FUNCTION__.gatCreatNewPassCode
.rodata.str1.1	0x43037feb	0x15	D:\GC_connection\GC_connection\gagent\libgagent.a(productinfo.o)	#SHT_PROGBITS,SHF_ALLOC|SHF_MERGE|SHF_STRINGS,1
	0x43037feb		.L.str.51
.rodata.str1.1	0x43038000	0x13	D:\GC_connection\GC_connection\gagent\libgagent.a(productinfo.o)	#SHT_PROGBITS,SHF_ALLOC|SHF_MERGE|SHF_STRINGS,1
	0x43038000		.L__FUNCTION__.gatProductInfoInit
.rodata.str1.1	0x43038013	0x2d	D:\GC_connection\GC_connection\gagent\libgagent.a(productinfo.o)	#SHT_PROGBITS,SHF_ALLOC|SHF_MERGE|SHF_STRINGS,1
	0x43038013		.L.str.52
.rodata.str1.1	0x43038040	0x11	D:\GC_connection\GC_connection\gagent\libgagent.a(productinfo.o)	#SHT_PROGBITS,SHF_ALLOC|SHF_MERGE|SHF_STRINGS,1
	0x43038040		.L.str.53
.rodata.str1.1	0x43038051	0x1b	D:\GC_connection\GC_connection\gagent\libgagent.a(productinfo.o)	#SHT_PROGBITS,SHF_ALLOC|SHF_MERGE|SHF_STRINGS,1
	0x43038051		.L__FUNCTION__.gatProductInfoSetGServerIp
.rodata.str1.1	0x4303806c	0x11	D:\GC_connection\GC_connection\gagent\libgagent.a(productinfo.o)	#SHT_PROGBITS,SHF_ALLOC|SHF_MERGE|SHF_STRINGS,1
	0x4303806c		.L.str.54
.rodata.str1.1	0x4303807d	0x12	D:\GC_connection\GC_connection\gagent\libgagent.a(productinfo.o)	#SHT_PROGBITS,SHF_ALLOC|SHF_MERGE|SHF_STRINGS,1
	0x4303807d		.L__FUNCTION__.gatTimeZoneSecSet
.rodata.str1.1	0x4303808f	0xe	D:\GC_connection\GC_connection\gagent\libgagent.a(productinfo.o)	#SHT_PROGBITS,SHF_ALLOC|SHF_MERGE|SHF_STRINGS,1
	0x4303808f		.L__FUNCTION__.gatGprsApnSet
.rodata.str1.1	0x4303809d	0x5	D:\GC_connection\GC_connection\gagent\libgagent.a(productinfo.o)	#SHT_PROGBITS,SHF_ALLOC|SHF_MERGE|SHF_STRINGS,1
	0x4303809d		.L.str.56
.rodata.str1.1	0x430380a2	0x11	D:\GC_connection\GC_connection\gagent\libgagent.a(productinfo.o)	#SHT_PROGBITS,SHF_ALLOC|SHF_MERGE|SHF_STRINGS,1
	0x430380a2		.L__FUNCTION__.gatConfigFlagSet
.rodata.str1.1	0x430380b3	0x11	D:\GC_connection\GC_connection\gagent\libgagent.a(productinfo.o)	#SHT_PROGBITS,SHF_ALLOC|SHF_MERGE|SHF_STRINGS,1
	0x430380b3		.L.str.57
.rodata.str1.1	0x430380c4	0x14	D:\GC_connection\GC_connection\gagent\libgagent.a(productinfo.o)	#SHT_PROGBITS,SHF_ALLOC|SHF_MERGE|SHF_STRINGS,1
	0x430380c4		.L__FUNCTION__.gatSaveRebootReason
.rodata.str1.1	0x430380d8	0x2c	D:\GC_connection\GC_connection\gagent\libgagent.a(productinfo.o)	#SHT_PROGBITS,SHF_ALLOC|SHF_MERGE|SHF_STRINGS,1
	0x430380d8		.L.str.63
.rodata.str1.1	0x43038104	0x14	D:\GC_connection\GC_connection\gagent\libgagent.a(productinfo.o)	#SHT_PROGBITS,SHF_ALLOC|SHF_MERGE|SHF_STRINGS,1
	0x43038104		.L.str.76
.rodata.str1.1	0x43038118	0x19	D:\GC_connection\GC_connection\gagent\libgagent.a(productinfo.o)	#SHT_PROGBITS,SHF_ALLOC|SHF_MERGE|SHF_STRINGS,1
	0x43038118		.L__FUNCTION__.gatProductDefaultInfoSet
.rodata.str1.1	0x43038131	0x24	D:\GC_connection\GC_connection\gagent\libgagent.a(productinfo.o)	#SHT_PROGBITS,SHF_ALLOC|SHF_MERGE|SHF_STRINGS,1
	0x43038131		.L.str.78
.rodata.str1.1	0x43038155	0x20	D:\GC_connection\GC_connection\gagent\libgagent.a(productinfo.o)	#SHT_PROGBITS,SHF_ALLOC|SHF_MERGE|SHF_STRINGS,1
	0x43038155		.L.str.79
.rodata.str1.1	0x43038175	0x27	D:\GC_connection\GC_connection\gagent\libgagent.a(productinfo.o)	#SHT_PROGBITS,SHF_ALLOC|SHF_MERGE|SHF_STRINGS,1
	0x43038175		.L.str.80
.rodata.str1.1	0x4303819c	0x23	D:\GC_connection\GC_connection\gagent\libgagent.a(productinfo.o)	#SHT_PROGBITS,SHF_ALLOC|SHF_MERGE|SHF_STRINGS,1
	0x4303819c		.L.str.81
.rodata.str1.1	0x430381bf	0x1c	D:\GC_connection\GC_connection\gagent\libgagent.a(productinfo.o)	#SHT_PROGBITS,SHF_ALLOC|SHF_MERGE|SHF_STRINGS,1
	0x430381bf		.L.str.82
.rodata.str1.1	0x430381db	0x21	D:\GC_connection\GC_connection\gagent\libgagent.a(productinfo.o)	#SHT_PROGBITS,SHF_ALLOC|SHF_MERGE|SHF_STRINGS,1
	0x430381db		.L.str.83
.rodata.str1.1	0x430381fc	0x18	D:\GC_connection\GC_connection\gagent\libgagent.a(productinfo.o)	#SHT_PROGBITS,SHF_ALLOC|SHF_MERGE|SHF_STRINGS,1
	0x430381fc		.L.str.84
.rodata.str1.1	0x43038214	0x17	D:\GC_connection\GC_connection\gagent\libgagent.a(productinfo.o)	#SHT_PROGBITS,SHF_ALLOC|SHF_MERGE|SHF_STRINGS,1
	0x43038214		.L__FUNCTION__.gatConfigInfoSaveToEnv
.rodata.str1.1	0x4303822b	0x1b	D:\GC_connection\GC_connection\gagent\libgagent.a(productinfo.o)	#SHT_PROGBITS,SHF_ALLOC|SHF_MERGE|SHF_STRINGS,1
	0x4303822b		.L.str.85
.rodata.str1.1	0x43038246	0x7	D:\GC_connection\GC_connection\gagent\libgagent.a(productinfo.o)	#SHT_PROGBITS,SHF_ALLOC|SHF_MERGE|SHF_STRINGS,1
	0x43038246		.L.str.86
.rodata.str1.1	0x4303824d	0x1e	D:\GC_connection\GC_connection\gagent\libgagent.a(productinfo.o)	#SHT_PROGBITS,SHF_ALLOC|SHF_MERGE|SHF_STRINGS,1
	0x4303824d		.L.str.87
PADDING_ALIGNMENT	0x4303826b	0x5	0x0
.rodata.str1.8	0x43038270	0x40	D:\GC_connection\GC_connection\gagent\libgagent.a(productinfo.o)	#SHT_PROGBITS,SHF_ALLOC|SHF_MERGE|SHF_STRINGS,8
	0x43038270		.L.str.58
	0x43038280		.L.str.59
	0x43038290		.L.str.60
	0x430382a0		.L.str.61
.rodata.str1.1	0x430382b0	0x25	D:\GC_connection\GC_connection\gagent\libgagent.a(qlog.o)	#SHT_PROGBITS,SHF_ALLOC|SHF_MERGE|SHF_STRINGS,1
	0x430382b0		.L.str
.rodata.str1.1	0x430382d5	0x3	D:\GC_connection\GC_connection\gagent\libgagent.a(qlog.o)	#SHT_PROGBITS,SHF_ALLOC|SHF_MERGE|SHF_STRINGS,1
	0x430382d5		.L.str.1
.rodata.str1.1	0x430382d8	0x46	D:\GC_connection\GC_connection\gagent\libgagent.a(qlog.o)	#SHT_PROGBITS,SHF_ALLOC|SHF_MERGE|SHF_STRINGS,1
	0x430382d8		.L.str.2
.rodata.str1.1	0x4303831e	0x22	D:\GC_connection\GC_connection\gagent\libgagent.a(qlog.o)	#SHT_PROGBITS,SHF_ALLOC|SHF_MERGE|SHF_STRINGS,1
	0x4303831e		.L.str.3
.rodata.str1.1	0x43038340	0x26	D:\GC_connection\GC_connection\gagent\libgagent.a(qlog.o)	#SHT_PROGBITS,SHF_ALLOC|SHF_MERGE|SHF_STRINGS,1
	0x43038340		.L.str.4
.rodata.str1.1	0x43038366	0x26	D:\GC_connection\GC_connection\gagent\libgagent.a(qlog.o)	#SHT_PROGBITS,SHF_ALLOC|SHF_MERGE|SHF_STRINGS,1
	0x43038366		.L.str.6
.rodata.str1.1	0x4303838c	0x38	D:\GC_connection\GC_connection\gagent\libgagent.a(qlog.o)	#SHT_PROGBITS,SHF_ALLOC|SHF_MERGE|SHF_STRINGS,1
	0x4303838c		.L.str.8
.rodata.str1.1	0x430383c4	0x1d	D:\GC_connection\GC_connection\gagent\libgagent.a(qlog.o)	#SHT_PROGBITS,SHF_ALLOC|SHF_MERGE|SHF_STRINGS,1
	0x430383c4		.L.str.9
.rodata.str1.1	0x430383e1	0x1a	D:\GC_connection\GC_connection\gagent\libgagent.a(qlog.o)	#SHT_PROGBITS,SHF_ALLOC|SHF_MERGE|SHF_STRINGS,1
	0x430383e1		.L.str.10
PADDING_ALIGNMENT	0x430383fb	0x1	0x0
.rodata	0x430383fc	0x70	D:\GC_connection\GC_connection\gagent\libgagent.a(qlog.o)	#SHT_PROGBITS,SHF_ALLOC,4
	0x430383fc		uart_recv.xx_msg_const
	0x4303840c		uart_init.xx_msg_const
	0x4303841c		uart_init.xx_msg_const.5
	0x4303842c		uart_print.xx_msg_const
	0x4303843c		format_log_msg.xx_msg_const
	0x4303844c		uart_rx_cb.xx_msg_const
	0x4303845c		uart_tx_cb.xx_msg_const
.rodata.str1.1	0x4303846c	0xb	D:\GC_connection\GC_connection\gagent\libgagent.a(semaph.o)	#SHT_PROGBITS,SHF_ALLOC|SHF_MERGE|SHF_STRINGS,1
	0x4303846c		.L__FUNCTION__.iofSemInit
.rodata.str1.1	0x43038477	0x2b	D:\GC_connection\GC_connection\gagent\libgagent.a(semaph.o)	#SHT_PROGBITS,SHF_ALLOC|SHF_MERGE|SHF_STRINGS,1
	0x43038477		.L.str.2
.rodata.str1.1	0x430384a2	0x4	D:\GC_connection\GC_connection\gagent\libgagent.a(semaph.o)	#SHT_PROGBITS,SHF_ALLOC|SHF_MERGE|SHF_STRINGS,1
	0x430384a2		.L.str.3
.rodata.str1.1	0x430384a6	0x28	D:\GC_connection\GC_connection\gagent\libgagent.a(semaph.o)	#SHT_PROGBITS,SHF_ALLOC|SHF_MERGE|SHF_STRINGS,1
	0x430384a6		.L.str.4
.rodata.str1.1	0x430384ce	0x20	D:\GC_connection\GC_connection\gagent\libgagent.a(semaph.o)	#SHT_PROGBITS,SHF_ALLOC|SHF_MERGE|SHF_STRINGS,1
	0x430384ce		.L.str.5
.rodata.str1.1	0x430384ee	0x1a	D:\GC_connection\GC_connection\gagent\libgagent.a(semaph.o)	#SHT_PROGBITS,SHF_ALLOC|SHF_MERGE|SHF_STRINGS,1
	0x430384ee		.L.str.6
.rodata.str1.1	0x43038508	0x12	D:\GC_connection\GC_connection\gagent\libgagent.a(semaph.o)	#SHT_PROGBITS,SHF_ALLOC|SHF_MERGE|SHF_STRINGS,1
	0x43038508		.L.str.7
.rodata.str1.1	0x4303851a	0x18	D:\GC_connection\GC_connection\gagent\libgagent.a(semaph.o)	#SHT_PROGBITS,SHF_ALLOC|SHF_MERGE|SHF_STRINGS,1
	0x4303851a		.L.str.9
.rodata.str1.1	0x43038532	0x18	D:\GC_connection\GC_connection\gagent\libgagent.a(semaph.o)	#SHT_PROGBITS,SHF_ALLOC|SHF_MERGE|SHF_STRINGS,1
	0x43038532		.L.str.10
.rodata.str1.1	0x4303854a	0x13	D:\GC_connection\GC_connection\gagent\libgagent.a(simulatorcomm.o)	#SHT_PROGBITS,SHF_ALLOC|SHF_MERGE|SHF_STRINGS,1
	0x4303854a		.L.str.2
.rodata.str1.1	0x4303855d	0x1d	D:\GC_connection\GC_connection\gagent\libgagent.a(simulatorcomm.o)	#SHT_PROGBITS,SHF_ALLOC|SHF_MERGE|SHF_STRINGS,1
	0x4303855d		.L__FUNCTION__.simulatorUploadDtatTimeOutCb
.rodata.str1.1	0x4303857a	0x28	D:\GC_connection\GC_connection\gagent\libgagent.a(simulatorcomm.o)	#SHT_PROGBITS,SHF_ALLOC|SHF_MERGE|SHF_STRINGS,1
	0x4303857a		.L.str.3
.rodata.str1.1	0x430385a2	0x14	D:\GC_connection\GC_connection\gagent\libgagent.a(simulatorcomm.o)	#SHT_PROGBITS,SHF_ALLOC|SHF_MERGE|SHF_STRINGS,1
	0x430385a2		.L.str.4
.rodata.str1.1	0x430385b6	0x11	D:\GC_connection\GC_connection\gagent\libgagent.a(simulatorcomm.o)	#SHT_PROGBITS,SHF_ALLOC|SHF_MERGE|SHF_STRINGS,1
	0x430385b6		.L__FUNCTION__.gagentUploadData
.rodata.str1.1	0x430385c7	0x20	D:\GC_connection\GC_connection\gagent\libgagent.a(simulatorcomm.o)	#SHT_PROGBITS,SHF_ALLOC|SHF_MERGE|SHF_STRINGS,1
	0x430385c7		.L.str.5
.rodata.str1.1	0x430385e7	0x1d	D:\GC_connection\GC_connection\gagent\libgagent.a(simulatorcomm.o)	#SHT_PROGBITS,SHF_ALLOC|SHF_MERGE|SHF_STRINGS,1
	0x430385e7		.L.str.10
.rodata.str1.1	0x43038604	0x1e	D:\GC_connection\GC_connection\gagent\libgagent.a(simulatorcomm.o)	#SHT_PROGBITS,SHF_ALLOC|SHF_MERGE|SHF_STRINGS,1
	0x43038604		.L.str.11
.rodata.str1.1	0x43038622	0x1d	D:\GC_connection\GC_connection\gagent\libgagent.a(simulatorcomm.o)	#SHT_PROGBITS,SHF_ALLOC|SHF_MERGE|SHF_STRINGS,1
	0x43038622		.L.str.12
.rodata.str1.1	0x4303863f	0x3b	D:\GC_connection\GC_connection\gagent\libgagent.a(simulatorcomm.o)	#SHT_PROGBITS,SHF_ALLOC|SHF_MERGE|SHF_STRINGS,1
	0x4303863f		.L.str.13
.rodata.str1.1	0x4303867a	0x2b	D:\GC_connection\GC_connection\gagent\libgagent.a(simulatorcomm.o)	#SHT_PROGBITS,SHF_ALLOC|SHF_MERGE|SHF_STRINGS,1
	0x4303867a		.L.str.14
.rodata.str1.1	0x430386a5	0x23	D:\GC_connection\GC_connection\gagent\libgagent.a(simulatorcomm.o)	#SHT_PROGBITS,SHF_ALLOC|SHF_MERGE|SHF_STRINGS,1
	0x430386a5		.L.str.15
.rodata.str1.1	0x430386c8	0x3a	D:\GC_connection\GC_connection\gagent\libgagent.a(simulatorcomm.o)	#SHT_PROGBITS,SHF_ALLOC|SHF_MERGE|SHF_STRINGS,1
	0x430386c8		.L.str.16
.rodata.str1.1	0x43038702	0xb	D:\GC_connection\GC_connection\gagent\libgagent.a(simulatorcomm.o)	#SHT_PROGBITS,SHF_ALLOC|SHF_MERGE|SHF_STRINGS,1
	0x43038702		.L.str.17
.rodata.str1.1	0x4303870d	0x28	D:\GC_connection\GC_connection\gagent\libgagent.a(simulatorcomm.o)	#SHT_PROGBITS,SHF_ALLOC|SHF_MERGE|SHF_STRINGS,1
	0x4303870d		.L.str.18
.rodata.str1.1	0x43038735	0x57	D:\GC_connection\GC_connection\gagent\libgagent.a(simulatorcomm.o)	#SHT_PROGBITS,SHF_ALLOC|SHF_MERGE|SHF_STRINGS,1
	0x43038735		.L.str.21
.rodata.str1.1	0x4303878c	0x3a	D:\GC_connection\GC_connection\gagent\libgagent.a(simulatorcomm.o)	#SHT_PROGBITS,SHF_ALLOC|SHF_MERGE|SHF_STRINGS,1
	0x4303878c		.L.str.22
.rodata.str1.1	0x430387c6	0x15	D:\GC_connection\GC_connection\gagent\libgagent.a(simulatorcomm.o)	#SHT_PROGBITS,SHF_ALLOC|SHF_MERGE|SHF_STRINGS,1
	0x430387c6		.L.str.23
.rodata.str1.1	0x430387db	0x19	D:\GC_connection\GC_connection\gagent\libgagent.a(simulatorcomm.o)	#SHT_PROGBITS,SHF_ALLOC|SHF_MERGE|SHF_STRINGS,1
	0x430387db		.L.str.24
.rodata.str1.1	0x430387f4	0x18	D:\GC_connection\GC_connection\gagent\libgagent.a(simulatorcomm.o)	#SHT_PROGBITS,SHF_ALLOC|SHF_MERGE|SHF_STRINGS,1
	0x430387f4		.L.str.25
.rodata.str1.1	0x4303880c	0x34	D:\GC_connection\GC_connection\gagent\libgagent.a(simulatorcomm.o)	#SHT_PROGBITS,SHF_ALLOC|SHF_MERGE|SHF_STRINGS,1
	0x4303880c		.L.str.26
.rodata.str1.1	0x43038840	0x1e	D:\GC_connection\GC_connection\gagent\libgagent.a(simulatorcomm.o)	#SHT_PROGBITS,SHF_ALLOC|SHF_MERGE|SHF_STRINGS,1
	0x43038840		.L.str.27
.rodata.str1.1	0x4303885e	0xe	D:\GC_connection\GC_connection\gagent\libgagent.a(simulatorcomm.o)	#SHT_PROGBITS,SHF_ALLOC|SHF_MERGE|SHF_STRINGS,1
	0x4303885e		.L__FUNCTION__.gizWiFiStatus
.rodata.str1.1	0x4303886c	0x16	D:\GC_connection\GC_connection\gagent\libgagent.a(simulatorcomm.o)	#SHT_PROGBITS,SHF_ALLOC|SHF_MERGE|SHF_STRINGS,1
	0x4303886c		.L__FUNCTION__.simulatorUploadDtatCb
.rodata.str1.1	0x43038882	0x31	D:\GC_connection\GC_connection\gagent\libgagent.a(simulatorcomm.o)	#SHT_PROGBITS,SHF_ALLOC|SHF_MERGE|SHF_STRINGS,1
	0x43038882		.L.str.28
.rodata.str1.1	0x430388b3	0x1b	D:\GC_connection\GC_connection\gagent\libgagent.a(simulatorcomm.o)	#SHT_PROGBITS,SHF_ALLOC|SHF_MERGE|SHF_STRINGS,1
	0x430388b3		.L.str.29
PADDING_ALIGNMENT	0x430388ce	0x2	0x0
.rodata.str1.8	0x430388d0	0x11	D:\GC_connection\GC_connection\gagent\libgagent.a(simulatorcomm.o)	#SHT_PROGBITS,SHF_ALLOC|SHF_MERGE|SHF_STRINGS,8
	0x430388d0		.L__FUNCTION__.gizIssuedProcess
.rodata.str1.1	0x430388e1	0x16	D:\GC_connection\GC_connection\gagent\libgagent.a(tcp.o)	#SHT_PROGBITS,SHF_ALLOC|SHF_MERGE|SHF_STRINGS,1
	0x430388e1		.L.str
.rodata.str1.1	0x430388f7	0x16	D:\GC_connection\GC_connection\gagent\libgagent.a(tcp.o)	#SHT_PROGBITS,SHF_ALLOC|SHF_MERGE|SHF_STRINGS,1
	0x430388f7		.L.str.1
.rodata.str1.1	0x4303890d	0x16	D:\GC_connection\GC_connection\gagent\libgagent.a(tcp.o)	#SHT_PROGBITS,SHF_ALLOC|SHF_MERGE|SHF_STRINGS,1
	0x4303890d		.L.str.2
.rodata.str1.1	0x43038923	0x16	D:\GC_connection\GC_connection\gagent\libgagent.a(tcp.o)	#SHT_PROGBITS,SHF_ALLOC|SHF_MERGE|SHF_STRINGS,1
	0x43038923		.L.str.3
.rodata.str1.1	0x43038939	0x1d	D:\GC_connection\GC_connection\gagent\libgagent.a(tcp.o)	#SHT_PROGBITS,SHF_ALLOC|SHF_MERGE|SHF_STRINGS,1
	0x43038939		.L.str.6
.rodata.str1.1	0x43038956	0x14	D:\GC_connection\GC_connection\gagent\libgagent.a(tcp.o)	#SHT_PROGBITS,SHF_ALLOC|SHF_MERGE|SHF_STRINGS,1
	0x43038956		.L__FUNCTION__.gatTcpReceiveHandle
.rodata.str1.1	0x4303896a	0x1f	D:\GC_connection\GC_connection\gagent\libgagent.a(tcp.o)	#SHT_PROGBITS,SHF_ALLOC|SHF_MERGE|SHF_STRINGS,1
	0x4303896a		.L.str.7
.rodata.str1.1	0x43038989	0x15	D:\GC_connection\GC_connection\gagent\libgagent.a(tcp.o)	#SHT_PROGBITS,SHF_ALLOC|SHF_MERGE|SHF_STRINGS,1
	0x43038989		.L.str.8
.rodata.str1.1	0x4303899e	0x25	D:\GC_connection\GC_connection\gagent\libgagent.a(tcp.o)	#SHT_PROGBITS,SHF_ALLOC|SHF_MERGE|SHF_STRINGS,1
	0x4303899e		.L.str.9
.rodata.str1.1	0x430389c3	0x31	D:\GC_connection\GC_connection\gagent\libgagent.a(tcp.o)	#SHT_PROGBITS,SHF_ALLOC|SHF_MERGE|SHF_STRINGS,1
	0x430389c3		.L.str.10
.rodata.str1.1	0x430389f4	0x13	D:\GC_connection\GC_connection\gagent\libgagent.a(tcp.o)	#SHT_PROGBITS,SHF_ALLOC|SHF_MERGE|SHF_STRINGS,1
	0x430389f4		.L.str.11
.rodata.str1.1	0x43038a07	0x10	D:\GC_connection\GC_connection\gagent\libgagent.a(tcp.o)	#SHT_PROGBITS,SHF_ALLOC|SHF_MERGE|SHF_STRINGS,1
	0x43038a07		.L__FUNCTION__.gatTcpDelChNode
.rodata.str1.1	0x43038a17	0x17	D:\GC_connection\GC_connection\gagent\libgagent.a(tcp.o)	#SHT_PROGBITS,SHF_ALLOC|SHF_MERGE|SHF_STRINGS,1
	0x43038a17		.L.str.12
.rodata.str1.1	0x43038a2e	0x32	D:\GC_connection\GC_connection\gagent\libgagent.a(tcp.o)	#SHT_PROGBITS,SHF_ALLOC|SHF_MERGE|SHF_STRINGS,1
	0x43038a2e		.L.str.15
.rodata.str1.1	0x43038a60	0x19	D:\GC_connection\GC_connection\gagent\libgagent.a(tcp.o)	#SHT_PROGBITS,SHF_ALLOC|SHF_MERGE|SHF_STRINGS,1
	0x43038a60		.L.str.16
.rodata.str1.1	0x43038a79	0x10	D:\GC_connection\GC_connection\gagent\libgagent.a(tcp.o)	#SHT_PROGBITS,SHF_ALLOC|SHF_MERGE|SHF_STRINGS,1
	0x43038a79		.L__FUNCTION__.gatTcpListenAdd
.rodata.str1.1	0x43038a89	0x26	D:\GC_connection\GC_connection\gagent\libgagent.a(tcp.o)	#SHT_PROGBITS,SHF_ALLOC|SHF_MERGE|SHF_STRINGS,1
	0x43038a89		.L.str.18
.rodata.str1.1	0x43038aaf	0x2e	D:\GC_connection\GC_connection\gagent\libgagent.a(tcp.o)	#SHT_PROGBITS,SHF_ALLOC|SHF_MERGE|SHF_STRINGS,1
	0x43038aaf		.L.str.19
.rodata.str1.1	0x43038add	0x2a	D:\GC_connection\GC_connection\gagent\libgagent.a(tcp.o)	#SHT_PROGBITS,SHF_ALLOC|SHF_MERGE|SHF_STRINGS,1
	0x43038add		.L.str.20
.rodata.str1.1	0x43038b07	0x12	D:\GC_connection\GC_connection\gagent\libgagent.a(tcp.o)	#SHT_PROGBITS,SHF_ALLOC|SHF_MERGE|SHF_STRINGS,1
	0x43038b07		.L__FUNCTION__.gatTcpReadRecData
.rodata.str1.1	0x43038b19	0x47	D:\GC_connection\GC_connection\gagent\libgagent.a(tcp.o)	#SHT_PROGBITS,SHF_ALLOC|SHF_MERGE|SHF_STRINGS,1
	0x43038b19		.L.str.21
.rodata.str1.1	0x43038b60	0x20	D:\GC_connection\GC_connection\gagent\libgagent.a(tcp.o)	#SHT_PROGBITS,SHF_ALLOC|SHF_MERGE|SHF_STRINGS,1
	0x43038b60		.L.str.22
.rodata.str1.1	0x43038b80	0x1f	D:\GC_connection\GC_connection\gagent\libgagent.a(tcp.o)	#SHT_PROGBITS,SHF_ALLOC|SHF_MERGE|SHF_STRINGS,1
	0x43038b80		.L.str.23
.rodata.str1.1	0x43038b9f	0xb	D:\GC_connection\GC_connection\gagent\libgagent.a(tcp.o)	#SHT_PROGBITS,SHF_ALLOC|SHF_MERGE|SHF_STRINGS,1
	0x43038b9f		.L__FUNCTION__.gatTcpRecv
.rodata.str1.1	0x43038baa	0x51	D:\GC_connection\GC_connection\gagent\libgagent.a(tcp.o)	#SHT_PROGBITS,SHF_ALLOC|SHF_MERGE|SHF_STRINGS,1
	0x43038baa		.L.str.24
.rodata.str1.1	0x43038bfb	0x29	D:\GC_connection\GC_connection\gagent\libgagent.a(tcp.o)	#SHT_PROGBITS,SHF_ALLOC|SHF_MERGE|SHF_STRINGS,1
	0x43038bfb		.L.str.25
.rodata.str1.1	0x43038c24	0x1a	D:\GC_connection\GC_connection\gagent\libgagent.a(tcp.o)	#SHT_PROGBITS,SHF_ALLOC|SHF_MERGE|SHF_STRINGS,1
	0x43038c24		.L.str.26
.rodata.str1.1	0x43038c3e	0x29	D:\GC_connection\GC_connection\gagent\libgagent.a(tcp.o)	#SHT_PROGBITS,SHF_ALLOC|SHF_MERGE|SHF_STRINGS,1
	0x43038c3e		.L.str.27
.rodata.str1.1	0x43038c67	0x2a	D:\GC_connection\GC_connection\gagent\libgagent.a(tcp.o)	#SHT_PROGBITS,SHF_ALLOC|SHF_MERGE|SHF_STRINGS,1
	0x43038c67		.L.str.28
.rodata.str1.1	0x43038c91	0x14	D:\GC_connection\GC_connection\gagent\libgagent.a(tcp.o)	#SHT_PROGBITS,SHF_ALLOC|SHF_MERGE|SHF_STRINGS,1
	0x43038c91		.L.str.29
.rodata.str1.1	0x43038ca5	0x19	D:\GC_connection\GC_connection\gagent\libgagent.a(tcp.o)	#SHT_PROGBITS,SHF_ALLOC|SHF_MERGE|SHF_STRINGS,1
	0x43038ca5		.L.str.30
.rodata.str1.1	0x43038cbe	0x26	D:\GC_connection\GC_connection\gagent\libgagent.a(tcp.o)	#SHT_PROGBITS,SHF_ALLOC|SHF_MERGE|SHF_STRINGS,1
	0x43038cbe		.L.str.31
.rodata.str1.1	0x43038ce4	0x27	D:\GC_connection\GC_connection\gagent\libgagent.a(tcp.o)	#SHT_PROGBITS,SHF_ALLOC|SHF_MERGE|SHF_STRINGS,1
	0x43038ce4		.L.str.32
.rodata.str1.1	0x43038d0b	0x25	D:\GC_connection\GC_connection\gagent\libgagent.a(tcp.o)	#SHT_PROGBITS,SHF_ALLOC|SHF_MERGE|SHF_STRINGS,1
	0x43038d0b		.L.str.33
.rodata.str1.1	0x43038d30	0x13	D:\GC_connection\GC_connection\gagent\libgagent.a(tcp.o)	#SHT_PROGBITS,SHF_ALLOC|SHF_MERGE|SHF_STRINGS,1
	0x43038d30		.L.str.38
.rodata.str1.1	0x43038d43	0xb	D:\GC_connection\GC_connection\gagent\libgagent.a(tcp.o)	#SHT_PROGBITS,SHF_ALLOC|SHF_MERGE|SHF_STRINGS,1
	0x43038d43		.L__FUNCTION__.gatTcpSend
.rodata.str1.1	0x43038d4e	0x20	D:\GC_connection\GC_connection\gagent\libgagent.a(tcp.o)	#SHT_PROGBITS,SHF_ALLOC|SHF_MERGE|SHF_STRINGS,1
	0x43038d4e		.L.str.39
.rodata.str1.1	0x43038d6e	0x28	D:\GC_connection\GC_connection\gagent\libgagent.a(tcp.o)	#SHT_PROGBITS,SHF_ALLOC|SHF_MERGE|SHF_STRINGS,1
	0x43038d6e		.L.str.40
.rodata.str1.1	0x43038d96	0x28	D:\GC_connection\GC_connection\gagent\libgagent.a(tcp.o)	#SHT_PROGBITS,SHF_ALLOC|SHF_MERGE|SHF_STRINGS,1
	0x43038d96		.L.str.41
.rodata.str1.1	0x43038dbe	0x21	D:\GC_connection\GC_connection\gagent\libgagent.a(tcp.o)	#SHT_PROGBITS,SHF_ALLOC|SHF_MERGE|SHF_STRINGS,1
	0x43038dbe		.L.str.42
.rodata.str1.1	0x43038ddf	0xf	D:\GC_connection\GC_connection\gagent\libgagent.a(tcp.o)	#SHT_PROGBITS,SHF_ALLOC|SHF_MERGE|SHF_STRINGS,1
	0x43038ddf		.L__FUNCTION__.gatTcpSendTask
.rodata.str1.1	0x43038dee	0x2c	D:\GC_connection\GC_connection\gagent\libgagent.a(tcp.o)	#SHT_PROGBITS,SHF_ALLOC|SHF_MERGE|SHF_STRINGS,1
	0x43038dee		.L.str.43
.rodata.str1.1	0x43038e1a	0x16	D:\GC_connection\GC_connection\gagent\libgagent.a(tcp.o)	#SHT_PROGBITS,SHF_ALLOC|SHF_MERGE|SHF_STRINGS,1
	0x43038e1a		.L.str.44
.rodata.str1.1	0x43038e30	0x1a	D:\GC_connection\GC_connection\gagent\libgagent.a(tcp.o)	#SHT_PROGBITS,SHF_ALLOC|SHF_MERGE|SHF_STRINGS,1
	0x43038e30		.L.str.45
.rodata.str1.1	0x43038e4a	0x29	D:\GC_connection\GC_connection\gagent\libgagent.a(tcp.o)	#SHT_PROGBITS,SHF_ALLOC|SHF_MERGE|SHF_STRINGS,1
	0x43038e4a		.L.str.46
.rodata.str1.1	0x43038e73	0x22	D:\GC_connection\GC_connection\gagent\libgagent.a(tcp.o)	#SHT_PROGBITS,SHF_ALLOC|SHF_MERGE|SHF_STRINGS,1
	0x43038e73		.L.str.47
.rodata.str1.1	0x43038e95	0x1b	D:\GC_connection\GC_connection\gagent\libgagent.a(tcp.o)	#SHT_PROGBITS,SHF_ALLOC|SHF_MERGE|SHF_STRINGS,1
	0x43038e95		.L.str.48
.rodata.str1.1	0x43038eb0	0x2d	D:\GC_connection\GC_connection\gagent\libgagent.a(tcp.o)	#SHT_PROGBITS,SHF_ALLOC|SHF_MERGE|SHF_STRINGS,1
	0x43038eb0		.L.str.49
.rodata.str1.1	0x43038edd	0x10	D:\GC_connection\GC_connection\gagent\libgagent.a(tcp.o)	#SHT_PROGBITS,SHF_ALLOC|SHF_MERGE|SHF_STRINGS,1
	0x43038edd		.L__FUNCTION__.tcpSendCBHandle
.rodata.str1.1	0x43038eed	0x31	D:\GC_connection\GC_connection\gagent\libgagent.a(tcp.o)	#SHT_PROGBITS,SHF_ALLOC|SHF_MERGE|SHF_STRINGS,1
	0x43038eed		.L.str.50
.rodata.str1.1	0x43038f1e	0x2d	D:\GC_connection\GC_connection\gagent\libgagent.a(tcp.o)	#SHT_PROGBITS,SHF_ALLOC|SHF_MERGE|SHF_STRINGS,1
	0x43038f1e		.L.str.51
.rodata.str1.1	0x43038f4b	0x1a	D:\GC_connection\GC_connection\gagent\libgagent.a(tcp.o)	#SHT_PROGBITS,SHF_ALLOC|SHF_MERGE|SHF_STRINGS,1
	0x43038f4b		.L.str.52
.rodata.str1.1	0x43038f65	0x10	D:\GC_connection\GC_connection\gagent\libgagent.a(tcp.o)	#SHT_PROGBITS,SHF_ALLOC|SHF_MERGE|SHF_STRINGS,1
	0x43038f65		.L__FUNCTION__.gatTcpRecResult
.rodata.str1.1	0x43038f75	0x12	D:\GC_connection\GC_connection\gagent\libgagent.a(tcp.o)	#SHT_PROGBITS,SHF_ALLOC|SHF_MERGE|SHF_STRINGS,1
	0x43038f75		.L__FUNCTION__.gatDelTcpDataNode
.rodata.str1.1	0x43038f87	0xf	D:\GC_connection\GC_connection\gagent\libgagent.a(tcp.o)	#SHT_PROGBITS,SHF_ALLOC|SHF_MERGE|SHF_STRINGS,1
	0x43038f87		.L__FUNCTION__.tcpSendListAdd
.rodata.str1.1	0x43038f96	0x12	D:\GC_connection\GC_connection\gagent\libgagent.a(tcp.o)	#SHT_PROGBITS,SHF_ALLOC|SHF_MERGE|SHF_STRINGS,1
	0x43038f96		.L__FUNCTION__.gatDelTcpSendNode
.rodata.str1.1	0x43038fa8	0x20	D:\GC_connection\GC_connection\gagent\libgagent.a(tcp.o)	#SHT_PROGBITS,SHF_ALLOC|SHF_MERGE|SHF_STRINGS,1
	0x43038fa8		.L.str.53
.rodata.str1.1	0x43038fc8	0x10	D:\GC_connection\GC_connection\gagent\libgagent.a(timer_subsystem.o)	#SHT_PROGBITS,SHF_ALLOC|SHF_MERGE|SHF_STRINGS,1
	0x43038fc8		.L.str
.rodata.str1.1	0x43038fd8	0x16	D:\GC_connection\GC_connection\gagent\libgagent.a(timer_subsystem.o)	#SHT_PROGBITS,SHF_ALLOC|SHF_MERGE|SHF_STRINGS,1
	0x43038fd8		.L.str.3
.rodata.str1.1	0x43038fee	0x11	D:\GC_connection\GC_connection\gagent\libgagent.a(timer_subsystem.o)	#SHT_PROGBITS,SHF_ALLOC|SHF_MERGE|SHF_STRINGS,1
	0x43038fee		.L__FUNCTION__.gatTimerCoreInit
.rodata.str1.1	0x43038fff	0xc	D:\GC_connection\GC_connection\gagent\libgagent.a(timer_subsystem.o)	#SHT_PROGBITS,SHF_ALLOC|SHF_MERGE|SHF_STRINGS,1
	0x43038fff		.L__FUNCTION__.gatTimerAdd
.rodata.str1.1	0x4303900b	0x23	D:\GC_connection\GC_connection\gagent\libgagent.a(timer_subsystem.o)	#SHT_PROGBITS,SHF_ALLOC|SHF_MERGE|SHF_STRINGS,1
	0x4303900b		.L.str.4
.rodata.str1.1	0x4303902e	0x1d	D:\GC_connection\GC_connection\gagent\libgagent.a(timer_subsystem.o)	#SHT_PROGBITS,SHF_ALLOC|SHF_MERGE|SHF_STRINGS,1
	0x4303902e		.L.str.5
.rodata.str1.1	0x4303904b	0x2b	D:\GC_connection\GC_connection\gagent\libgagent.a(timer_subsystem.o)	#SHT_PROGBITS,SHF_ALLOC|SHF_MERGE|SHF_STRINGS,1
	0x4303904b		.L.str.6
.rodata.str1.1	0x43039076	0x1b	D:\GC_connection\GC_connection\gagent\libgagent.a(timer_subsystem.o)	#SHT_PROGBITS,SHF_ALLOC|SHF_MERGE|SHF_STRINGS,1
	0x43039076		.L.str.7
.rodata.str1.1	0x43039091	0xc	D:\GC_connection\GC_connection\gagent\libgagent.a(timer_subsystem.o)	#SHT_PROGBITS,SHF_ALLOC|SHF_MERGE|SHF_STRINGS,1
	0x43039091		.L__FUNCTION__.gatTimerDel
.rodata.str1.1	0x4303909d	0x1a	D:\GC_connection\GC_connection\gagent\libgagent.a(timer_subsystem.o)	#SHT_PROGBITS,SHF_ALLOC|SHF_MERGE|SHF_STRINGS,1
	0x4303909d		.L.str.8
.rodata.str1.1	0x430390b7	0xd	D:\GC_connection\GC_connection\gagent\libgagent.a(timer_subsystem.o)	#SHT_PROGBITS,SHF_ALLOC|SHF_MERGE|SHF_STRINGS,1
	0x430390b7		.L__FUNCTION__.gatTimerTick
.rodata.str1.1	0x430390c4	0x1a	D:\GC_connection\GC_connection\gagent\libgagent.a(timer_subsystem.o)	#SHT_PROGBITS,SHF_ALLOC|SHF_MERGE|SHF_STRINGS,1
	0x430390c4		.L.str.11
.rodata.str1.1	0x430390de	0x14	D:\GC_connection\GC_connection\gagent\libgagent.a(timer_subsystem.o)	#SHT_PROGBITS,SHF_ALLOC|SHF_MERGE|SHF_STRINGS,1
	0x430390de		.L.str.12
.rodata.str1.1	0x430390f2	0xf	D:\GC_connection\GC_connection\gagent\libgagent.a(timer_subsystem.o)	#SHT_PROGBITS,SHF_ALLOC|SHF_MERGE|SHF_STRINGS,1
	0x430390f2		.L__FUNCTION__.gatTimerHandle
.rodata.str1.1	0x43039101	0x1b	D:\GC_connection\GC_connection\gagent\libgagent.a(timer_subsystem.o)	#SHT_PROGBITS,SHF_ALLOC|SHF_MERGE|SHF_STRINGS,1
	0x43039101		.L.str.13
.rodata.str1.1	0x4303911c	0x26	D:\GC_connection\GC_connection\gagent\libgagent.a(timer_subsystem.o)	#SHT_PROGBITS,SHF_ALLOC|SHF_MERGE|SHF_STRINGS,1
	0x4303911c		.L.str.14
.rodata.str1.1	0x43039142	0x12	D:\GC_connection\GC_connection\gagent\libgagent.a(timer_subsystem.o)	#SHT_PROGBITS,SHF_ALLOC|SHF_MERGE|SHF_STRINGS,1
	0x43039142		.L__FUNCTION__.gatTimerTraversal
.rodata.str1.1	0x43039154	0x59	D:\GC_connection\GC_connection\gagent\libgagent.a(timer_subsystem.o)	#SHT_PROGBITS,SHF_ALLOC|SHF_MERGE|SHF_STRINGS,1
	0x43039154		.L.str.15
.rodata.str1.1	0x430391ad	0x6	D:\GC_connection\GC_connection\gagent\libgagent.a(timer_subsystem.o)	#SHT_PROGBITS,SHF_ALLOC|SHF_MERGE|SHF_STRINGS,1
	0x430391ad		.L.str.16
.rodata.str1.1	0x430391b3	0x6c	D:\GC_connection\GC_connection\gagent\libgagent.a(timer_subsystem.o)	#SHT_PROGBITS,SHF_ALLOC|SHF_MERGE|SHF_STRINGS,1
	0x430391b3		.L.str.17
.rodata.str1.1	0x4303921f	0x2e	D:\GC_connection\GC_connection\gagent\libgagent.a(timer_subsystem.o)	#SHT_PROGBITS,SHF_ALLOC|SHF_MERGE|SHF_STRINGS,1
	0x4303921f		.L.str.18
.rodata.str1.1	0x4303924d	0x59	D:\GC_connection\GC_connection\gagent\libgagent.a(timer_subsystem.o)	#SHT_PROGBITS,SHF_ALLOC|SHF_MERGE|SHF_STRINGS,1
	0x4303924d		.L.str.19
.rodata.str1.1	0x430392a6	0x1b	D:\GC_connection\GC_connection\gagent\libgagent.a(timer_subsystem.o)	#SHT_PROGBITS,SHF_ALLOC|SHF_MERGE|SHF_STRINGS,1
	0x430392a6		.L.str.20
.rodata.str1.1	0x430392c1	0x24	D:\GC_connection\GC_connection\gagent\libgagent.a(timer_subsystem.o)	#SHT_PROGBITS,SHF_ALLOC|SHF_MERGE|SHF_STRINGS,1
	0x430392c1		.L.str.21
.rodata.str1.1	0x430392e5	0xc	D:\GC_connection\GC_connection\gagent\libgagent.a(aes.o)	#SHT_PROGBITS,SHF_ALLOC|SHF_MERGE|SHF_STRINGS,1
	0x430392e5		.L__FUNCTION__.invSboxInit
.rodata.str1.1	0x430392f1	0x8	D:\GC_connection\GC_connection\gagent\libgagent.a(aes.o)	#SHT_PROGBITS,SHF_ALLOC|SHF_MERGE|SHF_STRINGS,1
	0x430392f1		.L__FUNCTION__.aesInit
.rodata.str1.1	0x430392f9	0xb	D:\GC_connection\GC_connection\gagent\libgagent.a(aes.o)	#SHT_PROGBITS,SHF_ALLOC|SHF_MERGE|SHF_STRINGS,1
	0x430392f9		.L__FUNCTION__.aesDestroy
.rodata.str1.1	0x43039304	0x11	D:\GC_connection\GC_connection\gagent\libgagent.a(aes.o)	#SHT_PROGBITS,SHF_ALLOC|SHF_MERGE|SHF_STRINGS,1
	0x43039304		.L__FUNCTION__.aesECB128Encrypt
.rodata.str1.1	0x43039315	0x11	D:\GC_connection\GC_connection\gagent\libgagent.a(aes.o)	#SHT_PROGBITS,SHF_ALLOC|SHF_MERGE|SHF_STRINGS,1
	0x43039315		.L__FUNCTION__.aesECB128Decrypt
.rodata.str1.1	0x43039326	0x14	D:\GC_connection\GC_connection\gagent\libgagent.a(aes.o)	#SHT_PROGBITS,SHF_ALLOC|SHF_MERGE|SHF_STRINGS,1
	0x43039326		.L__FUNCTION__.aesECB128DecryptRaw
.rodata.str1.1	0x4303933a	0x1d	D:\GC_connection\GC_connection\gagent\libgagent.a(authorization.o)	#SHT_PROGBITS,SHF_ALLOC|SHF_MERGE|SHF_STRINGS,1
	0x4303933a		.L.str.2
.rodata.str1.1	0x43039357	0x19	D:\GC_connection\GC_connection\gagent\libgagent.a(authorization.o)	#SHT_PROGBITS,SHF_ALLOC|SHF_MERGE|SHF_STRINGS,1
	0x43039357		.L.str.3
.rodata.str1.1	0x43039370	0x25	D:\GC_connection\GC_connection\gagent\libgagent.a(authorization.o)	#SHT_PROGBITS,SHF_ALLOC|SHF_MERGE|SHF_STRINGS,1
	0x43039370		.L.str.4
.rodata.str1.1	0x43039395	0x10	D:\GC_connection\GC_connection\gagent\libgagent.a(authorization.o)	#SHT_PROGBITS,SHF_ALLOC|SHF_MERGE|SHF_STRINGS,1
	0x43039395		.L.str.5
.rodata.str1.1	0x430393a5	0xe	D:\GC_connection\GC_connection\gagent\libgagent.a(authorization.o)	#SHT_PROGBITS,SHF_ALLOC|SHF_MERGE|SHF_STRINGS,1
	0x430393a5		.L__FUNCTION__.gatRecAuthKey
.rodata.str1.1	0x430393b3	0x32	D:\GC_connection\GC_connection\gagent\libgagent.a(authorization.o)	#SHT_PROGBITS,SHF_ALLOC|SHF_MERGE|SHF_STRINGS,1
	0x430393b3		.L.str.10
.rodata.str1.1	0x430393e5	0x23	D:\GC_connection\GC_connection\gagent\libgagent.a(authorization.o)	#SHT_PROGBITS,SHF_ALLOC|SHF_MERGE|SHF_STRINGS,1
	0x430393e5		.L.str.11
.rodata.str1.1	0x43039408	0x23	D:\GC_connection\GC_connection\gagent\libgagent.a(authorization.o)	#SHT_PROGBITS,SHF_ALLOC|SHF_MERGE|SHF_STRINGS,1
	0x43039408		.L.str.12
.rodata.str1.1	0x4303942b	0x2c	D:\GC_connection\GC_connection\gagent\libgagent.a(authorization.o)	#SHT_PROGBITS,SHF_ALLOC|SHF_MERGE|SHF_STRINGS,1
	0x4303942b		.L.str.13
.rodata.str1.1	0x43039457	0x39	D:\GC_connection\GC_connection\gagent\libgagent.a(authorization.o)	#SHT_PROGBITS,SHF_ALLOC|SHF_MERGE|SHF_STRINGS,1
	0x43039457		.L.str.14
.rodata.str1.1	0x43039490	0x2a	D:\GC_connection\GC_connection\gagent\libgagent.a(authorization.o)	#SHT_PROGBITS,SHF_ALLOC|SHF_MERGE|SHF_STRINGS,1
	0x43039490		.L.str.15
.rodata.str1.1	0x430394ba	0x21	D:\GC_connection\GC_connection\gagent\libgagent.a(authorization.o)	#SHT_PROGBITS,SHF_ALLOC|SHF_MERGE|SHF_STRINGS,1
	0x430394ba		.L.str.16
.rodata.str1.1	0x430394db	0x2f	D:\GC_connection\GC_connection\gagent\libgagent.a(authorization.o)	#SHT_PROGBITS,SHF_ALLOC|SHF_MERGE|SHF_STRINGS,1
	0x430394db		.L.str.17
.rodata.str1.1	0x4303950a	0x34	D:\GC_connection\GC_connection\gagent\libgagent.a(authorization.o)	#SHT_PROGBITS,SHF_ALLOC|SHF_MERGE|SHF_STRINGS,1
	0x4303950a		.L.str.18
.rodata.str1.1	0x4303953e	0xa	D:\GC_connection\GC_connection\gagent\libgagent.a(authorization.o)	#SHT_PROGBITS,SHF_ALLOC|SHF_MERGE|SHF_STRINGS,1
	0x4303953e		.L.str.19
.rodata.str1.1	0x43039548	0x2c	D:\GC_connection\GC_connection\gagent\libgagent.a(authorization.o)	#SHT_PROGBITS,SHF_ALLOC|SHF_MERGE|SHF_STRINGS,1
	0x43039548		.L.str.20
.rodata.str1.1	0x43039574	0x21	D:\GC_connection\GC_connection\gagent\libgagent.a(authorization.o)	#SHT_PROGBITS,SHF_ALLOC|SHF_MERGE|SHF_STRINGS,1
	0x43039574		.L.str.21
.rodata.str1.1	0x43039595	0x11	D:\GC_connection\GC_connection\gagent\libgagent.a(authorization.o)	#SHT_PROGBITS,SHF_ALLOC|SHF_MERGE|SHF_STRINGS,1
	0x43039595		.L__FUNCTION__.gatGetAuthReqAck
.rodata.str1.1	0x430395a6	0x18	D:\GC_connection\GC_connection\gagent\libgagent.a(authorization.o)	#SHT_PROGBITS,SHF_ALLOC|SHF_MERGE|SHF_STRINGS,1
	0x430395a6		.L.str.22
.rodata.str1.1	0x430395be	0xc	D:\GC_connection\GC_connection\gagent\libgagent.a(authorization.o)	#SHT_PROGBITS,SHF_ALLOC|SHF_MERGE|SHF_STRINGS,1
	0x430395be		.L__FUNCTION__.gatAuthInit
.rodata.str1.1	0x430395ca	0x25	D:\GC_connection\GC_connection\gagent\libgagent.a(authorization.o)	#SHT_PROGBITS,SHF_ALLOC|SHF_MERGE|SHF_STRINGS,1
	0x430395ca		.L.str.23
.rodata.str1.1	0x430395ef	0xe	D:\GC_connection\GC_connection\gagent\libgagent.a(authorization.o)	#SHT_PROGBITS,SHF_ALLOC|SHF_MERGE|SHF_STRINGS,1
	0x430395ef		.L__FUNCTION__.gatAuthKeySet
.rodata.str1.1	0x430395fd	0x25	D:\GC_connection\GC_connection\gagent\libgagent.a(authorization.o)	#SHT_PROGBITS,SHF_ALLOC|SHF_MERGE|SHF_STRINGS,1
	0x430395fd		.L.str.24
.rodata.str1.1	0x43039622	0x14	D:\GC_connection\GC_connection\gagent\libgagent.a(authorization.o)	#SHT_PROGBITS,SHF_ALLOC|SHF_MERGE|SHF_STRINGS,1
	0x43039622		.L__FUNCTION__.gatWaitAuthKeyTimer
.rodata.str1.1	0x43039636	0x10	D:\GC_connection\GC_connection\gagent\libgagent.a(authorization.o)	#SHT_PROGBITS,SHF_ALLOC|SHF_MERGE|SHF_STRINGS,1
	0x43039636		.L.str.25
.rodata.str1.1	0x43039646	0xe	D:\GC_connection\GC_connection\gagent\libgagent.a(authorization.o)	#SHT_PROGBITS,SHF_ALLOC|SHF_MERGE|SHF_STRINGS,1
	0x43039646		.L__FUNCTION__.gatReqAuthKey
.rodata.str1.1	0x43039654	0x23	D:\GC_connection\GC_connection\gagent\libgagent.a(authorization.o)	#SHT_PROGBITS,SHF_ALLOC|SHF_MERGE|SHF_STRINGS,1
	0x43039654		.L.str.26
.rodata.str1.1	0x43039677	0x1f	D:\GC_connection\GC_connection\gagent\libgagent.a(authorization.o)	#SHT_PROGBITS,SHF_ALLOC|SHF_MERGE|SHF_STRINGS,1
	0x43039677		.L.str.28
.rodata.str1.1	0x43039696	0x3a	D:\GC_connection\GC_connection\gagent\libgagent.a(authorization.o)	#SHT_PROGBITS,SHF_ALLOC|SHF_MERGE|SHF_STRINGS,1
	0x43039696		.L.str.29
.rodata.str1.1	0x430396d0	0x15	D:\GC_connection\GC_connection\gagent\libgagent.a(authorization.o)	#SHT_PROGBITS,SHF_ALLOC|SHF_MERGE|SHF_STRINGS,1
	0x430396d0		.L__FUNCTION__.gatReqAuthKeyTimeOut
.rodata.str1.1	0x430396e5	0x34	D:\GC_connection\GC_connection\gagent\libgagent.a(dp.o)	#SHT_PROGBITS,SHF_ALLOC|SHF_MERGE|SHF_STRINGS,1
	0x430396e5		.L.str.2
.rodata.str1.1	0x43039719	0x35	D:\GC_connection\GC_connection\gagent\libgagent.a(dp.o)	#SHT_PROGBITS,SHF_ALLOC|SHF_MERGE|SHF_STRINGS,1
	0x43039719		.L.str.3
.rodata.str1.1	0x4303974e	0x8	D:\GC_connection\GC_connection\gagent\libgagent.a(dp.o)	#SHT_PROGBITS,SHF_ALLOC|SHF_MERGE|SHF_STRINGS,1
	0x4303974e		.L__FUNCTION__.dpTrans
.rodata.str1.1	0x43039756	0x34	D:\GC_connection\GC_connection\gagent\libgagent.a(dp.o)	#SHT_PROGBITS,SHF_ALLOC|SHF_MERGE|SHF_STRINGS,1
	0x43039756		.L.str.4
.rodata.str1.1	0x4303978a	0x28	D:\GC_connection\GC_connection\gagent\libgagent.a(dp.o)	#SHT_PROGBITS,SHF_ALLOC|SHF_MERGE|SHF_STRINGS,1
	0x4303978a		.L.str.5
.rodata.str1.1	0x430397b2	0xd	D:\GC_connection\GC_connection\gagent\libgagent.a(dp.o)	#SHT_PROGBITS,SHF_ALLOC|SHF_MERGE|SHF_STRINGS,1
	0x430397b2		.L.str.6
.rodata.str1.1	0x430397bf	0x9	D:\GC_connection\GC_connection\gagent\libgagent.a(dp.o)	#SHT_PROGBITS,SHF_ALLOC|SHF_MERGE|SHF_STRINGS,1
	0x430397bf		.L.str.7
.rodata.str1.1	0x430397c8	0xc	D:\GC_connection\GC_connection\gagent\libgagent.a(dp.o)	#SHT_PROGBITS,SHF_ALLOC|SHF_MERGE|SHF_STRINGS,1
	0x430397c8		.L.str.8
.rodata.str1.1	0x430397d4	0x17	D:\GC_connection\GC_connection\gagent\libgagent.a(dp.o)	#SHT_PROGBITS,SHF_ALLOC|SHF_MERGE|SHF_STRINGS,1
	0x430397d4		.L.str.9
.rodata.str1.1	0x430397eb	0xa	D:\GC_connection\GC_connection\gagent\libgagent.a(dp.o)	#SHT_PROGBITS,SHF_ALLOC|SHF_MERGE|SHF_STRINGS,1
	0x430397eb		.L__FUNCTION__.getWanCmd
.rodata.str1.1	0x430397f5	0x9	D:\GC_connection\GC_connection\gagent\libgagent.a(env.o)	#SHT_PROGBITS,SHF_ALLOC|SHF_MERGE|SHF_STRINGS,1
	0x430397f5		.L.str
.rodata.str1.1	0x430397fe	0x29	D:\GC_connection\GC_connection\gagent\libgagent.a(env.o)	#SHT_PROGBITS,SHF_ALLOC|SHF_MERGE|SHF_STRINGS,1
	0x430397fe		.L.str.3
.rodata.str1.1	0x43039827	0xc	D:\GC_connection\GC_connection\gagent\libgagent.a(env.o)	#SHT_PROGBITS,SHF_ALLOC|SHF_MERGE|SHF_STRINGS,1
	0x43039827		.L__FUNCTION__.getEnvErase
.rodata.str1.1	0x43039833	0x1a	D:\GC_connection\GC_connection\gagent\libgagent.a(env.o)	#SHT_PROGBITS,SHF_ALLOC|SHF_MERGE|SHF_STRINGS,1
	0x43039833		.L.str.4
.rodata.str1.1	0x4303984d	0xc	D:\GC_connection\GC_connection\gagent\libgagent.a(env.o)	#SHT_PROGBITS,SHF_ALLOC|SHF_MERGE|SHF_STRINGS,1
	0x4303984d		.L__FUNCTION__.gatEnvWrite
.rodata.str1.1	0x43039859	0x26	D:\GC_connection\GC_connection\gagent\libgagent.a(env.o)	#SHT_PROGBITS,SHF_ALLOC|SHF_MERGE|SHF_STRINGS,1
	0x43039859		.L.str.5
.rodata.str1.1	0x4303987f	0x21	D:\GC_connection\GC_connection\gagent\libgagent.a(env.o)	#SHT_PROGBITS,SHF_ALLOC|SHF_MERGE|SHF_STRINGS,1
	0x4303987f		.L.str.6
.rodata.str1.1	0x430398a0	0x15	D:\GC_connection\GC_connection\gagent\libgagent.a(env.o)	#SHT_PROGBITS,SHF_ALLOC|SHF_MERGE|SHF_STRINGS,1
	0x430398a0		.L.str.7
.rodata.str1.1	0x430398b5	0x18	D:\GC_connection\GC_connection\gagent\libgagent.a(env.o)	#SHT_PROGBITS,SHF_ALLOC|SHF_MERGE|SHF_STRINGS,1
	0x430398b5		.L.str.12
.rodata.str1.1	0x430398cd	0x20	D:\GC_connection\GC_connection\gagent\libgagent.a(env.o)	#SHT_PROGBITS,SHF_ALLOC|SHF_MERGE|SHF_STRINGS,1
	0x430398cd		.L.str.13
.rodata.str1.1	0x430398ed	0x26	D:\GC_connection\GC_connection\gagent\libgagent.a(env.o)	#SHT_PROGBITS,SHF_ALLOC|SHF_MERGE|SHF_STRINGS,1
	0x430398ed		.L.str.14
.rodata.str1.1	0x43039913	0x26	D:\GC_connection\GC_connection\gagent\libgagent.a(env.o)	#SHT_PROGBITS,SHF_ALLOC|SHF_MERGE|SHF_STRINGS,1
	0x43039913		.L.str.15
.rodata.str1.1	0x43039939	0x1c	D:\GC_connection\GC_connection\gagent\libgagent.a(env.o)	#SHT_PROGBITS,SHF_ALLOC|SHF_MERGE|SHF_STRINGS,1
	0x43039939		.L.str.16
.rodata.str1.1	0x43039955	0xb	D:\GC_connection\GC_connection\gagent\libgagent.a(env.o)	#SHT_PROGBITS,SHF_ALLOC|SHF_MERGE|SHF_STRINGS,1
	0x43039955		.L__FUNCTION__.gatEnvRead
.rodata.str1.1	0x43039960	0x20	D:\GC_connection\GC_connection\gagent\libgagent.a(env.o)	#SHT_PROGBITS,SHF_ALLOC|SHF_MERGE|SHF_STRINGS,1
	0x43039960		.L.str.17
.rodata.str1.1	0x43039980	0x20	D:\GC_connection\GC_connection\gagent\libgagent.a(env.o)	#SHT_PROGBITS,SHF_ALLOC|SHF_MERGE|SHF_STRINGS,1
	0x43039980		.L.str.18
.rodata.str1.1	0x430399a0	0xc	D:\GC_connection\GC_connection\gagent\libgagent.a(gagent.o)	#SHT_PROGBITS,SHF_ALLOC|SHF_MERGE|SHF_STRINGS,1
	0x430399a0		.L.str
.rodata.str1.1	0x430399ac	0x20	D:\GC_connection\GC_connection\gagent\libgagent.a(gagent.o)	#SHT_PROGBITS,SHF_ALLOC|SHF_MERGE|SHF_STRINGS,1
	0x430399ac		.L.str.3
.rodata.str1.1	0x430399cc	0x14	D:\GC_connection\GC_connection\gagent\libgagent.a(gagent.o)	#SHT_PROGBITS,SHF_ALLOC|SHF_MERGE|SHF_STRINGS,1
	0x430399cc		.L__FUNCTION__.gatReBootTimerStart
.rodata.str1.1	0x430399e0	0x14	D:\GC_connection\GC_connection\gagent\libgagent.a(gagent.o)	#SHT_PROGBITS,SHF_ALLOC|SHF_MERGE|SHF_STRINGS,1
	0x430399e0		.L.str.4
.rodata.str1.1	0x430399f4	0xe	D:\GC_connection\GC_connection\gagent\libgagent.a(gagent.o)	#SHT_PROGBITS,SHF_ALLOC|SHF_MERGE|SHF_STRINGS,1
	0x430399f4		.L__FUNCTION__.gatSetSoftVer
.rodata.str1.1	0x43039a02	0xe	D:\GC_connection\GC_connection\gagent\libgagent.a(gagent.o)	#SHT_PROGBITS,SHF_ALLOC|SHF_MERGE|SHF_STRINGS,1
	0x43039a02		.L__FUNCTION__.gatGetSoftVer
.rodata.str1.1	0x43039a10	0x17	D:\GC_connection\GC_connection\gagent\libgagent.a(gagent.o)	#SHT_PROGBITS,SHF_ALLOC|SHF_MERGE|SHF_STRINGS,1
	0x43039a10		.L.str.5
.rodata.str1.1	0x43039a27	0x13	D:\GC_connection\GC_connection\gagent\libgagent.a(gagent.o)	#SHT_PROGBITS,SHF_ALLOC|SHF_MERGE|SHF_STRINGS,1
	0x43039a27		.L__FUNCTION__.gagentReBootHandle
.rodata.str1.1	0x43039a3a	0x1c	D:\GC_connection\GC_connection\gagent\libgagent.a(gagent.o)	#SHT_PROGBITS,SHF_ALLOC|SHF_MERGE|SHF_STRINGS,1
	0x43039a3a		.L.str.6
.rodata.str1.1	0x43039a56	0xa	D:\GC_connection\GC_connection\gagent\libgagent.a(gagent.o)	#SHT_PROGBITS,SHF_ALLOC|SHF_MERGE|SHF_STRINGS,1
	0x43039a56		.L__FUNCTION__.gatReBoot
.rodata.str1.1	0x43039a60	0x22	D:\GC_connection\GC_connection\gagent\libgagent.a(gagent.o)	#SHT_PROGBITS,SHF_ALLOC|SHF_MERGE|SHF_STRINGS,1
	0x43039a60		.L.str.7
.rodata.str1.1	0x43039a82	0xb	D:\GC_connection\GC_connection\gagent\libgagent.a(gagent.o)	#SHT_PROGBITS,SHF_ALLOC|SHF_MERGE|SHF_STRINGS,1
	0x43039a82		.L.str.8
.rodata.str1.1	0x43039a8d	0x15	D:\GC_connection\GC_connection\gagent\libgagent.a(gagent.o)	#SHT_PROGBITS,SHF_ALLOC|SHF_MERGE|SHF_STRINGS,1
	0x43039a8d		.L__FUNCTION__.gatDealUserPayload90
.rodata.str1.1	0x43039aa2	0x11	D:\GC_connection\GC_connection\gagent\libgagent.a(gagent.o)	#SHT_PROGBITS,SHF_ALLOC|SHF_MERGE|SHF_STRINGS,1
	0x43039aa2		.L.str.9
.rodata.str1.1	0x43039ab3	0x5b	D:\GC_connection\GC_connection\gagent\libgagent.a(gagent.o)	#SHT_PROGBITS,SHF_ALLOC|SHF_MERGE|SHF_STRINGS,1
	0x43039ab3		.L.str.10
.rodata.str1.1	0x43039b0e	0x36	D:\GC_connection\GC_connection\gagent\libgagent.a(gagent.o)	#SHT_PROGBITS,SHF_ALLOC|SHF_MERGE|SHF_STRINGS,1
	0x43039b0e		.L.str.11
.rodata.str1.1	0x43039b44	0x1a	D:\GC_connection\GC_connection\gagent\libgagent.a(gagent.o)	#SHT_PROGBITS,SHF_ALLOC|SHF_MERGE|SHF_STRINGS,1
	0x43039b44		.L.str.12
.rodata.str1.1	0x43039b5e	0xa	D:\GC_connection\GC_connection\gagent\libgagent.a(gagent.o)	#SHT_PROGBITS,SHF_ALLOC|SHF_MERGE|SHF_STRINGS,1
	0x43039b5e		.L.str.13
.rodata.str1.1	0x43039b68	0x15	D:\GC_connection\GC_connection\gagent\libgagent.a(gagent.o)	#SHT_PROGBITS,SHF_ALLOC|SHF_MERGE|SHF_STRINGS,1
	0x43039b68		.L__FUNCTION__.gatDealUserPayload93
.rodata.str1.1	0x43039b7d	0x2b	D:\GC_connection\GC_connection\gagent\libgagent.a(gagent.o)	#SHT_PROGBITS,SHF_ALLOC|SHF_MERGE|SHF_STRINGS,1
	0x43039b7d		.L.str.18
.rodata.str1.1	0x43039ba8	0x61	D:\GC_connection\GC_connection\gagent\libgagent.a(gagent.o)	#SHT_PROGBITS,SHF_ALLOC|SHF_MERGE|SHF_STRINGS,1
	0x43039ba8		.L.str.19
.rodata.str1.1	0x43039c09	0x49	D:\GC_connection\GC_connection\gagent\libgagent.a(gagent.o)	#SHT_PROGBITS,SHF_ALLOC|SHF_MERGE|SHF_STRINGS,1
	0x43039c09		.L.str.20
.rodata.str1.1	0x43039c52	0x45	D:\GC_connection\GC_connection\gagent\libgagent.a(gagent.o)	#SHT_PROGBITS,SHF_ALLOC|SHF_MERGE|SHF_STRINGS,1
	0x43039c52		.L.str.21
.rodata.str1.1	0x43039c97	0x44	D:\GC_connection\GC_connection\gagent\libgagent.a(gagent.o)	#SHT_PROGBITS,SHF_ALLOC|SHF_MERGE|SHF_STRINGS,1
	0x43039c97		.L.str.22
.rodata.str1.1	0x43039cdb	0x2a	D:\GC_connection\GC_connection\gagent\libgagent.a(gagent.o)	#SHT_PROGBITS,SHF_ALLOC|SHF_MERGE|SHF_STRINGS,1
	0x43039cdb		.L.str.23
.rodata.str1.1	0x43039d05	0x23	D:\GC_connection\GC_connection\gagent\libgagent.a(gagent.o)	#SHT_PROGBITS,SHF_ALLOC|SHF_MERGE|SHF_STRINGS,1
	0x43039d05		.L.str.24
.rodata.str1.1	0x43039d28	0x30	D:\GC_connection\GC_connection\gagent\libgagent.a(gagent.o)	#SHT_PROGBITS,SHF_ALLOC|SHF_MERGE|SHF_STRINGS,1
	0x43039d28		.L.str.25
.rodata.str1.1	0x43039d58	0x15	D:\GC_connection\GC_connection\gagent\libgagent.a(gagent.o)	#SHT_PROGBITS,SHF_ALLOC|SHF_MERGE|SHF_STRINGS,1
	0x43039d58		.L.str.26
.rodata.str1.1	0x43039d6d	0xe	D:\GC_connection\GC_connection\gagent\libgagent.a(gagent.o)	#SHT_PROGBITS,SHF_ALLOC|SHF_MERGE|SHF_STRINGS,1
	0x43039d6d		.L__FUNCTION__.gatTaskHandle
.rodata.str1.1	0x43039d7b	0x10	D:\GC_connection\GC_connection\gagent\libgagent.a(gagent.o)	#SHT_PROGBITS,SHF_ALLOC|SHF_MERGE|SHF_STRINGS,1
	0x43039d7b		.L.str.27
.rodata.str1.1	0x43039d8b	0x18	D:\GC_connection\GC_connection\gagent\libgagent.a(gagent.o)	#SHT_PROGBITS,SHF_ALLOC|SHF_MERGE|SHF_STRINGS,1
	0x43039d8b		.L.str.28
.rodata.str1.1	0x43039da3	0x1a	D:\GC_connection\GC_connection\gagent\libgagent.a(gagent.o)	#SHT_PROGBITS,SHF_ALLOC|SHF_MERGE|SHF_STRINGS,1
	0x43039da3		.L.str.29
.rodata.str1.1	0x43039dbd	0x1e	D:\GC_connection\GC_connection\gagent\libgagent.a(gagent.o)	#SHT_PROGBITS,SHF_ALLOC|SHF_MERGE|SHF_STRINGS,1
	0x43039dbd		.L.str.30
.rodata.str1.1	0x43039ddb	0x1c	D:\GC_connection\GC_connection\gagent\libgagent.a(gagent.o)	#SHT_PROGBITS,SHF_ALLOC|SHF_MERGE|SHF_STRINGS,1
	0x43039ddb		.L.str.31
.rodata.str1.1	0x43039df7	0x17	D:\GC_connection\GC_connection\gagent\libgagent.a(gagent.o)	#SHT_PROGBITS,SHF_ALLOC|SHF_MERGE|SHF_STRINGS,1
	0x43039df7		.L.str.32
.rodata.str1.1	0x43039e0e	0x1f	D:\GC_connection\GC_connection\gagent\libgagent.a(gagent.o)	#SHT_PROGBITS,SHF_ALLOC|SHF_MERGE|SHF_STRINGS,1
	0x43039e0e		.L.str.33
.rodata.str1.1	0x43039e2d	0x1a	D:\GC_connection\GC_connection\gagent\libgagent.a(gagent.o)	#SHT_PROGBITS,SHF_ALLOC|SHF_MERGE|SHF_STRINGS,1
	0x43039e2d		.L.str.34
.rodata.str1.1	0x43039e47	0x27	D:\GC_connection\GC_connection\gagent\libgagent.a(gagent.o)	#SHT_PROGBITS,SHF_ALLOC|SHF_MERGE|SHF_STRINGS,1
	0x43039e47		.L.str.35
.rodata.str1.1	0x43039e6e	0x12	D:\GC_connection\GC_connection\gagent\libgagent.a(gagent.o)	#SHT_PROGBITS,SHF_ALLOC|SHF_MERGE|SHF_STRINGS,1
	0x43039e6e		.L.str.36
.rodata.str1.1	0x43039e80	0x26	D:\GC_connection\GC_connection\gagent\libgagent.a(gagent.o)	#SHT_PROGBITS,SHF_ALLOC|SHF_MERGE|SHF_STRINGS,1
	0x43039e80		.L.str.37
.rodata.str1.1	0x43039ea6	0xd	D:\GC_connection\GC_connection\gagent\libgagent.a(gagent.o)	#SHT_PROGBITS,SHF_ALLOC|SHF_MERGE|SHF_STRINGS,1
	0x43039ea6		.L__FUNCTION__.gatStatusSet
.rodata.str1.1	0x43039eb3	0x1e	D:\GC_connection\GC_connection\gagent\libgagent.a(gagent.o)	#SHT_PROGBITS,SHF_ALLOC|SHF_MERGE|SHF_STRINGS,1
	0x43039eb3		.L.str.38
.rodata.str1.1	0x43039ed1	0x13	D:\GC_connection\GC_connection\gagent\libgagent.a(gagent.o)	#SHT_PROGBITS,SHF_ALLOC|SHF_MERGE|SHF_STRINGS,1
	0x43039ed1		.L__FUNCTION__.gatCleanConfigData
.rodata.str1.1	0x43039ee4	0x3d	D:\GC_connection\GC_connection\gagent\libgagent.a(gagent.o)	#SHT_PROGBITS,SHF_ALLOC|SHF_MERGE|SHF_STRINGS,1
	0x43039ee4		.L.str.40
.rodata.str1.1	0x43039f21	0x6d	D:\GC_connection\GC_connection\gagent\libgagent.a(gagent.o)	#SHT_PROGBITS,SHF_ALLOC|SHF_MERGE|SHF_STRINGS,1
	0x43039f21		.L.str.41
.rodata.str1.1	0x43039f8e	0x80	D:\GC_connection\GC_connection\gagent\libgagent.a(gagent.o)	#SHT_PROGBITS,SHF_ALLOC|SHF_MERGE|SHF_STRINGS,1
	0x43039f8e		.L.str.42
.rodata.str1.1	0x4303a00e	0x32	D:\GC_connection\GC_connection\gagent\libgagent.a(gagent.o)	#SHT_PROGBITS,SHF_ALLOC|SHF_MERGE|SHF_STRINGS,1
	0x4303a00e		.L.str.43
.rodata.str1.1	0x4303a040	0x32	D:\GC_connection\GC_connection\gagent\libgagent.a(gagent.o)	#SHT_PROGBITS,SHF_ALLOC|SHF_MERGE|SHF_STRINGS,1
	0x4303a040		.L.str.44
.rodata.str1.1	0x4303a072	0x35	D:\GC_connection\GC_connection\gagent\libgagent.a(gagent.o)	#SHT_PROGBITS,SHF_ALLOC|SHF_MERGE|SHF_STRINGS,1
	0x4303a072		.L.str.45
.rodata.str1.1	0x4303a0a7	0xc	D:\GC_connection\GC_connection\gagent\libgagent.a(gagent.o)	#SHT_PROGBITS,SHF_ALLOC|SHF_MERGE|SHF_STRINGS,1
	0x4303a0a7		.L__FUNCTION__.gatDataSend
.rodata.str1.1	0x4303a0b3	0x29	D:\GC_connection\GC_connection\gagent\libgagent.a(gagent.o)	#SHT_PROGBITS,SHF_ALLOC|SHF_MERGE|SHF_STRINGS,1
	0x4303a0b3		.L.str.46
.rodata.str1.1	0x4303a0dc	0x4	D:\GC_connection\GC_connection\gagent\libgagent.a(gagent.o)	#SHT_PROGBITS,SHF_ALLOC|SHF_MERGE|SHF_STRINGS,1
	0x4303a0dc		.L.str.47
.rodata.str1.1	0x4303a0e0	0x1f	D:\GC_connection\GC_connection\gagent\libgagent.a(gagent.o)	#SHT_PROGBITS,SHF_ALLOC|SHF_MERGE|SHF_STRINGS,1
	0x4303a0e0		.L.str.48
.rodata.str1.1	0x4303a0ff	0x2b	D:\GC_connection\GC_connection\gagent\libgagent.a(gagent.o)	#SHT_PROGBITS,SHF_ALLOC|SHF_MERGE|SHF_STRINGS,1
	0x4303a0ff		.L.str.49
.rodata.str1.1	0x4303a12a	0xe	D:\GC_connection\GC_connection\gagent\libgagent.a(gagent.o)	#SHT_PROGBITS,SHF_ALLOC|SHF_MERGE|SHF_STRINGS,1
	0x4303a12a		.L.str.50
.rodata.str1.1	0x4303a138	0x1f	D:\GC_connection\GC_connection\gagent\libgagent.a(gagent.o)	#SHT_PROGBITS,SHF_ALLOC|SHF_MERGE|SHF_STRINGS,1
	0x4303a138		.L.str.51
.rodata.str1.1	0x4303a157	0x2b	D:\GC_connection\GC_connection\gagent\libgagent.a(gagent.o)	#SHT_PROGBITS,SHF_ALLOC|SHF_MERGE|SHF_STRINGS,1
	0x4303a157		.L.str.52
.rodata.str1.1	0x4303a182	0x33	D:\GC_connection\GC_connection\gagent\libgagent.a(gagent.o)	#SHT_PROGBITS,SHF_ALLOC|SHF_MERGE|SHF_STRINGS,1
	0x4303a182		.L.str.54
.rodata.str1.1	0x4303a1b5	0x37	D:\GC_connection\GC_connection\gagent\libgagent.a(gagent.o)	#SHT_PROGBITS,SHF_ALLOC|SHF_MERGE|SHF_STRINGS,1
	0x4303a1b5		.L.str.55
.rodata.str1.1	0x4303a1ec	0x33	D:\GC_connection\GC_connection\gagent\libgagent.a(gagent.o)	#SHT_PROGBITS,SHF_ALLOC|SHF_MERGE|SHF_STRINGS,1
	0x4303a1ec		.L.str.56
.rodata.str1.1	0x4303a21f	0x37	D:\GC_connection\GC_connection\gagent\libgagent.a(gagent.o)	#SHT_PROGBITS,SHF_ALLOC|SHF_MERGE|SHF_STRINGS,1
	0x4303a21f		.L.str.57
.rodata.str1.1	0x4303a256	0x37	D:\GC_connection\GC_connection\gagent\libgagent.a(gagent.o)	#SHT_PROGBITS,SHF_ALLOC|SHF_MERGE|SHF_STRINGS,1
	0x4303a256		.L.str.58
.rodata.str1.1	0x4303a28d	0x3b	D:\GC_connection\GC_connection\gagent\libgagent.a(gagent.o)	#SHT_PROGBITS,SHF_ALLOC|SHF_MERGE|SHF_STRINGS,1
	0x4303a28d		.L.str.59
.rodata.str1.1	0x4303a2c8	0x1d	D:\GC_connection\GC_connection\gagent\libgagent.a(gagent.o)	#SHT_PROGBITS,SHF_ALLOC|SHF_MERGE|SHF_STRINGS,1
	0x4303a2c8		.L.str.60
.rodata.str1.1	0x4303a2e5	0x22	D:\GC_connection\GC_connection\gagent\libgagent.a(gagent.o)	#SHT_PROGBITS,SHF_ALLOC|SHF_MERGE|SHF_STRINGS,1
	0x4303a2e5		.L.str.61
.rodata.str1.1	0x4303a307	0x17	D:\GC_connection\GC_connection\gagent\libgagent.a(gagent.o)	#SHT_PROGBITS,SHF_ALLOC|SHF_MERGE|SHF_STRINGS,1
	0x4303a307		.L.str.62
.rodata.str1.1	0x4303a31e	0x13	D:\GC_connection\GC_connection\gagent\libgagent.a(gagent.o)	#SHT_PROGBITS,SHF_ALLOC|SHF_MERGE|SHF_STRINGS,1
	0x4303a31e		.L__FUNCTION__.gatRunTimeDataInit
.rodata.str1.1	0x4303a331	0x4b	D:\GC_connection\GC_connection\gagent\libgagent.a(gagent.o)	#SHT_PROGBITS,SHF_ALLOC|SHF_MERGE|SHF_STRINGS,1
	0x4303a331		.L.str.63
.rodata.str1.1	0x4303a37c	0x9	D:\GC_connection\GC_connection\gagent\libgagent.a(gagent.o)	#SHT_PROGBITS,SHF_ALLOC|SHF_MERGE|SHF_STRINGS,1
	0x4303a37c		.L.str.65
.rodata.str1.1	0x4303a385	0xe	D:\GC_connection\GC_connection\gagent\libgagent.a(gagent.o)	#SHT_PROGBITS,SHF_ALLOC|SHF_MERGE|SHF_STRINGS,1
	0x4303a385		.L.str.66
.rodata.str1.1	0x4303a393	0x1f	D:\GC_connection\GC_connection\gagent\libgagent.a(gagent.o)	#SHT_PROGBITS,SHF_ALLOC|SHF_MERGE|SHF_STRINGS,1
	0x4303a393		.L.str.67
.rodata.str1.1	0x4303a3b2	0x8	D:\GC_connection\GC_connection\gagent\libgagent.a(gagent.o)	#SHT_PROGBITS,SHF_ALLOC|SHF_MERGE|SHF_STRINGS,1
	0x4303a3b2		.L__FUNCTION__.gatInit
.rodata.str1.1	0x4303a3ba	0x63	D:\GC_connection\GC_connection\gagent\libgagent.a(gagent.o)	#SHT_PROGBITS,SHF_ALLOC|SHF_MERGE|SHF_STRINGS,1
	0x4303a3ba		.L.str.68
.rodata.str1.1	0x4303a41d	0x26	D:\GC_connection\GC_connection\gagent\libgagent.a(gagent.o)	#SHT_PROGBITS,SHF_ALLOC|SHF_MERGE|SHF_STRINGS,1
	0x4303a41d		.L.str.69
.rodata.str1.1	0x4303a443	0x27	D:\GC_connection\GC_connection\gagent\libgagent.a(gagent.o)	#SHT_PROGBITS,SHF_ALLOC|SHF_MERGE|SHF_STRINGS,1
	0x4303a443		.L.str.70
.rodata.str1.1	0x4303a46a	0x27	D:\GC_connection\GC_connection\gagent\libgagent.a(gagent.o)	#SHT_PROGBITS,SHF_ALLOC|SHF_MERGE|SHF_STRINGS,1
	0x4303a46a		.L.str.71
.rodata.str1.1	0x4303a491	0x27	D:\GC_connection\GC_connection\gagent\libgagent.a(gagent.o)	#SHT_PROGBITS,SHF_ALLOC|SHF_MERGE|SHF_STRINGS,1
	0x4303a491		.L.str.72
.rodata.str1.1	0x4303a4b8	0x26	D:\GC_connection\GC_connection\gagent\libgagent.a(gagent.o)	#SHT_PROGBITS,SHF_ALLOC|SHF_MERGE|SHF_STRINGS,1
	0x4303a4b8		.L.str.73
.rodata.str1.1	0x4303a4de	0x2a	D:\GC_connection\GC_connection\gagent\libgagent.a(gagent.o)	#SHT_PROGBITS,SHF_ALLOC|SHF_MERGE|SHF_STRINGS,1
	0x4303a4de		.L.str.74
.rodata.str1.1	0x4303a508	0x2a	D:\GC_connection\GC_connection\gagent\libgagent.a(gagent.o)	#SHT_PROGBITS,SHF_ALLOC|SHF_MERGE|SHF_STRINGS,1
	0x4303a508		.L.str.75
.rodata.str1.1	0x4303a532	0x2b	D:\GC_connection\GC_connection\gagent\libgagent.a(gagent.o)	#SHT_PROGBITS,SHF_ALLOC|SHF_MERGE|SHF_STRINGS,1
	0x4303a532		.L.str.76
.rodata.str1.1	0x4303a55d	0x2d	D:\GC_connection\GC_connection\gagent\libgagent.a(gagent.o)	#SHT_PROGBITS,SHF_ALLOC|SHF_MERGE|SHF_STRINGS,1
	0x4303a55d		.L.str.77
.rodata.str1.1	0x4303a58a	0x2b	D:\GC_connection\GC_connection\gagent\libgagent.a(gagent.o)	#SHT_PROGBITS,SHF_ALLOC|SHF_MERGE|SHF_STRINGS,1
	0x4303a58a		.L.str.78
.rodata.str1.1	0x4303a5b5	0x2b	D:\GC_connection\GC_connection\gagent\libgagent.a(gagent.o)	#SHT_PROGBITS,SHF_ALLOC|SHF_MERGE|SHF_STRINGS,1
	0x4303a5b5		.L.str.79
.rodata.str1.1	0x4303a5e0	0x2d	D:\GC_connection\GC_connection\gagent\libgagent.a(gagent.o)	#SHT_PROGBITS,SHF_ALLOC|SHF_MERGE|SHF_STRINGS,1
	0x4303a5e0		.L.str.80
.rodata.str1.1	0x4303a60d	0x2e	D:\GC_connection\GC_connection\gagent\libgagent.a(gagent.o)	#SHT_PROGBITS,SHF_ALLOC|SHF_MERGE|SHF_STRINGS,1
	0x4303a60d		.L.str.81
.rodata.str1.1	0x4303a63b	0x2d	D:\GC_connection\GC_connection\gagent\libgagent.a(gagent.o)	#SHT_PROGBITS,SHF_ALLOC|SHF_MERGE|SHF_STRINGS,1
	0x4303a63b		.L.str.82
.rodata.str1.1	0x4303a668	0x34	D:\GC_connection\GC_connection\gagent\libgagent.a(gagent.o)	#SHT_PROGBITS,SHF_ALLOC|SHF_MERGE|SHF_STRINGS,1
	0x4303a668		.L.str.83
.rodata.str1.1	0x4303a69c	0x31	D:\GC_connection\GC_connection\gagent\libgagent.a(gagent.o)	#SHT_PROGBITS,SHF_ALLOC|SHF_MERGE|SHF_STRINGS,1
	0x4303a69c		.L.str.84
.rodata.str1.1	0x4303a6cd	0x39	D:\GC_connection\GC_connection\gagent\libgagent.a(gagent.o)	#SHT_PROGBITS,SHF_ALLOC|SHF_MERGE|SHF_STRINGS,1
	0x4303a6cd		.L.str.85
.rodata.str1.1	0x4303a706	0x28	D:\GC_connection\GC_connection\gagent\libgagent.a(gagent.o)	#SHT_PROGBITS,SHF_ALLOC|SHF_MERGE|SHF_STRINGS,1
	0x4303a706		.L.str.86
.rodata.str1.1	0x4303a72e	0x39	D:\GC_connection\GC_connection\gagent\libgagent.a(gagent.o)	#SHT_PROGBITS,SHF_ALLOC|SHF_MERGE|SHF_STRINGS,1
	0x4303a72e		.L.str.87
.rodata.str1.1	0x4303a767	0x97	D:\GC_connection\GC_connection\gagent\libgagent.a(gagent.o)	#SHT_PROGBITS,SHF_ALLOC|SHF_MERGE|SHF_STRINGS,1
	0x4303a767		.L.str.88
.rodata.str1.1	0x4303a7fe	0x11	D:\GC_connection\GC_connection\gagent\libgagent.a(gagent.o)	#SHT_PROGBITS,SHF_ALLOC|SHF_MERGE|SHF_STRINGS,1
	0x4303a7fe		.L.str.90
.rodata.str1.1	0x4303a80f	0x12	D:\GC_connection\GC_connection\gagent\libgagent.a(gagent.o)	#SHT_PROGBITS,SHF_ALLOC|SHF_MERGE|SHF_STRINGS,1
	0x4303a80f		.L__FUNCTION__.gagentRebootTimer
.rodata.str1.1	0x4303a821	0x10	D:\GC_connection\GC_connection\gagent\libgagent.a(gagent.o)	#SHT_PROGBITS,SHF_ALLOC|SHF_MERGE|SHF_STRINGS,1
	0x4303a821		.L.str.91
.rodata.str1.1	0x4303a831	0x13	D:\GC_connection\GC_connection\gagent\libgagent.a(gagent.o)	#SHT_PROGBITS,SHF_ALLOC|SHF_MERGE|SHF_STRINGS,1
	0x4303a831		.L.str.92
.rodata.str1.1	0x4303a844	0x12	D:\GC_connection\GC_connection\gagent\libgagent.a(gagent.o)	#SHT_PROGBITS,SHF_ALLOC|SHF_MERGE|SHF_STRINGS,1
	0x4303a844		.L.str.93
.rodata.str1.1	0x4303a856	0x17	D:\GC_connection\GC_connection\gagent\libgagent.a(gagent.o)	#SHT_PROGBITS,SHF_ALLOC|SHF_MERGE|SHF_STRINGS,1
	0x4303a856		.L.str.94
.rodata.str1.1	0x4303a86d	0x18	D:\GC_connection\GC_connection\gagent\libgagent.a(gagent.o)	#SHT_PROGBITS,SHF_ALLOC|SHF_MERGE|SHF_STRINGS,1
	0x4303a86d		.L.str.95
.rodata.str1.1	0x4303a885	0x11	D:\GC_connection\GC_connection\gagent\libgagent.a(gagent.o)	#SHT_PROGBITS,SHF_ALLOC|SHF_MERGE|SHF_STRINGS,1
	0x4303a885		.L.str.96
.rodata.str1.1	0x4303a896	0x13	D:\GC_connection\GC_connection\gagent\libgagent.a(gagent.o)	#SHT_PROGBITS,SHF_ALLOC|SHF_MERGE|SHF_STRINGS,1
	0x4303a896		.L.str.97
.rodata.str1.1	0x4303a8a9	0x1a	D:\GC_connection\GC_connection\gagent\libgagent.a(gagent.o)	#SHT_PROGBITS,SHF_ALLOC|SHF_MERGE|SHF_STRINGS,1
	0x4303a8a9		.L.str.98
.rodata.str1.1	0x4303a8c3	0x1b	D:\GC_connection\GC_connection\gagent\libgagent.a(gagent.o)	#SHT_PROGBITS,SHF_ALLOC|SHF_MERGE|SHF_STRINGS,1
	0x4303a8c3		.L.str.99
.rodata.str1.1	0x4303a8de	0x1a	D:\GC_connection\GC_connection\gagent\libgagent.a(gagent.o)	#SHT_PROGBITS,SHF_ALLOC|SHF_MERGE|SHF_STRINGS,1
	0x4303a8de		.L.str.100
.rodata.str1.1	0x4303a8f8	0x15	D:\GC_connection\GC_connection\gagent\libgagent.a(gagent.o)	#SHT_PROGBITS,SHF_ALLOC|SHF_MERGE|SHF_STRINGS,1
	0x4303a8f8		.L.str.101
.rodata.str1.1	0x4303a90d	0x15	D:\GC_connection\GC_connection\gagent\libgagent.a(gagent.o)	#SHT_PROGBITS,SHF_ALLOC|SHF_MERGE|SHF_STRINGS,1
	0x4303a90d		.L.str.102
.rodata.str1.1	0x4303a922	0x12	D:\GC_connection\GC_connection\gagent\libgagent.a(gagent.o)	#SHT_PROGBITS,SHF_ALLOC|SHF_MERGE|SHF_STRINGS,1
	0x4303a922		.L.str.103
.rodata.str1.1	0x4303a934	0xe	D:\GC_connection\GC_connection\gagent\libgagent.a(gagent.o)	#SHT_PROGBITS,SHF_ALLOC|SHF_MERGE|SHF_STRINGS,1
	0x4303a934		.L.str.104
.rodata.str1.1	0x4303a942	0x2d	D:\GC_connection\GC_connection\gagent\libgagent.a(gagent.o)	#SHT_PROGBITS,SHF_ALLOC|SHF_MERGE|SHF_STRINGS,1
	0x4303a942		.L.str.105
.rodata.str1.1	0x4303a96f	0xd	D:\GC_connection\GC_connection\gagent\libgagent.a(gagent.o)	#SHT_PROGBITS,SHF_ALLOC|SHF_MERGE|SHF_STRINGS,1
	0x4303a96f		.L__FUNCTION__.gatDataRecCb
.rodata.str1.1	0x4303a97c	0x3a	D:\GC_connection\GC_connection\gagent\libgagent.a(gagent.o)	#SHT_PROGBITS,SHF_ALLOC|SHF_MERGE|SHF_STRINGS,1
	0x4303a97c		.L.str.106
.rodata.str1.1	0x4303a9b6	0x14	D:\GC_connection\GC_connection\gagent\libgagent.a(gagent.o)	#SHT_PROGBITS,SHF_ALLOC|SHF_MERGE|SHF_STRINGS,1
	0x4303a9b6		.L.str.107
.rodata.str1.1	0x4303a9ca	0xe	D:\GC_connection\GC_connection\gagent\libgagent.a(gagent.o)	#SHT_PROGBITS,SHF_ALLOC|SHF_MERGE|SHF_STRINGS,1
	0x4303a9ca		.L__FUNCTION__.gatDataSendCb
.rodata.str1.1	0x4303a9d8	0x18	D:\GC_connection\GC_connection\gagent\libgagent.a(gagent.o)	#SHT_PROGBITS,SHF_ALLOC|SHF_MERGE|SHF_STRINGS,1
	0x4303a9d8		.L.str.108
.rodata.str1.1	0x4303a9f0	0x33	D:\GC_connection\GC_connection\gagent\libgagent.a(gagent.o)	#SHT_PROGBITS,SHF_ALLOC|SHF_MERGE|SHF_STRINGS,1
	0x4303a9f0		.L.str.109
.rodata.str1.1	0x4303aa23	0x17	D:\GC_connection\GC_connection\gagent\libgagent.a(gagent.o)	#SHT_PROGBITS,SHF_ALLOC|SHF_MERGE|SHF_STRINGS,1
	0x4303aa23		.L.str.110
.rodata.str1.1	0x4303aa3a	0x4	D:\GC_connection\GC_connection\gagent\libgagent.a(gagent.o)	#SHT_PROGBITS,SHF_ALLOC|SHF_MERGE|SHF_STRINGS,1
	0x4303aa3a		.L.str.111
.rodata.str1.1	0x4303aa3e	0x4	D:\GC_connection\GC_connection\gagent\libgagent.a(gagent.o)	#SHT_PROGBITS,SHF_ALLOC|SHF_MERGE|SHF_STRINGS,1
	0x4303aa3e		.L.str.112
.rodata.str1.1	0x4303aa42	0x8	D:\GC_connection\GC_connection\gagent\libgagent.a(gagent.o)	#SHT_PROGBITS,SHF_ALLOC|SHF_MERGE|SHF_STRINGS,1
	0x4303aa42		.L.str.113
.rodata.str1.1	0x4303aa4a	0x2d	D:\GC_connection\GC_connection\gagent\libgagent.a(gagent.o)	#SHT_PROGBITS,SHF_ALLOC|SHF_MERGE|SHF_STRINGS,1
	0x4303aa4a		.L.str.114
.rodata.str1.1	0x4303aa77	0x15	D:\GC_connection\GC_connection\gagent\libgagent.a(gagent.o)	#SHT_PROGBITS,SHF_ALLOC|SHF_MERGE|SHF_STRINGS,1
	0x4303aa77		.L.str.117
.rodata	0x4303aa8c	0x58	D:\GC_connection\GC_connection\gagent\libgagent.a(gagent.o)	#SHT_PROGBITS,SHF_ALLOC,4
.rodata.str1.1	0x4303aae4	0x12	D:\GC_connection\GC_connection\gagent\libgagent.a(gatm2m.o)	#SHT_PROGBITS,SHF_ALLOC|SHF_MERGE|SHF_STRINGS,1
	0x4303aae4		.L.str.2
.rodata.str1.1	0x4303aaf6	0xb	D:\GC_connection\GC_connection\gagent\libgagent.a(gatm2m.o)	#SHT_PROGBITS,SHF_ALLOC|SHF_MERGE|SHF_STRINGS,1
	0x4303aaf6		.L__FUNCTION__.m2mInfoSet
.rodata.str1.1	0x4303ab01	0x11	D:\GC_connection\GC_connection\gagent\libgagent.a(gatm2m.o)	#SHT_PROGBITS,SHF_ALLOC|SHF_MERGE|SHF_STRINGS,1
	0x4303ab01		.L.str.3
.rodata.str1.1	0x4303ab12	0x11	D:\GC_connection\GC_connection\gagent\libgagent.a(gatm2m.o)	#SHT_PROGBITS,SHF_ALLOC|SHF_MERGE|SHF_STRINGS,1
	0x4303ab12		.L.str.4
.rodata.str1.1	0x4303ab23	0x11	D:\GC_connection\GC_connection\gagent\libgagent.a(gatm2m.o)	#SHT_PROGBITS,SHF_ALLOC|SHF_MERGE|SHF_STRINGS,1
	0x4303ab23		.L.str.5
.rodata.str1.1	0x4303ab34	0x1c	D:\GC_connection\GC_connection\gagent\libgagent.a(gatm2m.o)	#SHT_PROGBITS,SHF_ALLOC|SHF_MERGE|SHF_STRINGS,1
	0x4303ab34		.L.str.6
.rodata.str1.1	0x4303ab50	0x17	D:\GC_connection\GC_connection\gagent\libgagent.a(gatm2m.o)	#SHT_PROGBITS,SHF_ALLOC|SHF_MERGE|SHF_STRINGS,1
	0x4303ab50		.L.str.7
.rodata.str1.1	0x4303ab67	0x1d	D:\GC_connection\GC_connection\gagent\libgagent.a(gatm2m.o)	#SHT_PROGBITS,SHF_ALLOC|SHF_MERGE|SHF_STRINGS,1
	0x4303ab67		.L.str.8
.rodata.str1.1	0x4303ab84	0x1b	D:\GC_connection\GC_connection\gagent\libgagent.a(gatm2m.o)	#SHT_PROGBITS,SHF_ALLOC|SHF_MERGE|SHF_STRINGS,1
	0x4303ab84		.L.str.9
.rodata.str1.1	0x4303ab9f	0x1d	D:\GC_connection\GC_connection\gagent\libgagent.a(gatm2m.o)	#SHT_PROGBITS,SHF_ALLOC|SHF_MERGE|SHF_STRINGS,1
	0x4303ab9f		.L.str.10
.rodata.str1.1	0x4303abbc	0x1e	D:\GC_connection\GC_connection\gagent\libgagent.a(gatm2m.o)	#SHT_PROGBITS,SHF_ALLOC|SHF_MERGE|SHF_STRINGS,1
	0x4303abbc		.L.str.11
.rodata.str1.1	0x4303abda	0x19	D:\GC_connection\GC_connection\gagent\libgagent.a(gatm2m.o)	#SHT_PROGBITS,SHF_ALLOC|SHF_MERGE|SHF_STRINGS,1
	0x4303abda		.L.str.12
.rodata.str1.1	0x4303abf3	0xc	D:\GC_connection\GC_connection\gagent\libgagent.a(gatm2m.o)	#SHT_PROGBITS,SHF_ALLOC|SHF_MERGE|SHF_STRINGS,1
	0x4303abf3		.L__FUNCTION__.m2mSktRecCb
.rodata.str1.1	0x4303abff	0x23	D:\GC_connection\GC_connection\gagent\libgagent.a(gatm2m.o)	#SHT_PROGBITS,SHF_ALLOC|SHF_MERGE|SHF_STRINGS,1
	0x4303abff		.L.str.13
.rodata.str1.1	0x4303ac22	0xd	D:\GC_connection\GC_connection\gagent\libgagent.a(gatm2m.o)	#SHT_PROGBITS,SHF_ALLOC|SHF_MERGE|SHF_STRINGS,1
	0x4303ac22		.L.str.14
.rodata.str1.1	0x4303ac2f	0xd	D:\GC_connection\GC_connection\gagent\libgagent.a(gatm2m.o)	#SHT_PROGBITS,SHF_ALLOC|SHF_MERGE|SHF_STRINGS,1
	0x4303ac2f		.L__FUNCTION__.m2mSktConnCb
.rodata.str1.1	0x4303ac3c	0x2d	D:\GC_connection\GC_connection\gagent\libgagent.a(gatm2m.o)	#SHT_PROGBITS,SHF_ALLOC|SHF_MERGE|SHF_STRINGS,1
	0x4303ac3c		.L.str.15
.rodata.str1.1	0x4303ac69	0x29	D:\GC_connection\GC_connection\gagent\libgagent.a(gatm2m.o)	#SHT_PROGBITS,SHF_ALLOC|SHF_MERGE|SHF_STRINGS,1
	0x4303ac69		.L.str.16
.rodata.str1.1	0x4303ac92	0x38	D:\GC_connection\GC_connection\gagent\libgagent.a(gatm2m.o)	#SHT_PROGBITS,SHF_ALLOC|SHF_MERGE|SHF_STRINGS,1
	0x4303ac92		.L.str.17
.rodata.str1.1	0x4303acca	0x35	D:\GC_connection\GC_connection\gagent\libgagent.a(gatm2m.o)	#SHT_PROGBITS,SHF_ALLOC|SHF_MERGE|SHF_STRINGS,1
	0x4303acca		.L.str.18
.rodata.str1.1	0x4303acff	0xc	D:\GC_connection\GC_connection\gagent\libgagent.a(gatm2m.o)	#SHT_PROGBITS,SHF_ALLOC|SHF_MERGE|SHF_STRINGS,1
	0x4303acff		.L.str.19
.rodata.str1.1	0x4303ad0b	0x2d	D:\GC_connection\GC_connection\gagent\libgagent.a(gatm2m.o)	#SHT_PROGBITS,SHF_ALLOC|SHF_MERGE|SHF_STRINGS,1
	0x4303ad0b		.L.str.20
.rodata.str1.1	0x4303ad38	0xe	D:\GC_connection\GC_connection\gagent\libgagent.a(gatm2m.o)	#SHT_PROGBITS,SHF_ALLOC|SHF_MERGE|SHF_STRINGS,1
	0x4303ad38		.L.str.21
.rodata.str1.1	0x4303ad46	0x10	D:\GC_connection\GC_connection\gagent\libgagent.a(gatm2m.o)	#SHT_PROGBITS,SHF_ALLOC|SHF_MERGE|SHF_STRINGS,1
	0x4303ad46		.L__FUNCTION__.gatSetM2MDomain
.rodata.str1.1	0x4303ad56	0xf	D:\GC_connection\GC_connection\gagent\libgagent.a(gatm2m.o)	#SHT_PROGBITS,SHF_ALLOC|SHF_MERGE|SHF_STRINGS,1
	0x4303ad56		.L.str.22
.rodata.str1.1	0x4303ad65	0xe	D:\GC_connection\GC_connection\gagent\libgagent.a(gatm2m.o)	#SHT_PROGBITS,SHF_ALLOC|SHF_MERGE|SHF_STRINGS,1
	0x4303ad65		.L__FUNCTION__.gatSetM2MPort
.rodata.str1.1	0x4303ad73	0x12	D:\GC_connection\GC_connection\gagent\libgagent.a(gatm2m.o)	#SHT_PROGBITS,SHF_ALLOC|SHF_MERGE|SHF_STRINGS,1
	0x4303ad73		.L.str.23
.rodata.str1.1	0x4303ad85	0x1a	D:\GC_connection\GC_connection\gagent\libgagent.a(gatm2m.o)	#SHT_PROGBITS,SHF_ALLOC|SHF_MERGE|SHF_STRINGS,1
	0x4303ad85		.L.str.24
.rodata.str1.1	0x4303ad9f	0x15	D:\GC_connection\GC_connection\gagent\libgagent.a(gatm2m.o)	#SHT_PROGBITS,SHF_ALLOC|SHF_MERGE|SHF_STRINGS,1
	0x4303ad9f		.L.str.25
.rodata.str1.1	0x4303adb4	0xd	D:\GC_connection\GC_connection\gagent\libgagent.a(gatm2m.o)	#SHT_PROGBITS,SHF_ALLOC|SHF_MERGE|SHF_STRINGS,1
	0x4303adb4		.L__FUNCTION__.onM2MLoginCb
.rodata.str1.1	0x4303adc1	0x38	D:\GC_connection\GC_connection\gagent\libgagent.a(gatm2m.o)	#SHT_PROGBITS,SHF_ALLOC|SHF_MERGE|SHF_STRINGS,1
	0x4303adc1		.L.str.26
.rodata.str1.1	0x4303adf9	0xf	D:\GC_connection\GC_connection\gagent\libgagent.a(gatm2m.o)	#SHT_PROGBITS,SHF_ALLOC|SHF_MERGE|SHF_STRINGS,1
	0x4303adf9		.L.str.27
.rodata.str1.1	0x4303ae08	0xd	D:\GC_connection\GC_connection\gagent\libgagent.a(gatm2m.o)	#SHT_PROGBITS,SHF_ALLOC|SHF_MERGE|SHF_STRINGS,1
	0x4303ae08		.L.str.28
.rodata.str1.1	0x4303ae15	0x1d	D:\GC_connection\GC_connection\gagent\libgagent.a(gatm2m.o)	#SHT_PROGBITS,SHF_ALLOC|SHF_MERGE|SHF_STRINGS,1
	0x4303ae15		.L.str.29
.rodata.str1.1	0x4303ae32	0x20	D:\GC_connection\GC_connection\gagent\libgagent.a(gatm2m.o)	#SHT_PROGBITS,SHF_ALLOC|SHF_MERGE|SHF_STRINGS,1
	0x4303ae32		.L.str.30
.rodata.str1.1	0x4303ae52	0x20	D:\GC_connection\GC_connection\gagent\libgagent.a(gatm2m.o)	#SHT_PROGBITS,SHF_ALLOC|SHF_MERGE|SHF_STRINGS,1
	0x4303ae52		.L.str.31
.rodata.str1.1	0x4303ae72	0x10	D:\GC_connection\GC_connection\gagent\libgagent.a(gatm2m.o)	#SHT_PROGBITS,SHF_ALLOC|SHF_MERGE|SHF_STRINGS,1
	0x4303ae72		.L__FUNCTION__.onM2MSubTopicCb
.rodata.str1.1	0x4303ae82	0x16	D:\GC_connection\GC_connection\gagent\libgagent.a(gatm2m.o)	#SHT_PROGBITS,SHF_ALLOC|SHF_MERGE|SHF_STRINGS,1
	0x4303ae82		.L.str.32
.rodata.str1.1	0x4303ae98	0xe	D:\GC_connection\GC_connection\gagent\libgagent.a(gatm2m.o)	#SHT_PROGBITS,SHF_ALLOC|SHF_MERGE|SHF_STRINGS,1
	0x4303ae98		.L.str.33
.rodata.str1.1	0x4303aea6	0x1f	D:\GC_connection\GC_connection\gagent\libgagent.a(gatm2m.o)	#SHT_PROGBITS,SHF_ALLOC|SHF_MERGE|SHF_STRINGS,1
	0x4303aea6		.L.str.37
.rodata.str1.1	0x4303aec5	0x24	D:\GC_connection\GC_connection\gagent\libgagent.a(gatm2m.o)	#SHT_PROGBITS,SHF_ALLOC|SHF_MERGE|SHF_STRINGS,1
	0x4303aec5		.L.str.43
.rodata.str1.1	0x4303aee9	0x13	D:\GC_connection\GC_connection\gagent\libgagent.a(gatm2m.o)	#SHT_PROGBITS,SHF_ALLOC|SHF_MERGE|SHF_STRINGS,1
	0x4303aee9		.L__FUNCTION__.onM2MUserDataRecCb
.rodata.str1.1	0x4303aefc	0x15	D:\GC_connection\GC_connection\gagent\libgagent.a(gatm2m.o)	#SHT_PROGBITS,SHF_ALLOC|SHF_MERGE|SHF_STRINGS,1
	0x4303aefc		.L.str.44
.rodata.str1.1	0x4303af11	0xd	D:\GC_connection\GC_connection\gagent\libgagent.a(gatm2m.o)	#SHT_PROGBITS,SHF_ALLOC|SHF_MERGE|SHF_STRINGS,1
	0x4303af11		.L.str.45
.rodata.str1.1	0x4303af1e	0x11	D:\GC_connection\GC_connection\gagent\libgagent.a(gatm2m.o)	#SHT_PROGBITS,SHF_ALLOC|SHF_MERGE|SHF_STRINGS,1
	0x4303af1e		.L__FUNCTION__.onM2MHeartBeatCb
.rodata.str1.1	0x4303af2f	0x1f	D:\GC_connection\GC_connection\gagent\libgagent.a(gatm2m.o)	#SHT_PROGBITS,SHF_ALLOC|SHF_MERGE|SHF_STRINGS,1
	0x4303af2f		.L.str.46
.rodata.str1.1	0x4303af4e	0x11	D:\GC_connection\GC_connection\gagent\libgagent.a(gatm2m.o)	#SHT_PROGBITS,SHF_ALLOC|SHF_MERGE|SHF_STRINGS,1
	0x4303af4e		.L__FUNCTION__.onAppOnLineNumCb
.rodata.str1.1	0x4303af5f	0x28	D:\GC_connection\GC_connection\gagent\libgagent.a(gatm2m.o)	#SHT_PROGBITS,SHF_ALLOC|SHF_MERGE|SHF_STRINGS,1
	0x4303af5f		.L.str.47
.rodata.str1.1	0x4303af87	0x20	D:\GC_connection\GC_connection\gagent\libgagent.a(gatm2m.o)	#SHT_PROGBITS,SHF_ALLOC|SHF_MERGE|SHF_STRINGS,1
	0x4303af87		.L.str.48
.rodata.str1.1	0x4303afa7	0x1e	D:\GC_connection\GC_connection\gagent\libgagent.a(gatm2m.o)	#SHT_PROGBITS,SHF_ALLOC|SHF_MERGE|SHF_STRINGS,1
	0x4303afa7		.L.str.49
.rodata.str1.1	0x4303afc5	0x17	D:\GC_connection\GC_connection\gagent\libgagent.a(gatm2m.o)	#SHT_PROGBITS,SHF_ALLOC|SHF_MERGE|SHF_STRINGS,1
	0x4303afc5		.L.str.50
.rodata.str1.1	0x4303afdc	0x11	D:\GC_connection\GC_connection\gagent\libgagent.a(gatm2m.o)	#SHT_PROGBITS,SHF_ALLOC|SHF_MERGE|SHF_STRINGS,1
	0x4303afdc		.L.str.51
.rodata.str1.1	0x4303afed	0x14	D:\GC_connection\GC_connection\gagent\libgagent.a(gatm2m.o)	#SHT_PROGBITS,SHF_ALLOC|SHF_MERGE|SHF_STRINGS,1
	0x4303afed		.L__FUNCTION__.onOTA41EventNoticCb
.rodata.str1.1	0x4303b001	0x1e	D:\GC_connection\GC_connection\gagent\libgagent.a(gatm2m.o)	#SHT_PROGBITS,SHF_ALLOC|SHF_MERGE|SHF_STRINGS,1
	0x4303b001		.L.str.52
.rodata.str1.1	0x4303b01f	0x30	D:\GC_connection\GC_connection\gagent\libgagent.a(gatm2m.o)	#SHT_PROGBITS,SHF_ALLOC|SHF_MERGE|SHF_STRINGS,1
	0x4303b01f		.L.str.53
.rodata.str1.1	0x4303b04f	0x1b	D:\GC_connection\GC_connection\gagent\libgagent.a(gatm2m.o)	#SHT_PROGBITS,SHF_ALLOC|SHF_MERGE|SHF_STRINGS,1
	0x4303b04f		.L.str.54
.rodata.str1.1	0x4303b06a	0x1f	D:\GC_connection\GC_connection\gagent\libgagent.a(gatm2m.o)	#SHT_PROGBITS,SHF_ALLOC|SHF_MERGE|SHF_STRINGS,1
	0x4303b06a		.L.str.55
.rodata.str1.1	0x4303b089	0x20	D:\GC_connection\GC_connection\gagent\libgagent.a(gatm2m.o)	#SHT_PROGBITS,SHF_ALLOC|SHF_MERGE|SHF_STRINGS,1
	0x4303b089		.L.str.56
.rodata.str1.1	0x4303b0a9	0x38	D:\GC_connection\GC_connection\gagent\libgagent.a(gatm2m.o)	#SHT_PROGBITS,SHF_ALLOC|SHF_MERGE|SHF_STRINGS,1
	0x4303b0a9		.L.str.57
.rodata.str1.1	0x4303b0e1	0x7	D:\GC_connection\GC_connection\gagent\libgagent.a(gatm2m.o)	#SHT_PROGBITS,SHF_ALLOC|SHF_MERGE|SHF_STRINGS,1
	0x4303b0e1		.L.str.58
.rodata.str1.1	0x4303b0e8	0x8	D:\GC_connection\GC_connection\gagent\libgagent.a(gatm2m.o)	#SHT_PROGBITS,SHF_ALLOC|SHF_MERGE|SHF_STRINGS,1
	0x4303b0e8		.L.str.59
.rodata.str1.1	0x4303b0f0	0x6	D:\GC_connection\GC_connection\gagent\libgagent.a(gatm2m.o)	#SHT_PROGBITS,SHF_ALLOC|SHF_MERGE|SHF_STRINGS,1
	0x4303b0f0		.L.str.60
.rodata.str1.1	0x4303b0f6	0x6	D:\GC_connection\GC_connection\gagent\libgagent.a(gatm2m.o)	#SHT_PROGBITS,SHF_ALLOC|SHF_MERGE|SHF_STRINGS,1
	0x4303b0f6		.L.str.61
.rodata.str1.1	0x4303b0fc	0x1f	D:\GC_connection\GC_connection\gagent\libgagent.a(gatm2m.o)	#SHT_PROGBITS,SHF_ALLOC|SHF_MERGE|SHF_STRINGS,1
	0x4303b0fc		.L.str.62
.rodata.str1.1	0x4303b11b	0x2f	D:\GC_connection\GC_connection\gagent\libgagent.a(gatm2m.o)	#SHT_PROGBITS,SHF_ALLOC|SHF_MERGE|SHF_STRINGS,1
	0x4303b11b		.L.str.63
.rodata.str1.1	0x4303b14a	0x13	D:\GC_connection\GC_connection\gagent\libgagent.a(gatm2m.o)	#SHT_PROGBITS,SHF_ALLOC|SHF_MERGE|SHF_STRINGS,1
	0x4303b14a		.L__FUNCTION__.onOTA4EventNoticCb
.rodata.str1.1	0x4303b15d	0x1a	D:\GC_connection\GC_connection\gagent\libgagent.a(gatm2m.o)	#SHT_PROGBITS,SHF_ALLOC|SHF_MERGE|SHF_STRINGS,1
	0x4303b15d		.L.str.64
.rodata.str1.1	0x4303b177	0x10	D:\GC_connection\GC_connection\gagent\libgagent.a(gatm2m.o)	#SHT_PROGBITS,SHF_ALLOC|SHF_MERGE|SHF_STRINGS,1
	0x4303b177		.L__FUNCTION__.cloudSendDataCb
.rodata.str1.1	0x4303b187	0x14	D:\GC_connection\GC_connection\gagent\libgagent.a(gatm2m.o)	#SHT_PROGBITS,SHF_ALLOC|SHF_MERGE|SHF_STRINGS,1
	0x4303b187		.L.str.65
.rodata.str1.1	0x4303b19b	0xd	D:\GC_connection\GC_connection\gagent\libgagent.a(gatm2m.o)	#SHT_PROGBITS,SHF_ALLOC|SHF_MERGE|SHF_STRINGS,1
	0x4303b19b		.L__FUNCTION__.gatM2MReInit
.rodata.str1.1	0x4303b1a8	0x24	D:\GC_connection\GC_connection\gagent\libgagent.a(gatm2m.o)	#SHT_PROGBITS,SHF_ALLOC|SHF_MERGE|SHF_STRINGS,1
	0x4303b1a8		.L.str.66
.rodata.str1.1	0x4303b1cc	0x10	D:\GC_connection\GC_connection\gagent\libgagent.a(gatm2m.o)	#SHT_PROGBITS,SHF_ALLOC|SHF_MERGE|SHF_STRINGS,1
	0x4303b1cc		.L.str.67
.rodata.str1.1	0x4303b1dc	0xe	D:\GC_connection\GC_connection\gagent\libgagent.a(gatm2m.o)	#SHT_PROGBITS,SHF_ALLOC|SHF_MERGE|SHF_STRINGS,1
	0x4303b1dc		.L.str.68
.rodata.str1.1	0x4303b1ea	0x11	D:\GC_connection\GC_connection\gagent\libgagent.a(gatm2m.o)	#SHT_PROGBITS,SHF_ALLOC|SHF_MERGE|SHF_STRINGS,1
	0x4303b1ea		.L__FUNCTION__.gatM2MServerStop
.rodata.str1.1	0x4303b1fb	0x23	D:\GC_connection\GC_connection\gagent\libgagent.a(gatm2m.o)	#SHT_PROGBITS,SHF_ALLOC|SHF_MERGE|SHF_STRINGS,1
	0x4303b1fb		.L.str.69
.rodata.str1.1	0x4303b21e	0x14	D:\GC_connection\GC_connection\gagent\libgagent.a(gatm2m.o)	#SHT_PROGBITS,SHF_ALLOC|SHF_MERGE|SHF_STRINGS,1
	0x4303b21e		.L__FUNCTION__.gatM2MReStartServer
.rodata.str1.1	0x4303b232	0x4d	D:\GC_connection\GC_connection\gagent\libgagent.a(gatm2m.o)	#SHT_PROGBITS,SHF_ALLOC|SHF_MERGE|SHF_STRINGS,1
	0x4303b232		.L.str.70
.rodata.str1.1	0x4303b27f	0x12	D:\GC_connection\GC_connection\gagent\libgagent.a(gatm2m.o)	#SHT_PROGBITS,SHF_ALLOC|SHF_MERGE|SHF_STRINGS,1
	0x4303b27f		.L.str.71
.rodata.str1.1	0x4303b291	0xd	D:\GC_connection\GC_connection\gagent\libgagent.a(gatm2m.o)	#SHT_PROGBITS,SHF_ALLOC|SHF_MERGE|SHF_STRINGS,1
	0x4303b291		.L.str.72
.rodata.str1.1	0x4303b29e	0x10	D:\GC_connection\GC_connection\gagent\libgagent.a(gatm2m.o)	#SHT_PROGBITS,SHF_ALLOC|SHF_MERGE|SHF_STRINGS,1
	0x4303b29e		.L__FUNCTION__.gatResCloudCtrl
.rodata.str1.1	0x4303b2ae	0x12	D:\GC_connection\GC_connection\gagent\libgagent.a(gatm2m.o)	#SHT_PROGBITS,SHF_ALLOC|SHF_MERGE|SHF_STRINGS,1
	0x4303b2ae		.L.str.73
.rodata.str1.1	0x4303b2c0	0x10	D:\GC_connection\GC_connection\gagent\libgagent.a(gatm2m.o)	#SHT_PROGBITS,SHF_ALLOC|SHF_MERGE|SHF_STRINGS,1
	0x4303b2c0		.L.str.74
.rodata.str1.1	0x4303b2d0	0x12	D:\GC_connection\GC_connection\gagent\libgagent.a(gatm2m.o)	#SHT_PROGBITS,SHF_ALLOC|SHF_MERGE|SHF_STRINGS,1
	0x4303b2d0		.L.str.75
.rodata.str1.1	0x4303b2e2	0xf	D:\GC_connection\GC_connection\gagent\libgagent.a(gatm2m.o)	#SHT_PROGBITS,SHF_ALLOC|SHF_MERGE|SHF_STRINGS,1
	0x4303b2e2		.L.str.76
.rodata.str1.1	0x4303b2f1	0xf	D:\GC_connection\GC_connection\gagent\libgagent.a(gatm2m.o)	#SHT_PROGBITS,SHF_ALLOC|SHF_MERGE|SHF_STRINGS,1
	0x4303b2f1		.L.str.77
.rodata.str1.1	0x4303b300	0xe	D:\GC_connection\GC_connection\gagent\libgagent.a(gatm2m.o)	#SHT_PROGBITS,SHF_ALLOC|SHF_MERGE|SHF_STRINGS,1
	0x4303b300		.L__FUNCTION__.gatM2MCommand
.rodata.str1.1	0x4303b30e	0x3b	D:\GC_connection\GC_connection\gagent\libgagent.a(gatm2m.o)	#SHT_PROGBITS,SHF_ALLOC|SHF_MERGE|SHF_STRINGS,1
	0x4303b30e		.L.str.79
.rodata.str1.1	0x4303b349	0x38	D:\GC_connection\GC_connection\gagent\libgagent.a(gatm2m.o)	#SHT_PROGBITS,SHF_ALLOC|SHF_MERGE|SHF_STRINGS,1
	0x4303b349		.L.str.80
.rodata.str1.1	0x4303b381	0x3b	D:\GC_connection\GC_connection\gagent\libgagent.a(gatm2m.o)	#SHT_PROGBITS,SHF_ALLOC|SHF_MERGE|SHF_STRINGS,1
	0x4303b381		.L.str.81
.rodata.str1.1	0x4303b3bc	0x3e	D:\GC_connection\GC_connection\gagent\libgagent.a(gatm2m.o)	#SHT_PROGBITS,SHF_ALLOC|SHF_MERGE|SHF_STRINGS,1
	0x4303b3bc		.L.str.82
.rodata.str1.1	0x4303b3fa	0x2e	D:\GC_connection\GC_connection\gagent\libgagent.a(gatm2m.o)	#SHT_PROGBITS,SHF_ALLOC|SHF_MERGE|SHF_STRINGS,1
	0x4303b3fa		.L.str.83
.rodata.str1.1	0x4303b428	0x8	D:\GC_connection\GC_connection\gagent\libgagent.a(gatm2m.o)	#SHT_PROGBITS,SHF_ALLOC|SHF_MERGE|SHF_STRINGS,1
	0x4303b428		.L__FUNCTION__.m2mSend
.rodata.str1.1	0x4303b430	0x25	D:\GC_connection\GC_connection\gagent\libgagent.a(gatm2m.o)	#SHT_PROGBITS,SHF_ALLOC|SHF_MERGE|SHF_STRINGS,1
	0x4303b430		.L.str.84
.rodata.str1.1	0x4303b455	0x16	D:\GC_connection\GC_connection\gagent\libgagent.a(gatm2m.o)	#SHT_PROGBITS,SHF_ALLOC|SHF_MERGE|SHF_STRINGS,1
	0x4303b455		.L__FUNCTION__.gatM2MHandleGatStatus
.rodata.str1.1	0x4303b46b	0x22	D:\GC_connection\GC_connection\gagent\libgagent.a(gatm2m.o)	#SHT_PROGBITS,SHF_ALLOC|SHF_MERGE|SHF_STRINGS,1
	0x4303b46b		.L.str.85
.rodata.str1.1	0x4303b48d	0x1e	D:\GC_connection\GC_connection\gagent\libgagent.a(gatm2m.o)	#SHT_PROGBITS,SHF_ALLOC|SHF_MERGE|SHF_STRINGS,1
	0x4303b48d		.L.str.86
.rodata.str1.1	0x4303b4ab	0x21	D:\GC_connection\GC_connection\gagent\libgagent.a(gatm2m.o)	#SHT_PROGBITS,SHF_ALLOC|SHF_MERGE|SHF_STRINGS,1
	0x4303b4ab		.L.str.87
.rodata.str1.1	0x4303b4cc	0xc	D:\GC_connection\GC_connection\gagent\libgagent.a(gatm2m.o)	#SHT_PROGBITS,SHF_ALLOC|SHF_MERGE|SHF_STRINGS,1
	0x4303b4cc		.L__FUNCTION__.gatm2mDnsCb
.rodata.str1.1	0x4303b4d8	0x25	D:\GC_connection\GC_connection\gagent\libgagent.a(gatm2m.o)	#SHT_PROGBITS,SHF_ALLOC|SHF_MERGE|SHF_STRINGS,1
	0x4303b4d8		.L.str.88
.rodata.str1.1	0x4303b4fd	0x33	D:\GC_connection\GC_connection\gagent\libgagent.a(gatm2m.o)	#SHT_PROGBITS,SHF_ALLOC|SHF_MERGE|SHF_STRINGS,1
	0x4303b4fd		.L.str.89
.rodata.str1.1	0x4303b530	0x38	D:\GC_connection\GC_connection\gagent\libgagent.a(gatnet.o)	#SHT_PROGBITS,SHF_ALLOC|SHF_MERGE|SHF_STRINGS,1
	0x4303b530		.L.str.2
.rodata.str1.1	0x4303b568	0x15	D:\GC_connection\GC_connection\gagent\libgagent.a(gatnet.o)	#SHT_PROGBITS,SHF_ALLOC|SHF_MERGE|SHF_STRINGS,1
	0x4303b568		.L__FUNCTION__.gatRouterConnTimeout
.rodata.str1.1	0x4303b57d	0x17	D:\GC_connection\GC_connection\gagent\libgagent.a(gatnet.o)	#SHT_PROGBITS,SHF_ALLOC|SHF_MERGE|SHF_STRINGS,1
	0x4303b57d		.L.str.3
.rodata.str1.1	0x4303b594	0x2	D:\GC_connection\GC_connection\gagent\libgagent.a(gatnet.o)	#SHT_PROGBITS,SHF_ALLOC|SHF_MERGE|SHF_STRINGS,1
	0x4303b594		.L.str.4
.rodata.str1.1	0x4303b596	0x27	D:\GC_connection\GC_connection\gagent\libgagent.a(gatnet.o)	#SHT_PROGBITS,SHF_ALLOC|SHF_MERGE|SHF_STRINGS,1
	0x4303b596		.L.str.5
.rodata.str1.1	0x4303b5bd	0x2	D:\GC_connection\GC_connection\gagent\libgagent.a(gatnet.o)	#SHT_PROGBITS,SHF_ALLOC|SHF_MERGE|SHF_STRINGS,1
	0x4303b5bd		.L.str.6
.rodata.str1.1	0x4303b5bf	0x29	D:\GC_connection\GC_connection\gagent\libgagent.a(gatnet.o)	#SHT_PROGBITS,SHF_ALLOC|SHF_MERGE|SHF_STRINGS,1
	0x4303b5bf		.L.str.7
.rodata.str1.1	0x4303b5e8	0x24	D:\GC_connection\GC_connection\gagent\libgagent.a(gatnet.o)	#SHT_PROGBITS,SHF_ALLOC|SHF_MERGE|SHF_STRINGS,1
	0x4303b5e8		.L.str.8
.rodata.str1.1	0x4303b60c	0x2b	D:\GC_connection\GC_connection\gagent\libgagent.a(gatnet.o)	#SHT_PROGBITS,SHF_ALLOC|SHF_MERGE|SHF_STRINGS,1
	0x4303b60c		.L.str.9
.rodata.str1.1	0x4303b637	0x12	D:\GC_connection\GC_connection\gagent\libgagent.a(gatnet.o)	#SHT_PROGBITS,SHF_ALLOC|SHF_MERGE|SHF_STRINGS,1
	0x4303b637		.L__FUNCTION__.gatNetEventHandle
.rodata.str1.1	0x4303b649	0xc	D:\GC_connection\GC_connection\gagent\libgagent.a(gatnet.o)	#SHT_PROGBITS,SHF_ALLOC|SHF_MERGE|SHF_STRINGS,1
	0x4303b649		.L.str.10
.rodata.str1.1	0x4303b655	0x30	D:\GC_connection\GC_connection\gagent\libgagent.a(gatnet.o)	#SHT_PROGBITS,SHF_ALLOC|SHF_MERGE|SHF_STRINGS,1
	0x4303b655		.L.str.11
.rodata.str1.1	0x4303b685	0x31	D:\GC_connection\GC_connection\gagent\libgagent.a(gatnet.o)	#SHT_PROGBITS,SHF_ALLOC|SHF_MERGE|SHF_STRINGS,1
	0x4303b685		.L.str.12
.rodata.str1.1	0x4303b6b6	0x1e	D:\GC_connection\GC_connection\gagent\libgagent.a(gatnet.o)	#SHT_PROGBITS,SHF_ALLOC|SHF_MERGE|SHF_STRINGS,1
	0x4303b6b6		.L.str.13
.rodata.str1.1	0x4303b6d4	0xb	D:\GC_connection\GC_connection\gagent\libgagent.a(gatnet.o)	#SHT_PROGBITS,SHF_ALLOC|SHF_MERGE|SHF_STRINGS,1
	0x4303b6d4		.L__FUNCTION__.gatNetInit
.rodata.str1.1	0x4303b6df	0x3c	D:\GC_connection\GC_connection\gagent\libgagent.a(gatnet.o)	#SHT_PROGBITS,SHF_ALLOC|SHF_MERGE|SHF_STRINGS,1
	0x4303b6df		.L.str.15
.rodata.str1.1	0x4303b71b	0x1b	D:\GC_connection\GC_connection\gagent\libgagent.a(gatnet.o)	#SHT_PROGBITS,SHF_ALLOC|SHF_MERGE|SHF_STRINGS,1
	0x4303b71b		.L.str.16
.rodata.str1.1	0x4303b736	0x27	D:\GC_connection\GC_connection\gagent\libgagent.a(gatnet.o)	#SHT_PROGBITS,SHF_ALLOC|SHF_MERGE|SHF_STRINGS,1
	0x4303b736		.L.str.17
.rodata.str1.1	0x4303b75d	0xd	D:\GC_connection\GC_connection\gagent\libgagent.a(gatnet.o)	#SHT_PROGBITS,SHF_ALLOC|SHF_MERGE|SHF_STRINGS,1
	0x4303b75d		.L__FUNCTION__.gatAirlinkCb
.rodata.str1.1	0x4303b76a	0x1d	D:\GC_connection\GC_connection\gagent\libgagent.a(gatnet.o)	#SHT_PROGBITS,SHF_ALLOC|SHF_MERGE|SHF_STRINGS,1
	0x4303b76a		.L.str.19
.rodata.str1.1	0x4303b787	0xd	D:\GC_connection\GC_connection\gagent\libgagent.a(gatnet.o)	#SHT_PROGBITS,SHF_ALLOC|SHF_MERGE|SHF_STRINGS,1
	0x4303b787		.L__FUNCTION__.gatNetConfig
.rodata.str1.1	0x4303b794	0xe	D:\GC_connection\GC_connection\gagent\libgagent.a(gatnet.o)	#SHT_PROGBITS,SHF_ALLOC|SHF_MERGE|SHF_STRINGS,1
	0x4303b794		.L.str.20
.rodata.str1.1	0x4303b7a2	0xe	D:\GC_connection\GC_connection\gagent\libgagent.a(gatnet.o)	#SHT_PROGBITS,SHF_ALLOC|SHF_MERGE|SHF_STRINGS,1
	0x4303b7a2		.L.str.21
.rodata.str1.1	0x4303b7b0	0x1e	D:\GC_connection\GC_connection\gagent\libgagent.a(gatnet.o)	#SHT_PROGBITS,SHF_ALLOC|SHF_MERGE|SHF_STRINGS,1
	0x4303b7b0		.L.str.22
.rodata.str1.1	0x4303b7ce	0x21	D:\GC_connection\GC_connection\gagent\libgagent.a(gatnet.o)	#SHT_PROGBITS,SHF_ALLOC|SHF_MERGE|SHF_STRINGS,1
	0x4303b7ce		.L.str.23
.rodata.str1.1	0x4303b7ef	0x12	D:\GC_connection\GC_connection\gagent\libgagent.a(gatnet.o)	#SHT_PROGBITS,SHF_ALLOC|SHF_MERGE|SHF_STRINGS,1
	0x4303b7ef		.L__FUNCTION__.gatNetWriteConfig
.rodata.str1.1	0x4303b801	0x1b	D:\GC_connection\GC_connection\gagent\libgagent.a(gatnet.o)	#SHT_PROGBITS,SHF_ALLOC|SHF_MERGE|SHF_STRINGS,1
	0x4303b801		.L.str.24
.rodata.str1.1	0x4303b81c	0x1e	D:\GC_connection\GC_connection\gagent\libgagent.a(gatnet.o)	#SHT_PROGBITS,SHF_ALLOC|SHF_MERGE|SHF_STRINGS,1
	0x4303b81c		.L.str.25
.rodata.str1.1	0x4303b83a	0x29	D:\GC_connection\GC_connection\gagent\libgagent.a(gatnet.o)	#SHT_PROGBITS,SHF_ALLOC|SHF_MERGE|SHF_STRINGS,1
	0x4303b83a		.L.str.26
.rodata.str1.1	0x4303b863	0x26	D:\GC_connection\GC_connection\gagent\libgagent.a(gatnet.o)	#SHT_PROGBITS,SHF_ALLOC|SHF_MERGE|SHF_STRINGS,1
	0x4303b863		.L.str.27
.rodata.str1.1	0x4303b889	0x2d	D:\GC_connection\GC_connection\gagent\libgagent.a(gatnet.o)	#SHT_PROGBITS,SHF_ALLOC|SHF_MERGE|SHF_STRINGS,1
	0x4303b889		.L.str.28
.rodata.str1.1	0x4303b8b6	0x1e	D:\GC_connection\GC_connection\gagent\libgagent.a(gatnet.o)	#SHT_PROGBITS,SHF_ALLOC|SHF_MERGE|SHF_STRINGS,1
	0x4303b8b6		.L.str.29
.rodata.str1.1	0x4303b8d4	0xd	D:\GC_connection\GC_connection\gagent\libgagent.a(gatnet.o)	#SHT_PROGBITS,SHF_ALLOC|SHF_MERGE|SHF_STRINGS,1
	0x4303b8d4		.L.str.30
.rodata.str1.1	0x4303b8e1	0x22	D:\GC_connection\GC_connection\gagent\libgagent.a(gatnet.o)	#SHT_PROGBITS,SHF_ALLOC|SHF_MERGE|SHF_STRINGS,1
	0x4303b8e1		.L.str.31
.rodata.str1.1	0x4303b903	0x20	D:\GC_connection\GC_connection\gagent\libgagent.a(gatnet.o)	#SHT_PROGBITS,SHF_ALLOC|SHF_MERGE|SHF_STRINGS,1
	0x4303b903		.L.str.32
.rodata.str1.1	0x4303b923	0x35	D:\GC_connection\GC_connection\gagent\libgagent.a(gatnet.o)	#SHT_PROGBITS,SHF_ALLOC|SHF_MERGE|SHF_STRINGS,1
	0x4303b923		.L.str.33
.rodata.str1.1	0x4303b958	0x10	D:\GC_connection\GC_connection\gagent\libgagent.a(gatnet.o)	#SHT_PROGBITS,SHF_ALLOC|SHF_MERGE|SHF_STRINGS,1
	0x4303b958		.L__FUNCTION__.gatTestModeTick
.rodata.str1.1	0x4303b968	0xf	D:\GC_connection\GC_connection\gagent\libgagent.a(gatnet.o)	#SHT_PROGBITS,SHF_ALLOC|SHF_MERGE|SHF_STRINGS,1
	0x4303b968		.L.str.34
.rodata.str1.1	0x4303b977	0x12	D:\GC_connection\GC_connection\gagent\libgagent.a(gatnet.o)	#SHT_PROGBITS,SHF_ALLOC|SHF_MERGE|SHF_STRINGS,1
	0x4303b977		.L.str.35
.rodata.str1.1	0x4303b989	0x1d	D:\GC_connection\GC_connection\gagent\libgagent.a(gatnet.o)	#SHT_PROGBITS,SHF_ALLOC|SHF_MERGE|SHF_STRINGS,1
	0x4303b989		.L.str.36
.rodata.str1.1	0x4303b9a6	0x13	D:\GC_connection\GC_connection\gagent\libgagent.a(gatnet.o)	#SHT_PROGBITS,SHF_ALLOC|SHF_MERGE|SHF_STRINGS,1
	0x4303b9a6		.L__FUNCTION__.gatConfigDataParse
.rodata.str1.1	0x4303b9b9	0x1a	D:\GC_connection\GC_connection\gagent\libgagent.a(gatnet.o)	#SHT_PROGBITS,SHF_ALLOC|SHF_MERGE|SHF_STRINGS,1
	0x4303b9b9		.L.str.37
.rodata.str1.1	0x4303b9d3	0x12	D:\GC_connection\GC_connection\gagent\libgagent.a(gatnet.o)	#SHT_PROGBITS,SHF_ALLOC|SHF_MERGE|SHF_STRINGS,1
	0x4303b9d3		.L.str.42
.rodata.str1.1	0x4303b9e5	0x12	D:\GC_connection\GC_connection\gagent\libgagent.a(gatnet.o)	#SHT_PROGBITS,SHF_ALLOC|SHF_MERGE|SHF_STRINGS,1
	0x4303b9e5		.L.str.43
.rodata.str1.1	0x4303b9f7	0x1d	D:\GC_connection\GC_connection\gagent\libgagent.a(gatnet.o)	#SHT_PROGBITS,SHF_ALLOC|SHF_MERGE|SHF_STRINGS,1
	0x4303b9f7		.L.str.44
.rodata.str1.1	0x4303ba14	0x1d	D:\GC_connection\GC_connection\gagent\libgagent.a(gatnet.o)	#SHT_PROGBITS,SHF_ALLOC|SHF_MERGE|SHF_STRINGS,1
	0x4303ba14		.L.str.45
.rodata.str1.1	0x4303ba31	0x27	D:\GC_connection\GC_connection\gagent\libgagent.a(gatnet.o)	#SHT_PROGBITS,SHF_ALLOC|SHF_MERGE|SHF_STRINGS,1
	0x4303ba31		.L.str.46
.rodata.str1.1	0x4303ba58	0x13	D:\GC_connection\GC_connection\gagent\libgagent.a(gatnet.o)	#SHT_PROGBITS,SHF_ALLOC|SHF_MERGE|SHF_STRINGS,1
	0x4303ba58		.L.str.47
.rodata.str1.1	0x4303ba6b	0x3e	D:\GC_connection\GC_connection\gagent\libgagent.a(gatnet.o)	#SHT_PROGBITS,SHF_ALLOC|SHF_MERGE|SHF_STRINGS,1
	0x4303ba6b		.L.str.48
.rodata.str1.1	0x4303baa9	0x3e	D:\GC_connection\GC_connection\gagent\libgagent.a(gatnet.o)	#SHT_PROGBITS,SHF_ALLOC|SHF_MERGE|SHF_STRINGS,1
	0x4303baa9		.L.str.50
.rodata.str1.1	0x4303bae7	0x12	D:\GC_connection\GC_connection\gagent\libgagent.a(gatnet.o)	#SHT_PROGBITS,SHF_ALLOC|SHF_MERGE|SHF_STRINGS,1
	0x4303bae7		.L.str.51
.rodata.str1.1	0x4303baf9	0x12	D:\GC_connection\GC_connection\gagent\libgagent.a(gatnet.o)	#SHT_PROGBITS,SHF_ALLOC|SHF_MERGE|SHF_STRINGS,1
	0x4303baf9		.L.str.52
.rodata.str1.1	0x4303bb0b	0x2b	D:\GC_connection\GC_connection\gagent\libgagent.a(gatnet.o)	#SHT_PROGBITS,SHF_ALLOC|SHF_MERGE|SHF_STRINGS,1
	0x4303bb0b		.L.str.53
.rodata.str1.1	0x4303bb36	0x27	D:\GC_connection\GC_connection\gagent\libgagent.a(gatnet.o)	#SHT_PROGBITS,SHF_ALLOC|SHF_MERGE|SHF_STRINGS,1
	0x4303bb36		.L.str.54
.rodata.str1.1	0x4303bb5d	0x25	D:\GC_connection\GC_connection\gagent\libgagent.a(gatnet.o)	#SHT_PROGBITS,SHF_ALLOC|SHF_MERGE|SHF_STRINGS,1
	0x4303bb5d		.L.str.55
.rodata.str1.1	0x4303bb82	0x32	D:\GC_connection\GC_connection\gagent\libgagent.a(gatnet.o)	#SHT_PROGBITS,SHF_ALLOC|SHF_MERGE|SHF_STRINGS,1
	0x4303bb82		.L.str.57
.rodata.str1.1	0x4303bbb4	0x50	D:\GC_connection\GC_connection\gagent\libgagent.a(gatnet.o)	#SHT_PROGBITS,SHF_ALLOC|SHF_MERGE|SHF_STRINGS,1
	0x4303bbb4		.L.str.58
.rodata.str1.1	0x4303bc04	0xe	D:\GC_connection\GC_connection\gagent\libgagent.a(gatnet.o)	#SHT_PROGBITS,SHF_ALLOC|SHF_MERGE|SHF_STRINGS,1
	0x4303bc04		.L.str.59
.rodata.str1.1	0x4303bc12	0x14	D:\GC_connection\GC_connection\gagent\libgagent.a(gatnet.o)	#SHT_PROGBITS,SHF_ALLOC|SHF_MERGE|SHF_STRINGS,1
	0x4303bc12		.L__FUNCTION__.gatRouterUpdateInfo
.rodata.str1.1	0x4303bc26	0x2f	D:\GC_connection\GC_connection\gagent\libgagent.a(gatnet.o)	#SHT_PROGBITS,SHF_ALLOC|SHF_MERGE|SHF_STRINGS,1
	0x4303bc26		.L.str.60
.rodata.str1.1	0x4303bc55	0x2f	D:\GC_connection\GC_connection\gagent\libgagent.a(gatnet.o)	#SHT_PROGBITS,SHF_ALLOC|SHF_MERGE|SHF_STRINGS,1
	0x4303bc55		.L.str.61
.rodata.str1.1	0x4303bc84	0xe	D:\GC_connection\GC_connection\gagent\libgagent.a(gatnet.o)	#SHT_PROGBITS,SHF_ALLOC|SHF_MERGE|SHF_STRINGS,1
	0x4303bc84		.L.str.63
.rodata.str1.1	0x4303bc92	0x13	D:\GC_connection\GC_connection\gagent\libgagent.a(gatnet.o)	#SHT_PROGBITS,SHF_ALLOC|SHF_MERGE|SHF_STRINGS,1
	0x4303bc92		.L__FUNCTION__.gatNetExcepTimeout
.rodata.str1.1	0x4303bca5	0x27	D:\GC_connection\GC_connection\gagent\libgagent.a(gatutilcode.o)	#SHT_PROGBITS,SHF_ALLOC|SHF_MERGE|SHF_STRINGS,1
	0x4303bca5		.L.str.2
.rodata.str1.1	0x4303bccc	0x25	D:\GC_connection\GC_connection\gagent\libgagent.a(gatutilcode.o)	#SHT_PROGBITS,SHF_ALLOC|SHF_MERGE|SHF_STRINGS,1
	0x4303bccc		.L.str.3
.rodata.str1.1	0x4303bcf1	0x5	D:\GC_connection\GC_connection\gagent\libgagent.a(gatutilcode.o)	#SHT_PROGBITS,SHF_ALLOC|SHF_MERGE|SHF_STRINGS,1
	0x4303bcf1		.L.str.4
.rodata.str1.1	0x4303bcf6	0x3c	D:\GC_connection\GC_connection\gagent\libgagent.a(gatutilcode.o)	#SHT_PROGBITS,SHF_ALLOC|SHF_MERGE|SHF_STRINGS,1
	0x4303bcf6		.L.str.7
.rodata.str1.1	0x4303bd32	0xe	D:\GC_connection\GC_connection\gagent\libgagent.a(gatutilcode.o)	#SHT_PROGBITS,SHF_ALLOC|SHF_MERGE|SHF_STRINGS,1
	0x4303bd32		.L.str.8
.rodata.str1.1	0x4303bd40	0x15	D:\GC_connection\GC_connection\gagent\libgagent.a(gatutilcode.o)	#SHT_PROGBITS,SHF_ALLOC|SHF_MERGE|SHF_STRINGS,1
	0x4303bd40		.L__FUNCTION__.gatUpLoadDataCombine
.rodata.str1.1	0x4303bd55	0x1f	D:\GC_connection\GC_connection\gagent\libgagent.a(gatutilcode.o)	#SHT_PROGBITS,SHF_ALLOC|SHF_MERGE|SHF_STRINGS,1
	0x4303bd55		.L.str.9
.rodata.str1.1	0x4303bd74	0x20	D:\GC_connection\GC_connection\gagent\libgagent.a(gatutilcode.o)	#SHT_PROGBITS,SHF_ALLOC|SHF_MERGE|SHF_STRINGS,1
	0x4303bd74		.L.str.10
.rodata.str1.1	0x4303bd94	0x18	D:\GC_connection\GC_connection\gagent\libgagent.a(gatutilcode.o)	#SHT_PROGBITS,SHF_ALLOC|SHF_MERGE|SHF_STRINGS,1
	0x4303bd94		.L.str.11
PADDING_ALIGNMENT	0x4303bdac	0x4	0x0
.rodata	0x4303bdb0	0x30	D:\GC_connection\GC_connection\gagent\libgagent.a(gatutilcode.o)	#SHT_PROGBITS,SHF_ALLOC,8
.rodata.str1.1	0x4303bde0	0x28	D:\GC_connection\GC_connection\gagent\libgagent.a(gdns.o)	#SHT_PROGBITS,SHF_ALLOC|SHF_MERGE|SHF_STRINGS,1
	0x4303bde0		.L.str.2
.rodata.str1.1	0x4303be08	0x13	D:\GC_connection\GC_connection\gagent\libgagent.a(gdns.o)	#SHT_PROGBITS,SHF_ALLOC|SHF_MERGE|SHF_STRINGS,1
	0x4303be08		.L.str.3
.rodata.str1.1	0x4303be1b	0x18	D:\GC_connection\GC_connection\gagent\libgagent.a(gdns.o)	#SHT_PROGBITS,SHF_ALLOC|SHF_MERGE|SHF_STRINGS,1
	0x4303be1b		.L.str.4
.rodata.str1.1	0x4303be33	0x1b	D:\GC_connection\GC_connection\gagent\libgagent.a(gdns.o)	#SHT_PROGBITS,SHF_ALLOC|SHF_MERGE|SHF_STRINGS,1
	0x4303be33		.L.str.5
.rodata.str1.1	0x4303be4e	0x19	D:\GC_connection\GC_connection\gagent\libgagent.a(gdns.o)	#SHT_PROGBITS,SHF_ALLOC|SHF_MERGE|SHF_STRINGS,1
	0x4303be4e		.L.str.6
.rodata.str1.1	0x4303be67	0x19	D:\GC_connection\GC_connection\gagent\libgagent.a(gdns.o)	#SHT_PROGBITS,SHF_ALLOC|SHF_MERGE|SHF_STRINGS,1
	0x4303be67		.L.str.7
.rodata.str1.1	0x4303be80	0x19	D:\GC_connection\GC_connection\gagent\libgagent.a(gdns.o)	#SHT_PROGBITS,SHF_ALLOC|SHF_MERGE|SHF_STRINGS,1
	0x4303be80		.L.str.8
.rodata.str1.1	0x4303be99	0x19	D:\GC_connection\GC_connection\gagent\libgagent.a(gdns.o)	#SHT_PROGBITS,SHF_ALLOC|SHF_MERGE|SHF_STRINGS,1
	0x4303be99		.L.str.9
.rodata.str1.1	0x4303beb2	0x1b	D:\GC_connection\GC_connection\gagent\libgagent.a(gdns.o)	#SHT_PROGBITS,SHF_ALLOC|SHF_MERGE|SHF_STRINGS,1
	0x4303beb2		.L.str.10
.rodata.str1.1	0x4303becd	0x2a	D:\GC_connection\GC_connection\gagent\libgagent.a(gdns.o)	#SHT_PROGBITS,SHF_ALLOC|SHF_MERGE|SHF_STRINGS,1
	0x4303becd		.L.str.11
.rodata.str1.1	0x4303bef7	0x11	D:\GC_connection\GC_connection\gagent\libgagent.a(gdns.o)	#SHT_PROGBITS,SHF_ALLOC|SHF_MERGE|SHF_STRINGS,1
	0x4303bef7		.L__FUNCTION__.gatGetHostByName
.rodata.str1.1	0x4303bf08	0x1b	D:\GC_connection\GC_connection\gagent\libgagent.a(gdns.o)	#SHT_PROGBITS,SHF_ALLOC|SHF_MERGE|SHF_STRINGS,1
	0x4303bf08		.L.str.12
.rodata.str1.1	0x4303bf23	0x8	D:\GC_connection\GC_connection\gagent\libgagent.a(gdns.o)	#SHT_PROGBITS,SHF_ALLOC|SHF_MERGE|SHF_STRINGS,1
	0x4303bf23		.L.str.13
.rodata.str1.1	0x4303bf2b	0x47	D:\GC_connection\GC_connection\gagent\libgagent.a(gdns.o)	#SHT_PROGBITS,SHF_ALLOC|SHF_MERGE|SHF_STRINGS,1
	0x4303bf2b		.L.str.15
.rodata.str1.1	0x4303bf72	0x2b	D:\GC_connection\GC_connection\gagent\libgagent.a(gdns.o)	#SHT_PROGBITS,SHF_ALLOC|SHF_MERGE|SHF_STRINGS,1
	0x4303bf72		.L.str.16
.rodata.str1.1	0x4303bf9d	0x11	D:\GC_connection\GC_connection\gagent\libgagent.a(gdns.o)	#SHT_PROGBITS,SHF_ALLOC|SHF_MERGE|SHF_STRINGS,1
	0x4303bf9d		.L__FUNCTION__._getDnsReqByName
.rodata.str1.1	0x4303bfae	0x24	D:\GC_connection\GC_connection\gagent\libgagent.a(gdns.o)	#SHT_PROGBITS,SHF_ALLOC|SHF_MERGE|SHF_STRINGS,1
	0x4303bfae		.L.str.17
.rodata.str1.1	0x4303bfd2	0xb	D:\GC_connection\GC_connection\gagent\libgagent.a(gdns.o)	#SHT_PROGBITS,SHF_ALLOC|SHF_MERGE|SHF_STRINGS,1
	0x4303bfd2		.L__FUNCTION__._dnsResult
.rodata.str1.1	0x4303bfdd	0x18	D:\GC_connection\GC_connection\gagent\libgagent.a(gdns.o)	#SHT_PROGBITS,SHF_ALLOC|SHF_MERGE|SHF_STRINGS,1
	0x4303bfdd		.L.str.19
.rodata.str1.1	0x4303bff5	0x1c	D:\GC_connection\GC_connection\gagent\libgagent.a(gdns.o)	#SHT_PROGBITS,SHF_ALLOC|SHF_MERGE|SHF_STRINGS,1
	0x4303bff5		.L.str.20
.rodata.str1.1	0x4303c011	0x1b	D:\GC_connection\GC_connection\gagent\libgagent.a(gdns.o)	#SHT_PROGBITS,SHF_ALLOC|SHF_MERGE|SHF_STRINGS,1
	0x4303c011		.L.str.21
.rodata.str1.1	0x4303c02c	0x2e	D:\GC_connection\GC_connection\gagent\libgagent.a(gdns.o)	#SHT_PROGBITS,SHF_ALLOC|SHF_MERGE|SHF_STRINGS,1
	0x4303c02c		.L.str.22
.rodata.str1.1	0x4303c05a	0x8	D:\GC_connection\GC_connection\gagent\libgagent.a(gdns.o)	#SHT_PROGBITS,SHF_ALLOC|SHF_MERGE|SHF_STRINGS,1
	0x4303c05a		.L.str.23
.rodata.str1.1	0x4303c062	0x1f	D:\GC_connection\GC_connection\gagent\libgagent.a(gdns.o)	#SHT_PROGBITS,SHF_ALLOC|SHF_MERGE|SHF_STRINGS,1
	0x4303c062		.L.str.24
.rodata.str1.1	0x4303c081	0xc	D:\GC_connection\GC_connection\gagent\libgagent.a(gdns.o)	#SHT_PROGBITS,SHF_ALLOC|SHF_MERGE|SHF_STRINGS,1
	0x4303c081		.L__FUNCTION__._dnsIpFound
.rodata.str1.1	0x4303c08d	0x21	D:\GC_connection\GC_connection\gagent\libgagent.a(gdns.o)	#SHT_PROGBITS,SHF_ALLOC|SHF_MERGE|SHF_STRINGS,1
	0x4303c08d		.L.str.25
.rodata.str1.1	0x4303c0ae	0x9	D:\GC_connection\GC_connection\gagent\libgagent.a(gdns.o)	#SHT_PROGBITS,SHF_ALLOC|SHF_MERGE|SHF_STRINGS,1
	0x4303c0ae		.L__FUNCTION__._dnsTick
.rodata.str1.1	0x4303c0b7	0x16	D:\GC_connection\GC_connection\gagent\libgagent.a(gdns.o)	#SHT_PROGBITS,SHF_ALLOC|SHF_MERGE|SHF_STRINGS,1
	0x4303c0b7		.L.str.26
.rodata.str1.1	0x4303c0cd	0x11	D:\GC_connection\GC_connection\gagent\libgagent.a(gserver.o)	#SHT_PROGBITS,SHF_ALLOC|SHF_MERGE|SHF_STRINGS,1
	0x4303c0cd		.L__FUNCTION__.Http_Decrypt_RES
.rodata.str1.1	0x4303c0de	0x35	D:\GC_connection\GC_connection\gagent\libgagent.a(gserver.o)	#SHT_PROGBITS,SHF_ALLOC|SHF_MERGE|SHF_STRINGS,1
	0x4303c0de		.L.str.2
.rodata.str1.1	0x4303c113	0x30	D:\GC_connection\GC_connection\gagent\libgagent.a(gserver.o)	#SHT_PROGBITS,SHF_ALLOC|SHF_MERGE|SHF_STRINGS,1
	0x4303c113		.L.str.3
.rodata.str1.1	0x4303c143	0x23	D:\GC_connection\GC_connection\gagent\libgagent.a(gserver.o)	#SHT_PROGBITS,SHF_ALLOC|SHF_MERGE|SHF_STRINGS,1
	0x4303c143		.L.str.6
.rodata.str1.1	0x4303c166	0x20	D:\GC_connection\GC_connection\gagent\libgagent.a(gserver.o)	#SHT_PROGBITS,SHF_ALLOC|SHF_MERGE|SHF_STRINGS,1
	0x4303c166		.L.str.7
.rodata.str1.1	0x4303c186	0x1c	D:\GC_connection\GC_connection\gagent\libgagent.a(gserver.o)	#SHT_PROGBITS,SHF_ALLOC|SHF_MERGE|SHF_STRINGS,1
	0x4303c186		.L.str.8
.rodata.str1.1	0x4303c1a2	0x2e	D:\GC_connection\GC_connection\gagent\libgagent.a(gserver.o)	#SHT_PROGBITS,SHF_ALLOC|SHF_MERGE|SHF_STRINGS,1
	0x4303c1a2		.L.str.9
.rodata.str1.1	0x4303c1d0	0x22	D:\GC_connection\GC_connection\gagent\libgagent.a(gserver.o)	#SHT_PROGBITS,SHF_ALLOC|SHF_MERGE|SHF_STRINGS,1
	0x4303c1d0		.L.str.10
.rodata.str1.1	0x4303c1f2	0xb	D:\GC_connection\GC_connection\gagent\libgagent.a(gserver.o)	#SHT_PROGBITS,SHF_ALLOC|SHF_MERGE|SHF_STRINGS,1
	0x4303c1f2		.L.str.11
.rodata.str1.1	0x4303c1fd	0x1f	D:\GC_connection\GC_connection\gagent\libgagent.a(gserver.o)	#SHT_PROGBITS,SHF_ALLOC|SHF_MERGE|SHF_STRINGS,1
	0x4303c1fd		.L.str.13
.rodata.str1.1	0x4303c21c	0x5	D:\GC_connection\GC_connection\gagent\libgagent.a(gserver.o)	#SHT_PROGBITS,SHF_ALLOC|SHF_MERGE|SHF_STRINGS,1
	0x4303c21c		.L.str.14
.rodata.str1.1	0x4303c221	0x27	D:\GC_connection\GC_connection\gagent\libgagent.a(gserver.o)	#SHT_PROGBITS,SHF_ALLOC|SHF_MERGE|SHF_STRINGS,1
	0x4303c221		.L.str.15
.rodata.str1.1	0x4303c248	0xc	D:\GC_connection\GC_connection\gagent\libgagent.a(gserver.o)	#SHT_PROGBITS,SHF_ALLOC|SHF_MERGE|SHF_STRINGS,1
	0x4303c248		.L__FUNCTION__.gatRegsiter
.rodata.str1.1	0x4303c254	0x34	D:\GC_connection\GC_connection\gagent\libgagent.a(gserver.o)	#SHT_PROGBITS,SHF_ALLOC|SHF_MERGE|SHF_STRINGS,1
	0x4303c254		.L.str.16
.rodata.str1.1	0x4303c288	0x1c	D:\GC_connection\GC_connection\gagent\libgagent.a(gserver.o)	#SHT_PROGBITS,SHF_ALLOC|SHF_MERGE|SHF_STRINGS,1
	0x4303c288		.L.str.21
.rodata.str1.1	0x4303c2a4	0x15	D:\GC_connection\GC_connection\gagent\libgagent.a(gserver.o)	#SHT_PROGBITS,SHF_ALLOC|SHF_MERGE|SHF_STRINGS,1
	0x4303c2a4		.L.str.22
.rodata.str1.1	0x4303c2b9	0xa	D:\GC_connection\GC_connection\gagent\libgagent.a(gserver.o)	#SHT_PROGBITS,SHF_ALLOC|SHF_MERGE|SHF_STRINGS,1
	0x4303c2b9		.L.str.23
.rodata.str1.1	0x4303c2c3	0x6	D:\GC_connection\GC_connection\gagent\libgagent.a(gserver.o)	#SHT_PROGBITS,SHF_ALLOC|SHF_MERGE|SHF_STRINGS,1
	0x4303c2c3		.L.str.24
.rodata.str1.1	0x4303c2c9	0x6	D:\GC_connection\GC_connection\gagent\libgagent.a(gserver.o)	#SHT_PROGBITS,SHF_ALLOC|SHF_MERGE|SHF_STRINGS,1
	0x4303c2c9		.L.str.25
.rodata.str1.1	0x4303c2cf	0x5	D:\GC_connection\GC_connection\gagent\libgagent.a(gserver.o)	#SHT_PROGBITS,SHF_ALLOC|SHF_MERGE|SHF_STRINGS,1
	0x4303c2cf		.L.str.26
.rodata.str1.1	0x4303c2d4	0x6	D:\GC_connection\GC_connection\gagent\libgagent.a(gserver.o)	#SHT_PROGBITS,SHF_ALLOC|SHF_MERGE|SHF_STRINGS,1
	0x4303c2d4		.L.str.27
.rodata.str1.1	0x4303c2da	0x18	D:\GC_connection\GC_connection\gagent\libgagent.a(gserver.o)	#SHT_PROGBITS,SHF_ALLOC|SHF_MERGE|SHF_STRINGS,1
	0x4303c2da		.L.str.28
.rodata.str1.1	0x4303c2f2	0x9	D:\GC_connection\GC_connection\gagent\libgagent.a(gserver.o)	#SHT_PROGBITS,SHF_ALLOC|SHF_MERGE|SHF_STRINGS,1
	0x4303c2f2		.L.str.29
.rodata.str1.1	0x4303c2fb	0x5	D:\GC_connection\GC_connection\gagent\libgagent.a(gserver.o)	#SHT_PROGBITS,SHF_ALLOC|SHF_MERGE|SHF_STRINGS,1
	0x4303c2fb		.L.str.30
.rodata.str1.1	0x4303c300	0xb	D:\GC_connection\GC_connection\gagent\libgagent.a(gserver.o)	#SHT_PROGBITS,SHF_ALLOC|SHF_MERGE|SHF_STRINGS,1
	0x4303c300		.L.str.32
.rodata.str1.1	0x4303c30b	0x15	D:\GC_connection\GC_connection\gagent\libgagent.a(gserver.o)	#SHT_PROGBITS,SHF_ALLOC|SHF_MERGE|SHF_STRINGS,1
	0x4303c30b		.L.str.33
.rodata.str1.1	0x4303c320	0x9	D:\GC_connection\GC_connection\gagent\libgagent.a(gserver.o)	#SHT_PROGBITS,SHF_ALLOC|SHF_MERGE|SHF_STRINGS,1
	0x4303c320		.L.str.34
.rodata.str1.1	0x4303c329	0x16	D:\GC_connection\GC_connection\gagent\libgagent.a(gserver.o)	#SHT_PROGBITS,SHF_ALLOC|SHF_MERGE|SHF_STRINGS,1
	0x4303c329		.L.str.35
.rodata.str1.1	0x4303c33f	0xb	D:\GC_connection\GC_connection\gagent\libgagent.a(gserver.o)	#SHT_PROGBITS,SHF_ALLOC|SHF_MERGE|SHF_STRINGS,1
	0x4303c33f		.L.str.37
.rodata.str1.1	0x4303c34a	0x8	D:\GC_connection\GC_connection\gagent\libgagent.a(gserver.o)	#SHT_PROGBITS,SHF_ALLOC|SHF_MERGE|SHF_STRINGS,1
	0x4303c34a		.L.str.38
.rodata.str1.1	0x4303c352	0x6	D:\GC_connection\GC_connection\gagent\libgagent.a(gserver.o)	#SHT_PROGBITS,SHF_ALLOC|SHF_MERGE|SHF_STRINGS,1
	0x4303c352		.L.str.39
.rodata.str1.1	0x4303c358	0xf	D:\GC_connection\GC_connection\gagent\libgagent.a(gserver.o)	#SHT_PROGBITS,SHF_ALLOC|SHF_MERGE|SHF_STRINGS,1
	0x4303c358		.L.str.40
.rodata.str1.1	0x4303c367	0x2a	D:\GC_connection\GC_connection\gagent\libgagent.a(gserver.o)	#SHT_PROGBITS,SHF_ALLOC|SHF_MERGE|SHF_STRINGS,1
	0x4303c367		.L.str.41
.rodata.str1.1	0x4303c391	0x23	D:\GC_connection\GC_connection\gagent\libgagent.a(gserver.o)	#SHT_PROGBITS,SHF_ALLOC|SHF_MERGE|SHF_STRINGS,1
	0x4303c391		.L.str.42
.rodata.str1.1	0x4303c3b4	0x15	D:\GC_connection\GC_connection\gagent\libgagent.a(gserver.o)	#SHT_PROGBITS,SHF_ALLOC|SHF_MERGE|SHF_STRINGS,1
	0x4303c3b4		.L.str.44
.rodata.str1.1	0x4303c3c9	0x2	D:\GC_connection\GC_connection\gagent\libgagent.a(gserver.o)	#SHT_PROGBITS,SHF_ALLOC|SHF_MERGE|SHF_STRINGS,1
	0x4303c3c9		.L.str.45
.rodata.str1.1	0x4303c3cb	0xd	D:\GC_connection\GC_connection\gagent\libgagent.a(gserver.o)	#SHT_PROGBITS,SHF_ALLOC|SHF_MERGE|SHF_STRINGS,1
	0x4303c3cb		.L__FUNCTION__.gatProvision
.rodata.str1.1	0x4303c3d8	0x18	D:\GC_connection\GC_connection\gagent\libgagent.a(gserver.o)	#SHT_PROGBITS,SHF_ALLOC|SHF_MERGE|SHF_STRINGS,1
	0x4303c3d8		.L.str.47
.rodata.str1.1	0x4303c3f0	0x23	D:\GC_connection\GC_connection\gagent\libgagent.a(gserver.o)	#SHT_PROGBITS,SHF_ALLOC|SHF_MERGE|SHF_STRINGS,1
	0x4303c3f0		.L.str.48
.rodata.str1.1	0x4303c413	0x16	D:\GC_connection\GC_connection\gagent\libgagent.a(gserver.o)	#SHT_PROGBITS,SHF_ALLOC|SHF_MERGE|SHF_STRINGS,1
	0x4303c413		.L.str.50
.rodata.str1.1	0x4303c429	0x23	D:\GC_connection\GC_connection\gagent\libgagent.a(gserver.o)	#SHT_PROGBITS,SHF_ALLOC|SHF_MERGE|SHF_STRINGS,1
	0x4303c429		.L.str.51
.rodata.str1.1	0x4303c44c	0x10	D:\GC_connection\GC_connection\gagent\libgagent.a(gserver.o)	#SHT_PROGBITS,SHF_ALLOC|SHF_MERGE|SHF_STRINGS,1
	0x4303c44c		.L.str.52
.rodata.str1.1	0x4303c45c	0x1b	D:\GC_connection\GC_connection\gagent\libgagent.a(gserver.o)	#SHT_PROGBITS,SHF_ALLOC|SHF_MERGE|SHF_STRINGS,1
	0x4303c45c		.L.str.53
.rodata.str1.1	0x4303c477	0x17	D:\GC_connection\GC_connection\gagent\libgagent.a(gserver.o)	#SHT_PROGBITS,SHF_ALLOC|SHF_MERGE|SHF_STRINGS,1
	0x4303c477		.L__FUNCTION__.gatNormalDeviceDisable
.rodata.str1.1	0x4303c48e	0x19	D:\GC_connection\GC_connection\gagent\libgagent.a(gserver.o)	#SHT_PROGBITS,SHF_ALLOC|SHF_MERGE|SHF_STRINGS,1
	0x4303c48e		.L.str.54
.rodata.str1.1	0x4303c4a7	0x13	D:\GC_connection\GC_connection\gagent\libgagent.a(gserver.o)	#SHT_PROGBITS,SHF_ALLOC|SHF_MERGE|SHF_STRINGS,1
	0x4303c4a7		.L.str.55
.rodata.str1.1	0x4303c4ba	0x34	D:\GC_connection\GC_connection\gagent\libgagent.a(gserver.o)	#SHT_PROGBITS,SHF_ALLOC|SHF_MERGE|SHF_STRINGS,1
	0x4303c4ba		.L.str.56
.rodata.str1.1	0x4303c4ee	0x29	D:\GC_connection\GC_connection\gagent\libgagent.a(gserver.o)	#SHT_PROGBITS,SHF_ALLOC|SHF_MERGE|SHF_STRINGS,1
	0x4303c4ee		.L.str.57
.rodata.str1.1	0x4303c517	0x43	D:\GC_connection\GC_connection\gagent\libgagent.a(gserver.o)	#SHT_PROGBITS,SHF_ALLOC|SHF_MERGE|SHF_STRINGS,1
	0x4303c517		.L.str.58
.rodata.str1.1	0x4303c55a	0x3b	D:\GC_connection\GC_connection\gagent\libgagent.a(gserver.o)	#SHT_PROGBITS,SHF_ALLOC|SHF_MERGE|SHF_STRINGS,1
	0x4303c55a		.L.str.59
.rodata.str1.1	0x4303c595	0x2b	D:\GC_connection\GC_connection\gagent\libgagent.a(gserver.o)	#SHT_PROGBITS,SHF_ALLOC|SHF_MERGE|SHF_STRINGS,1
	0x4303c595		.L.str.60
.rodata.str1.1	0x4303c5c0	0x2b	D:\GC_connection\GC_connection\gagent\libgagent.a(gserver.o)	#SHT_PROGBITS,SHF_ALLOC|SHF_MERGE|SHF_STRINGS,1
	0x4303c5c0		.L.str.61
.rodata.str1.1	0x4303c5eb	0x12	D:\GC_connection\GC_connection\gagent\libgagent.a(gserver.o)	#SHT_PROGBITS,SHF_ALLOC|SHF_MERGE|SHF_STRINGS,1
	0x4303c5eb		.L.str.62
.rodata.str1.1	0x4303c5fd	0x1c	D:\GC_connection\GC_connection\gagent\libgagent.a(gserver.o)	#SHT_PROGBITS,SHF_ALLOC|SHF_MERGE|SHF_STRINGS,1
	0x4303c5fd		.L.str.63
.rodata.str1.1	0x4303c619	0x2c	D:\GC_connection\GC_connection\gagent\libgagent.a(gserver.o)	#SHT_PROGBITS,SHF_ALLOC|SHF_MERGE|SHF_STRINGS,1
	0x4303c619		.L.str.64
.rodata.str1.1	0x4303c645	0x21	D:\GC_connection\GC_connection\gagent\libgagent.a(gserver.o)	#SHT_PROGBITS,SHF_ALLOC|SHF_MERGE|SHF_STRINGS,1
	0x4303c645		.L.str.65
.rodata.str1.1	0x4303c666	0x12	D:\GC_connection\GC_connection\gagent\libgagent.a(gserver.o)	#SHT_PROGBITS,SHF_ALLOC|SHF_MERGE|SHF_STRINGS,1
	0x4303c666		.L.str.66
.rodata.str1.1	0x4303c678	0xb	D:\GC_connection\GC_connection\gagent\libgagent.a(gserver.o)	#SHT_PROGBITS,SHF_ALLOC|SHF_MERGE|SHF_STRINGS,1
	0x4303c678		.L__FUNCTION__.packRegPkt
.rodata.str1.1	0x4303c683	0x23	D:\GC_connection\GC_connection\gagent\libgagent.a(gserver.o)	#SHT_PROGBITS,SHF_ALLOC|SHF_MERGE|SHF_STRINGS,1
	0x4303c683		.L.str.67
.rodata.str1.1	0x4303c6a6	0x56	D:\GC_connection\GC_connection\gagent\libgagent.a(gserver.o)	#SHT_PROGBITS,SHF_ALLOC|SHF_MERGE|SHF_STRINGS,1
	0x4303c6a6		.L.str.68
.rodata.str1.1	0x4303c6fc	0x36	D:\GC_connection\GC_connection\gagent\libgagent.a(gserver.o)	#SHT_PROGBITS,SHF_ALLOC|SHF_MERGE|SHF_STRINGS,1
	0x4303c6fc		.L.str.69
.rodata.str1.1	0x4303c732	0x5e	D:\GC_connection\GC_connection\gagent\libgagent.a(gserver.o)	#SHT_PROGBITS,SHF_ALLOC|SHF_MERGE|SHF_STRINGS,1
	0x4303c732		.L.str.70
.rodata.str1.1	0x4303c790	0x3e	D:\GC_connection\GC_connection\gagent\libgagent.a(gserver.o)	#SHT_PROGBITS,SHF_ALLOC|SHF_MERGE|SHF_STRINGS,1
	0x4303c790		.L.str.71
.rodata.str1.1	0x4303c7ce	0xd	D:\GC_connection\GC_connection\gagent\libgagent.a(gserver.o)	#SHT_PROGBITS,SHF_ALLOC|SHF_MERGE|SHF_STRINGS,1
	0x4303c7ce		.L.str.72
.rodata.str1.1	0x4303c7db	0x48	D:\GC_connection\GC_connection\gagent\libgagent.a(gserver.o)	#SHT_PROGBITS,SHF_ALLOC|SHF_MERGE|SHF_STRINGS,1
	0x4303c7db		.L.str.73
.rodata.str1.1	0x4303c823	0x28	D:\GC_connection\GC_connection\gagent\libgagent.a(gserver.o)	#SHT_PROGBITS,SHF_ALLOC|SHF_MERGE|SHF_STRINGS,1
	0x4303c823		.L.str.74
.rodata.str1.1	0x4303c84b	0x50	D:\GC_connection\GC_connection\gagent\libgagent.a(gserver.o)	#SHT_PROGBITS,SHF_ALLOC|SHF_MERGE|SHF_STRINGS,1
	0x4303c84b		.L.str.75
.rodata.str1.1	0x4303c89b	0x30	D:\GC_connection\GC_connection\gagent\libgagent.a(gserver.o)	#SHT_PROGBITS,SHF_ALLOC|SHF_MERGE|SHF_STRINGS,1
	0x4303c89b		.L.str.76
.rodata.str1.1	0x4303c8cb	0x18	D:\GC_connection\GC_connection\gagent\libgagent.a(gserver.o)	#SHT_PROGBITS,SHF_ALLOC|SHF_MERGE|SHF_STRINGS,1
	0x4303c8cb		.L.str.77
.rodata.str1.1	0x4303c8e3	0xf	D:\GC_connection\GC_connection\gagent\libgagent.a(gserver.o)	#SHT_PROGBITS,SHF_ALLOC|SHF_MERGE|SHF_STRINGS,1
	0x4303c8e3		.L.str.78
.rodata.str1.1	0x4303c8f2	0x13	D:\GC_connection\GC_connection\gagent\libgagent.a(gserver.o)	#SHT_PROGBITS,SHF_ALLOC|SHF_MERGE|SHF_STRINGS,1
	0x4303c8f2		.L.str.79
.rodata.str1.1	0x4303c905	0x23	D:\GC_connection\GC_connection\gagent\libgagent.a(gserver.o)	#SHT_PROGBITS,SHF_ALLOC|SHF_MERGE|SHF_STRINGS,1
	0x4303c905		.L.str.80
.rodata.str1.1	0x4303c928	0x6	D:\GC_connection\GC_connection\gagent\libgagent.a(gserver.o)	#SHT_PROGBITS,SHF_ALLOC|SHF_MERGE|SHF_STRINGS,1
.rodata.str1.1	0x4303c92e	0x23	D:\GC_connection\GC_connection\gagent\libgagent.a(gserver.o)	#SHT_PROGBITS,SHF_ALLOC|SHF_MERGE|SHF_STRINGS,1
	0x4303c92e		.L.str.82
.rodata.str1.1	0x4303c951	0x1a	D:\GC_connection\GC_connection\gagent\libgagent.a(gserver.o)	#SHT_PROGBITS,SHF_ALLOC|SHF_MERGE|SHF_STRINGS,1
	0x4303c951		.L.str.83
.rodata.str1.1	0x4303c96b	0x2b	D:\GC_connection\GC_connection\gagent\libgagent.a(gserver.o)	#SHT_PROGBITS,SHF_ALLOC|SHF_MERGE|SHF_STRINGS,1
	0x4303c96b		.L.str.84
.rodata.str1.1	0x4303c996	0x16	D:\GC_connection\GC_connection\gagent\libgagent.a(gserver.o)	#SHT_PROGBITS,SHF_ALLOC|SHF_MERGE|SHF_STRINGS,1
	0x4303c996		.L.str.85
.rodata.str1.1	0x4303c9ac	0x12	D:\GC_connection\GC_connection\gagent\libgagent.a(gserver.o)	#SHT_PROGBITS,SHF_ALLOC|SHF_MERGE|SHF_STRINGS,1
	0x4303c9ac		.L__FUNCTION__.gatProvisionRecCb
.rodata.str1.1	0x4303c9be	0x1a	D:\GC_connection\GC_connection\gagent\libgagent.a(gserver.o)	#SHT_PROGBITS,SHF_ALLOC|SHF_MERGE|SHF_STRINGS,1
	0x4303c9be		.L.str.86
.rodata.str1.1	0x4303c9d8	0x23	D:\GC_connection\GC_connection\gagent\libgagent.a(gserver.o)	#SHT_PROGBITS,SHF_ALLOC|SHF_MERGE|SHF_STRINGS,1
	0x4303c9d8		.L.str.87
.rodata.str1.1	0x4303c9fb	0x32	D:\GC_connection\GC_connection\gagent\libgagent.a(gserver.o)	#SHT_PROGBITS,SHF_ALLOC|SHF_MERGE|SHF_STRINGS,1
	0x4303c9fb		.L.str.88
.rodata.str1.1	0x4303ca2d	0x35	D:\GC_connection\GC_connection\gagent\libgagent.a(gserver.o)	#SHT_PROGBITS,SHF_ALLOC|SHF_MERGE|SHF_STRINGS,1
	0x4303ca2d		.L.str.89
.rodata.str1.1	0x4303ca62	0x26	D:\GC_connection\GC_connection\gagent\libgagent.a(gserver.o)	#SHT_PROGBITS,SHF_ALLOC|SHF_MERGE|SHF_STRINGS,1
	0x4303ca62		.L.str.90
.rodata.str1.1	0x4303ca88	0x3d	D:\GC_connection\GC_connection\gagent\libgagent.a(gserver.o)	#SHT_PROGBITS,SHF_ALLOC|SHF_MERGE|SHF_STRINGS,1
	0x4303ca88		.L.str.91
.rodata.str1.1	0x4303cac5	0x16	D:\GC_connection\GC_connection\gagent\libgagent.a(gserver.o)	#SHT_PROGBITS,SHF_ALLOC|SHF_MERGE|SHF_STRINGS,1
	0x4303cac5		.L.str.92
.rodata.str1.1	0x4303cadb	0x25	D:\GC_connection\GC_connection\gagent\libgagent.a(gserver.o)	#SHT_PROGBITS,SHF_ALLOC|SHF_MERGE|SHF_STRINGS,1
	0x4303cadb		.L.str.93
.rodata.str1.1	0x4303cb00	0x17	D:\GC_connection\GC_connection\gagent\libgagent.a(gserver.o)	#SHT_PROGBITS,SHF_ALLOC|SHF_MERGE|SHF_STRINGS,1
	0x4303cb00		.L.str.94
.rodata.str1.1	0x4303cb17	0x1f	D:\GC_connection\GC_connection\gagent\libgagent.a(gserver.o)	#SHT_PROGBITS,SHF_ALLOC|SHF_MERGE|SHF_STRINGS,1
	0x4303cb17		.L.str.95
.rodata.str1.1	0x4303cb36	0xa	D:\GC_connection\GC_connection\gagent\libgagent.a(gserver.o)	#SHT_PROGBITS,SHF_ALLOC|SHF_MERGE|SHF_STRINGS,1
	0x4303cb36		.L.str.96
.rodata.str1.1	0x4303cb40	0x1f	D:\GC_connection\GC_connection\gagent\libgagent.a(gserver.o)	#SHT_PROGBITS,SHF_ALLOC|SHF_MERGE|SHF_STRINGS,1
	0x4303cb40		.L.str.97
.rodata.str1.1	0x4303cb5f	0x26	D:\GC_connection\GC_connection\gagent\libgagent.a(gserver.o)	#SHT_PROGBITS,SHF_ALLOC|SHF_MERGE|SHF_STRINGS,1
	0x4303cb5f		.L.str.98
.rodata.str1.1	0x4303cb85	0x2b	D:\GC_connection\GC_connection\gagent\libgagent.a(gserver.o)	#SHT_PROGBITS,SHF_ALLOC|SHF_MERGE|SHF_STRINGS,1
	0x4303cb85		.L.str.99
.rodata.str1.1	0x4303cbb0	0x12	D:\GC_connection\GC_connection\gagent\libgagent.a(gserver.o)	#SHT_PROGBITS,SHF_ALLOC|SHF_MERGE|SHF_STRINGS,1
	0x4303cbb0		.L__FUNCTION__.gatProvisionParse
.rodata.str1.1	0x4303cbc2	0x5	D:\GC_connection\GC_connection\gagent\libgagent.a(gserver.o)	#SHT_PROGBITS,SHF_ALLOC|SHF_MERGE|SHF_STRINGS,1
	0x4303cbc2		.L.str.100
.rodata.str1.1	0x4303cbc7	0x1c	D:\GC_connection\GC_connection\gagent\libgagent.a(gserver.o)	#SHT_PROGBITS,SHF_ALLOC|SHF_MERGE|SHF_STRINGS,1
	0x4303cbc7		.L.str.101
.rodata.str1.1	0x4303cbe3	0x1c	D:\GC_connection\GC_connection\gagent\libgagent.a(gserver.o)	#SHT_PROGBITS,SHF_ALLOC|SHF_MERGE|SHF_STRINGS,1
	0x4303cbe3		.L.str.103
.rodata.str1.1	0x4303cbff	0x16	D:\GC_connection\GC_connection\gagent\libgagent.a(gserver.o)	#SHT_PROGBITS,SHF_ALLOC|SHF_MERGE|SHF_STRINGS,1
	0x4303cbff		.L__FUNCTION__.gatDeviceDisableRecCb
.rodata.str1.1	0x4303cc15	0x27	D:\GC_connection\GC_connection\gagent\libgagent.a(gserver.o)	#SHT_PROGBITS,SHF_ALLOC|SHF_MERGE|SHF_STRINGS,1
	0x4303cc15		.L.str.104
.rodata.str1.1	0x4303cc3c	0x27	D:\GC_connection\GC_connection\gagent\libgagent.a(gserver.o)	#SHT_PROGBITS,SHF_ALLOC|SHF_MERGE|SHF_STRINGS,1
	0x4303cc3c		.L.str.105
.rodata.str1.1	0x4303cc63	0x40	D:\GC_connection\GC_connection\gagent\libgagent.a(gserver.o)	#SHT_PROGBITS,SHF_ALLOC|SHF_MERGE|SHF_STRINGS,1
	0x4303cc63		.L.str.106
.rodata.str1.1	0x4303cca3	0x1d	D:\GC_connection\GC_connection\gagent\libgagent.a(gserver.o)	#SHT_PROGBITS,SHF_ALLOC|SHF_MERGE|SHF_STRINGS,1
	0x4303cca3		.L.str.107
.rodata.str1.1	0x4303ccc0	0x34	D:\GC_connection\GC_connection\gagent\libgagent.a(gserver.o)	#SHT_PROGBITS,SHF_ALLOC|SHF_MERGE|SHF_STRINGS,1
	0x4303ccc0		.L.str.108
.rodata.str1.1	0x4303ccf4	0x19	D:\GC_connection\GC_connection\gagent\libgagent.a(gserver.o)	#SHT_PROGBITS,SHF_ALLOC|SHF_MERGE|SHF_STRINGS,1
	0x4303ccf4		.L.str.109
.rodata.str1.1	0x4303cd0d	0x19	D:\GC_connection\GC_connection\gagent\libgagent.a(gserver.o)	#SHT_PROGBITS,SHF_ALLOC|SHF_MERGE|SHF_STRINGS,1
	0x4303cd0d		.L.str.110
.rodata.str1.1	0x4303cd26	0x1c	D:\GC_connection\GC_connection\gagent\libgagent.a(gserver.o)	#SHT_PROGBITS,SHF_ALLOC|SHF_MERGE|SHF_STRINGS,1
	0x4303cd26		.L__FUNCTION__.gatNormalDeviceDisableParse
.rodata.str1.1	0x4303cd42	0x25	D:\GC_connection\GC_connection\gagent\libgagent.a(gserver.o)	#SHT_PROGBITS,SHF_ALLOC|SHF_MERGE|SHF_STRINGS,1
	0x4303cd42		.L.str.111
.rodata.str1.1	0x4303cd67	0xd	D:\GC_connection\GC_connection\gagent\libgagent.a(gserver.o)	#SHT_PROGBITS,SHF_ALLOC|SHF_MERGE|SHF_STRINGS,1
	0x4303cd67		.L__FUNCTION__.gserverDnsCb
.rodata.str1.1	0x4303cd74	0x29	D:\GC_connection\GC_connection\gagent\libgagent.a(gserver.o)	#SHT_PROGBITS,SHF_ALLOC|SHF_MERGE|SHF_STRINGS,1
	0x4303cd74		.L.str.112
.rodata.str1.1	0x4303cd9d	0x3b	D:\GC_connection\GC_connection\gagent\libgagent.a(gserver.o)	#SHT_PROGBITS,SHF_ALLOC|SHF_MERGE|SHF_STRINGS,1
	0x4303cd9d		.L.str.113
.rodata.str1.1	0x4303cdd8	0x11	D:\GC_connection\GC_connection\gagent\libgagent.a(gserver.o)	#SHT_PROGBITS,SHF_ALLOC|SHF_MERGE|SHF_STRINGS,1
	0x4303cdd8		.L__FUNCTION__.gatRegsiterRecCb
.rodata.str1.1	0x4303cde9	0x2d	D:\GC_connection\GC_connection\gagent\libgagent.a(gserver.o)	#SHT_PROGBITS,SHF_ALLOC|SHF_MERGE|SHF_STRINGS,1
	0x4303cde9		.L.str.114
.rodata.str1.1	0x4303ce16	0x34	D:\GC_connection\GC_connection\gagent\libgagent.a(gserver.o)	#SHT_PROGBITS,SHF_ALLOC|SHF_MERGE|SHF_STRINGS,1
	0x4303ce16		.L.str.115
.rodata.str1.1	0x4303ce4a	0x2f	D:\GC_connection\GC_connection\gagent\libgagent.a(gserver.o)	#SHT_PROGBITS,SHF_ALLOC|SHF_MERGE|SHF_STRINGS,1
	0x4303ce4a		.L.str.116
.rodata.str1.1	0x4303ce79	0x15	D:\GC_connection\GC_connection\gagent\libgagent.a(gserver.o)	#SHT_PROGBITS,SHF_ALLOC|SHF_MERGE|SHF_STRINGS,1
	0x4303ce79		.L.str.117
.rodata.str1.1	0x4303ce8e	0x2f	D:\GC_connection\GC_connection\gagent\libgagent.a(gserver.o)	#SHT_PROGBITS,SHF_ALLOC|SHF_MERGE|SHF_STRINGS,1
	0x4303ce8e		.L.str.118
.rodata.str1.1	0x4303cebd	0x26	D:\GC_connection\GC_connection\gagent\libgagent.a(gserver.o)	#SHT_PROGBITS,SHF_ALLOC|SHF_MERGE|SHF_STRINGS,1
	0x4303cebd		.L.str.119
.rodata.str1.1	0x4303cee3	0x3b	D:\GC_connection\GC_connection\gagent\libgagent.a(gserver.o)	#SHT_PROGBITS,SHF_ALLOC|SHF_MERGE|SHF_STRINGS,1
	0x4303cee3		.L.str.120
.rodata.str1.1	0x4303cf1e	0x11	D:\GC_connection\GC_connection\gagent\libgagent.a(gserver.o)	#SHT_PROGBITS,SHF_ALLOC|SHF_MERGE|SHF_STRINGS,1
	0x4303cf1e		.L__FUNCTION__.gatRegsiterTimer
.rodata.str1.1	0x4303cf2f	0x4	D:\GC_connection\GC_connection\gagent\libgagent.a(gserver.o)	#SHT_PROGBITS,SHF_ALLOC|SHF_MERGE|SHF_STRINGS,1
	0x4303cf2f		.L.str.121
.rodata.str1.1	0x4303cf33	0x9	D:\GC_connection\GC_connection\gagent\libgagent.a(gserver.o)	#SHT_PROGBITS,SHF_ALLOC|SHF_MERGE|SHF_STRINGS,1
	0x4303cf33		.L.str.122
.rodata.str1.1	0x4303cf3c	0x18	D:\GC_connection\GC_connection\gagent\libgagent.a(gserver.o)	#SHT_PROGBITS,SHF_ALLOC|SHF_MERGE|SHF_STRINGS,1
	0x4303cf3c		.L.str.123
.rodata.str1.1	0x4303cf54	0x11	D:\GC_connection\GC_connection\gagent\libgagent.a(gserver.o)	#SHT_PROGBITS,SHF_ALLOC|SHF_MERGE|SHF_STRINGS,1
	0x4303cf54		.L__FUNCTION__.gatRegsiterParse
.rodata.str1.1	0x4303cf65	0x25	D:\GC_connection\GC_connection\gagent\libgagent.a(gserver.o)	#SHT_PROGBITS,SHF_ALLOC|SHF_MERGE|SHF_STRINGS,1
	0x4303cf65		.L.str.124
.rodata.str1.1	0x4303cf8a	0x1e	D:\GC_connection\GC_connection\gagent\libgagent.a(gserver.o)	#SHT_PROGBITS,SHF_ALLOC|SHF_MERGE|SHF_STRINGS,1
	0x4303cf8a		.L.str.125
.rodata.str1.1	0x4303cfa8	0x1a	D:\GC_connection\GC_connection\gagent\libgagent.a(gserver.o)	#SHT_PROGBITS,SHF_ALLOC|SHF_MERGE|SHF_STRINGS,1
	0x4303cfa8		.L__FUNCTION__.gatGServerHandleGatStatus
.rodata.str1.1	0x4303cfc2	0x2d	D:\GC_connection\GC_connection\gagent\libgagent.a(gserver.o)	#SHT_PROGBITS,SHF_ALLOC|SHF_MERGE|SHF_STRINGS,1
	0x4303cfc2		.L.str.126
.rodata.str1.1	0x4303cfef	0x26	D:\GC_connection\GC_connection\gagent\libgagent.a(gserver.o)	#SHT_PROGBITS,SHF_ALLOC|SHF_MERGE|SHF_STRINGS,1
	0x4303cfef		.L.str.127
.rodata.str1.1	0x4303d015	0x19	D:\GC_connection\GC_connection\gagent\libgagent.a(gserver.o)	#SHT_PROGBITS,SHF_ALLOC|SHF_MERGE|SHF_STRINGS,1
	0x4303d015		.L.str.128
.rodata.str1.1	0x4303d02e	0x29	D:\GC_connection\GC_connection\gagent\libgagent.a(gserver.o)	#SHT_PROGBITS,SHF_ALLOC|SHF_MERGE|SHF_STRINGS,1
	0x4303d02e		.L.str.129
.rodata.str1.1	0x4303d057	0x23	D:\GC_connection\GC_connection\gagent\libgagent.a(gserver.o)	#SHT_PROGBITS,SHF_ALLOC|SHF_MERGE|SHF_STRINGS,1
	0x4303d057		.L.str.130
.rodata.str1.1	0x4303d07a	0x26	D:\GC_connection\GC_connection\gagent\libgagent.a(gserver.o)	#SHT_PROGBITS,SHF_ALLOC|SHF_MERGE|SHF_STRINGS,1
	0x4303d07a		.L.str.131
.rodata.str1.1	0x4303d0a0	0x22	D:\GC_connection\GC_connection\gagent\libgagent.a(gserver.o)	#SHT_PROGBITS,SHF_ALLOC|SHF_MERGE|SHF_STRINGS,1
	0x4303d0a0		.L.str.132
.rodata.str1.1	0x4303d0c2	0x1e	D:\GC_connection\GC_connection\gagent\libgagent.a(gserver.o)	#SHT_PROGBITS,SHF_ALLOC|SHF_MERGE|SHF_STRINGS,1
	0x4303d0c2		.L.str.133
.rodata.str1.1	0x4303d0e0	0x14	D:\GC_connection\GC_connection\gagent\libgagent.a(gserver.o)	#SHT_PROGBITS,SHF_ALLOC|SHF_MERGE|SHF_STRINGS,1
	0x4303d0e0		.L__FUNCTION__.gserverExcepTimeout
.rodata.str1.1	0x4303d0f4	0x4b	D:\GC_connection\GC_connection\gagent\libgagent.a(gserver.o)	#SHT_PROGBITS,SHF_ALLOC|SHF_MERGE|SHF_STRINGS,1
	0x4303d0f4		.L.str.134
PADDING_ALIGNMENT	0x4303d13f	0x1	0x0
.rodata.str1.8	0x4303d140	0xd	D:\GC_connection\GC_connection\gagent\libgagent.a(gserver.o)	#SHT_PROGBITS,SHF_ALLOC|SHF_MERGE|SHF_STRINGS,8
	0x4303d140		.L.str.43
.rodata.str1.1	0x4303d14d	0x14	D:\GC_connection\GC_connection\gagent\libgagent.a(httpgat.o)	#SHT_PROGBITS,SHF_ALLOC|SHF_MERGE|SHF_STRINGS,1
	0x4303d14d		.L.str
.rodata.str1.1	0x4303d161	0x13	D:\GC_connection\GC_connection\gagent\libgagent.a(httpgat.o)	#SHT_PROGBITS,SHF_ALLOC|SHF_MERGE|SHF_STRINGS,1
	0x4303d161		.L.str.1
.rodata.str1.1	0x4303d174	0x24	D:\GC_connection\GC_connection\gagent\libgagent.a(httpgat.o)	#SHT_PROGBITS,SHF_ALLOC|SHF_MERGE|SHF_STRINGS,1
	0x4303d174		.L.str.4
.rodata.str1.1	0x4303d198	0x10	D:\GC_connection\GC_connection\gagent\libgagent.a(httpgat.o)	#SHT_PROGBITS,SHF_ALLOC|SHF_MERGE|SHF_STRINGS,1
	0x4303d198		.L__FUNCTION__.httpDelSendNode
.rodata.str1.1	0x4303d1a8	0x23	D:\GC_connection\GC_connection\gagent\libgagent.a(httpgat.o)	#SHT_PROGBITS,SHF_ALLOC|SHF_MERGE|SHF_STRINGS,1
	0x4303d1a8		.L.str.7
.rodata.str1.1	0x4303d1cb	0xf	D:\GC_connection\GC_connection\gagent\libgagent.a(httpgat.o)	#SHT_PROGBITS,SHF_ALLOC|SHF_MERGE|SHF_STRINGS,1
	0x4303d1cb		.L__FUNCTION__.httpDelRecNode
.rodata.str1.1	0x4303d1da	0x2a	D:\GC_connection\GC_connection\gagent\libgagent.a(httpgat.o)	#SHT_PROGBITS,SHF_ALLOC|SHF_MERGE|SHF_STRINGS,1
	0x4303d1da		.L.str.8
.rodata.str1.1	0x4303d204	0xa	D:\GC_connection\GC_connection\gagent\libgagent.a(httpgat.o)	#SHT_PROGBITS,SHF_ALLOC|SHF_MERGE|SHF_STRINGS,1
	0x4303d204		.L__FUNCTION__.httpRecCb
.rodata.str1.1	0x4303d20e	0x19	D:\GC_connection\GC_connection\gagent\libgagent.a(httpgat.o)	#SHT_PROGBITS,SHF_ALLOC|SHF_MERGE|SHF_STRINGS,1
	0x4303d20e		.L.str.10
.rodata.str1.1	0x4303d227	0x28	D:\GC_connection\GC_connection\gagent\libgagent.a(httpgat.o)	#SHT_PROGBITS,SHF_ALLOC|SHF_MERGE|SHF_STRINGS,1
	0x4303d227		.L.str.11
.rodata.str1.1	0x4303d24f	0x2c	D:\GC_connection\GC_connection\gagent\libgagent.a(httpgat.o)	#SHT_PROGBITS,SHF_ALLOC|SHF_MERGE|SHF_STRINGS,1
	0x4303d24f		.L.str.12
.rodata.str1.1	0x4303d27b	0x29	D:\GC_connection\GC_connection\gagent\libgagent.a(httpgat.o)	#SHT_PROGBITS,SHF_ALLOC|SHF_MERGE|SHF_STRINGS,1
	0x4303d27b		.L.str.13
.rodata.str1.1	0x4303d2a4	0xe	D:\GC_connection\GC_connection\gagent\libgagent.a(httpgat.o)	#SHT_PROGBITS,SHF_ALLOC|SHF_MERGE|SHF_STRINGS,1
	0x4303d2a4		.L.str.14
.rodata.str1.1	0x4303d2b2	0x29	D:\GC_connection\GC_connection\gagent\libgagent.a(httpgat.o)	#SHT_PROGBITS,SHF_ALLOC|SHF_MERGE|SHF_STRINGS,1
	0x4303d2b2		.L.str.15
.rodata.str1.1	0x4303d2db	0x2a	D:\GC_connection\GC_connection\gagent\libgagent.a(httpgat.o)	#SHT_PROGBITS,SHF_ALLOC|SHF_MERGE|SHF_STRINGS,1
	0x4303d2db		.L.str.16
.rodata.str1.1	0x4303d305	0x22	D:\GC_connection\GC_connection\gagent\libgagent.a(httpgat.o)	#SHT_PROGBITS,SHF_ALLOC|SHF_MERGE|SHF_STRINGS,1
	0x4303d305		.L.str.17
.rodata.str1.1	0x4303d327	0x31	D:\GC_connection\GC_connection\gagent\libgagent.a(httpgat.o)	#SHT_PROGBITS,SHF_ALLOC|SHF_MERGE|SHF_STRINGS,1
	0x4303d327		.L.str.18
.rodata.str1.1	0x4303d358	0x21	D:\GC_connection\GC_connection\gagent\libgagent.a(httpgat.o)	#SHT_PROGBITS,SHF_ALLOC|SHF_MERGE|SHF_STRINGS,1
	0x4303d358		.L.str.19
.rodata.str1.1	0x4303d379	0x57	D:\GC_connection\GC_connection\gagent\libgagent.a(httpgat.o)	#SHT_PROGBITS,SHF_ALLOC|SHF_MERGE|SHF_STRINGS,1
	0x4303d379		.L.str.20
.rodata.str1.1	0x4303d3d0	0x21	D:\GC_connection\GC_connection\gagent\libgagent.a(httpgat.o)	#SHT_PROGBITS,SHF_ALLOC|SHF_MERGE|SHF_STRINGS,1
	0x4303d3d0		.L.str.21
.rodata.str1.1	0x4303d3f1	0x20	D:\GC_connection\GC_connection\gagent\libgagent.a(httpgat.o)	#SHT_PROGBITS,SHF_ALLOC|SHF_MERGE|SHF_STRINGS,1
	0x4303d3f1		.L.str.22
.rodata.str1.1	0x4303d411	0x22	D:\GC_connection\GC_connection\gagent\libgagent.a(httpgat.o)	#SHT_PROGBITS,SHF_ALLOC|SHF_MERGE|SHF_STRINGS,1
	0x4303d411		.L.str.23
.rodata.str1.1	0x4303d433	0xe	D:\GC_connection\GC_connection\gagent\libgagent.a(httpgat.o)	#SHT_PROGBITS,SHF_ALLOC|SHF_MERGE|SHF_STRINGS,1
	0x4303d433		.L__FUNCTION__.httpSigHandle
.rodata.str1.1	0x4303d441	0x17	D:\GC_connection\GC_connection\gagent\libgagent.a(httpgat.o)	#SHT_PROGBITS,SHF_ALLOC|SHF_MERGE|SHF_STRINGS,1
	0x4303d441		.L.str.24
.rodata.str1.1	0x4303d458	0x13	D:\GC_connection\GC_connection\gagent\libgagent.a(httpgat.o)	#SHT_PROGBITS,SHF_ALLOC|SHF_MERGE|SHF_STRINGS,1
	0x4303d458		.L.str.25
.rodata.str1.1	0x4303d46b	0x20	D:\GC_connection\GC_connection\gagent\libgagent.a(httpgat.o)	#SHT_PROGBITS,SHF_ALLOC|SHF_MERGE|SHF_STRINGS,1
	0x4303d46b		.L.str.26
.rodata.str1.1	0x4303d48b	0x16	D:\GC_connection\GC_connection\gagent\libgagent.a(httpgat.o)	#SHT_PROGBITS,SHF_ALLOC|SHF_MERGE|SHF_STRINGS,1
	0x4303d48b		.L.str.27
.rodata.str1.1	0x4303d4a1	0xb	D:\GC_connection\GC_connection\gagent\libgagent.a(httpgat.o)	#SHT_PROGBITS,SHF_ALLOC|SHF_MERGE|SHF_STRINGS,1
	0x4303d4a1		.L__FUNCTION__.httpConnCb
.rodata.str1.1	0x4303d4ac	0x1e	D:\GC_connection\GC_connection\gagent\libgagent.a(httpgat.o)	#SHT_PROGBITS,SHF_ALLOC|SHF_MERGE|SHF_STRINGS,1
	0x4303d4ac		.L.str.28
.rodata.str1.1	0x4303d4ca	0x30	D:\GC_connection\GC_connection\gagent\libgagent.a(httpgat.o)	#SHT_PROGBITS,SHF_ALLOC|SHF_MERGE|SHF_STRINGS,1
	0x4303d4ca		.L.str.29
.rodata.str1.1	0x4303d4fa	0x26	D:\GC_connection\GC_connection\gagent\libgagent.a(httpgat.o)	#SHT_PROGBITS,SHF_ALLOC|SHF_MERGE|SHF_STRINGS,1
	0x4303d4fa		.L.str.30
.rodata.str1.1	0x4303d520	0x17	D:\GC_connection\GC_connection\gagent\libgagent.a(httpgat.o)	#SHT_PROGBITS,SHF_ALLOC|SHF_MERGE|SHF_STRINGS,1
	0x4303d520		.L.str.31
.rodata.str1.1	0x4303d537	0x1e	D:\GC_connection\GC_connection\gagent\libgagent.a(httpgat.o)	#SHT_PROGBITS,SHF_ALLOC|SHF_MERGE|SHF_STRINGS,1
	0x4303d537		.L.str.32
.rodata.str1.1	0x4303d555	0x1a	D:\GC_connection\GC_connection\gagent\libgagent.a(httpgat.o)	#SHT_PROGBITS,SHF_ALLOC|SHF_MERGE|SHF_STRINGS,1
	0x4303d555		.L.str.33
.rodata.str1.1	0x4303d56f	0xb	D:\GC_connection\GC_connection\gagent\libgagent.a(httpgat.o)	#SHT_PROGBITS,SHF_ALLOC|SHF_MERGE|SHF_STRINGS,1
	0x4303d56f		.L__FUNCTION__.httpSendCb
.rodata.str1.1	0x4303d57a	0x1d	D:\GC_connection\GC_connection\gagent\libgagent.a(httpgat.o)	#SHT_PROGBITS,SHF_ALLOC|SHF_MERGE|SHF_STRINGS,1
	0x4303d57a		.L.str.34
.rodata.str1.1	0x4303d597	0x20	D:\GC_connection\GC_connection\gagent\libgagent.a(httpgat.o)	#SHT_PROGBITS,SHF_ALLOC|SHF_MERGE|SHF_STRINGS,1
	0x4303d597		.L.str.35
.rodata.str1.1	0x4303d5b7	0xb	D:\GC_connection\GC_connection\gagent\libgagent.a(httpgat.o)	#SHT_PROGBITS,SHF_ALLOC|SHF_MERGE|SHF_STRINGS,1
	0x4303d5b7		.L__FUNCTION__.gatHttpReq
.rodata.str1.1	0x4303d5c2	0x2c	D:\GC_connection\GC_connection\gagent\libgagent.a(httpgat.o)	#SHT_PROGBITS,SHF_ALLOC|SHF_MERGE|SHF_STRINGS,1
	0x4303d5c2		.L.str.36
.rodata.str1.1	0x4303d5ee	0x32	D:\GC_connection\GC_connection\gagent\libgagent.a(httpgat.o)	#SHT_PROGBITS,SHF_ALLOC|SHF_MERGE|SHF_STRINGS,1
	0x4303d5ee		.L.str.37
.rodata.str1.1	0x4303d620	0x21	D:\GC_connection\GC_connection\gagent\libgagent.a(httpgat.o)	#SHT_PROGBITS,SHF_ALLOC|SHF_MERGE|SHF_STRINGS,1
	0x4303d620		.L.str.38
.rodata.str1.1	0x4303d641	0x38	D:\GC_connection\GC_connection\gagent\libgagent.a(httpgat.o)	#SHT_PROGBITS,SHF_ALLOC|SHF_MERGE|SHF_STRINGS,1
	0x4303d641		.L.str.39
.rodata.str1.1	0x4303d679	0x19	D:\GC_connection\GC_connection\gagent\libgagent.a(httpgat.o)	#SHT_PROGBITS,SHF_ALLOC|SHF_MERGE|SHF_STRINGS,1
	0x4303d679		.L.str.40
.rodata.str1.1	0x4303d692	0x2a	D:\GC_connection\GC_connection\gagent\libgagent.a(httpgat.o)	#SHT_PROGBITS,SHF_ALLOC|SHF_MERGE|SHF_STRINGS,1
	0x4303d692		.L.str.46
.rodata.str1.1	0x4303d6bc	0x17	D:\GC_connection\GC_connection\gagent\libgagent.a(httpgat.o)	#SHT_PROGBITS,SHF_ALLOC|SHF_MERGE|SHF_STRINGS,1
	0x4303d6bc		.L__FUNCTION__.httpPostContextAdapter
.rodata.str1.1	0x4303d6d3	0x10	D:\GC_connection\GC_connection\gagent\libgagent.a(httpgat.o)	#SHT_PROGBITS,SHF_ALLOC|SHF_MERGE|SHF_STRINGS,1
	0x4303d6d3		.L__FUNCTION__.httpRecNodeInit
.rodata.str1.1	0x4303d6e3	0x22	D:\GC_connection\GC_connection\gagent\libgagent.a(httpgat.o)	#SHT_PROGBITS,SHF_ALLOC|SHF_MERGE|SHF_STRINGS,1
	0x4303d6e3		.L.str.47
.rodata.str1.1	0x4303d705	0x64	D:\GC_connection\GC_connection\gagent\libgagent.a(httpgat.o)	#SHT_PROGBITS,SHF_ALLOC|SHF_MERGE|SHF_STRINGS,1
	0x4303d705		.L.str.48
.rodata.str1.1	0x4303d769	0x68	D:\GC_connection\GC_connection\gagent\libgagent.a(httpgat.o)	#SHT_PROGBITS,SHF_ALLOC|SHF_MERGE|SHF_STRINGS,1
	0x4303d769		.L.str.49
.rodata.str1.1	0x4303d7d1	0x68	D:\GC_connection\GC_connection\gagent\libgagent.a(httpgat.o)	#SHT_PROGBITS,SHF_ALLOC|SHF_MERGE|SHF_STRINGS,1
	0x4303d7d1		.L.str.50
.rodata.str1.1	0x4303d839	0x42	D:\GC_connection\GC_connection\gagent\libgagent.a(httpgat.o)	#SHT_PROGBITS,SHF_ALLOC|SHF_MERGE|SHF_STRINGS,1
	0x4303d839		.L.str.51
.rodata.str1.1	0x4303d87b	0x45	D:\GC_connection\GC_connection\gagent\libgagent.a(httpgat.o)	#SHT_PROGBITS,SHF_ALLOC|SHF_MERGE|SHF_STRINGS,1
	0x4303d87b		.L.str.52
.rodata.str1.1	0x4303d8c0	0x9	D:\GC_connection\GC_connection\gagent\libgagent.a(httpgat.o)	#SHT_PROGBITS,SHF_ALLOC|SHF_MERGE|SHF_STRINGS,1
	0x4303d8c0		.L__FUNCTION__.httpBody
.rodata.str1.1	0x4303d8c9	0x2c	D:\GC_connection\GC_connection\gagent\libgagent.a(httpgat.o)	#SHT_PROGBITS,SHF_ALLOC|SHF_MERGE|SHF_STRINGS,1
	0x4303d8c9		.L.str.53
.rodata.str1.1	0x4303d8f5	0x25	D:\GC_connection\GC_connection\gagent\libgagent.a(httpgat.o)	#SHT_PROGBITS,SHF_ALLOC|SHF_MERGE|SHF_STRINGS,1
	0x4303d8f5		.L.str.54
.rodata.str1.1	0x4303d91a	0x37	D:\GC_connection\GC_connection\gagent\libgagent.a(httpgat.o)	#SHT_PROGBITS,SHF_ALLOC|SHF_MERGE|SHF_STRINGS,1
	0x4303d91a		.L.str.55
.rodata.str1.1	0x4303d951	0x2d	D:\GC_connection\GC_connection\gagent\libgagent.a(httpgat.o)	#SHT_PROGBITS,SHF_ALLOC|SHF_MERGE|SHF_STRINGS,1
	0x4303d951		.L.str.56
.rodata.str1.1	0x4303d97e	0x31	D:\GC_connection\GC_connection\gagent\libgagent.a(httpgat.o)	#SHT_PROGBITS,SHF_ALLOC|SHF_MERGE|SHF_STRINGS,1
	0x4303d97e		.L.str.57
.rodata.str1.1	0x4303d9af	0x3f	D:\GC_connection\GC_connection\gagent\libgagent.a(httpgat.o)	#SHT_PROGBITS,SHF_ALLOC|SHF_MERGE|SHF_STRINGS,1
	0x4303d9af		.L.str.58
.rodata.str1.1	0x4303d9ee	0x27	D:\GC_connection\GC_connection\gagent\libgagent.a(httpgat.o)	#SHT_PROGBITS,SHF_ALLOC|SHF_MERGE|SHF_STRINGS,1
	0x4303d9ee		.L.str.59
.rodata.str1.1	0x4303da15	0x25	D:\GC_connection\GC_connection\gagent\libgagent.a(httpgat.o)	#SHT_PROGBITS,SHF_ALLOC|SHF_MERGE|SHF_STRINGS,1
	0x4303da15		.L.str.60
.rodata.str1.1	0x4303da3a	0x4b	D:\GC_connection\GC_connection\gagent\libgagent.a(httpgat.o)	#SHT_PROGBITS,SHF_ALLOC|SHF_MERGE|SHF_STRINGS,1
	0x4303da3a		.L.str.61
.rodata.str1.1	0x4303da85	0x25	D:\GC_connection\GC_connection\gagent\libgagent.a(httpgat.o)	#SHT_PROGBITS,SHF_ALLOC|SHF_MERGE|SHF_STRINGS,1
	0x4303da85		.L.str.62
.rodata.str1.1	0x4303daaa	0x26	D:\GC_connection\GC_connection\gagent\libgagent.a(httpgat.o)	#SHT_PROGBITS,SHF_ALLOC|SHF_MERGE|SHF_STRINGS,1
	0x4303daaa		.L.str.63
.rodata.str1.1	0x4303dad0	0xf	D:\GC_connection\GC_connection\gagent\libgagent.a(httpgat.o)	#SHT_PROGBITS,SHF_ALLOC|SHF_MERGE|SHF_STRINGS,1
	0x4303dad0		.L__FUNCTION__.httpBodyUserCb
.rodata.str1.1	0x4303dadf	0x22	D:\GC_connection\GC_connection\gagent\libgagent.a(httpgat.o)	#SHT_PROGBITS,SHF_ALLOC|SHF_MERGE|SHF_STRINGS,1
	0x4303dadf		.L.str.64
.rodata.str1.1	0x4303db01	0x1a	D:\GC_connection\GC_connection\gagent\libgagent.a(httpgat.o)	#SHT_PROGBITS,SHF_ALLOC|SHF_MERGE|SHF_STRINGS,1
	0x4303db01		.L.str.65
.rodata.str1.1	0x4303db1b	0xe	D:\GC_connection\GC_connection\gagent\libgagent.a(httpgat.o)	#SHT_PROGBITS,SHF_ALLOC|SHF_MERGE|SHF_STRINGS,1
	0x4303db1b		.L__FUNCTION__.httpParseHead
.rodata.str1.1	0x4303db29	0x17	D:\GC_connection\GC_connection\gagent\libgagent.a(httpgat.o)	#SHT_PROGBITS,SHF_ALLOC|SHF_MERGE|SHF_STRINGS,1
	0x4303db29		.L.str.66
.rodata.str1.1	0x4303db40	0x13	D:\GC_connection\GC_connection\gagent\libgagent.a(httpgat.o)	#SHT_PROGBITS,SHF_ALLOC|SHF_MERGE|SHF_STRINGS,1
	0x4303db40		.L.str.67
.rodata.str1.1	0x4303db53	0x10	D:\GC_connection\GC_connection\gagent\libgagent.a(httpgat.o)	#SHT_PROGBITS,SHF_ALLOC|SHF_MERGE|SHF_STRINGS,1
	0x4303db53		.L.str.68
.rodata.str1.1	0x4303db63	0x26	D:\GC_connection\GC_connection\gagent\libgagent.a(httpgat.o)	#SHT_PROGBITS,SHF_ALLOC|SHF_MERGE|SHF_STRINGS,1
	0x4303db63		.L.str.69
.rodata.str1.1	0x4303db89	0x1a	D:\GC_connection\GC_connection\gagent\libgagent.a(httpgat.o)	#SHT_PROGBITS,SHF_ALLOC|SHF_MERGE|SHF_STRINGS,1
	0x4303db89		.L.str.70
.rodata.str1.1	0x4303dba3	0x26	D:\GC_connection\GC_connection\gagent\libgagent.a(httpgat.o)	#SHT_PROGBITS,SHF_ALLOC|SHF_MERGE|SHF_STRINGS,1
	0x4303dba3		.L.str.71
.rodata.str1.1	0x4303dbc9	0x25	D:\GC_connection\GC_connection\gagent\libgagent.a(httpgat.o)	#SHT_PROGBITS,SHF_ALLOC|SHF_MERGE|SHF_STRINGS,1
	0x4303dbc9		.L.str.72
.rodata.str1.1	0x4303dbee	0x1b	D:\GC_connection\GC_connection\gagent\libgagent.a(httpgat.o)	#SHT_PROGBITS,SHF_ALLOC|SHF_MERGE|SHF_STRINGS,1
	0x4303dbee		.L.str.73
.rodata.str1.1	0x4303dc09	0x10	D:\GC_connection\GC_connection\gagent\libgagent.a(httpgat.o)	#SHT_PROGBITS,SHF_ALLOC|SHF_MERGE|SHF_STRINGS,1
	0x4303dc09		.L__FUNCTION__.gatHTTPRecvTick
.rodata.str1.1	0x4303dc19	0x1b	D:\GC_connection\GC_connection\gagent\libgagent.a(ioffile.o)	#SHT_PROGBITS,SHF_ALLOC|SHF_MERGE|SHF_STRINGS,1
	0x4303dc19		.L.str.2
.rodata.str1.1	0x4303dc34	0xc	D:\GC_connection\GC_connection\gagent\libgagent.a(ioffile.o)	#SHT_PROGBITS,SHF_ALLOC|SHF_MERGE|SHF_STRINGS,1
	0x4303dc34		.L__FUNCTION__.iofFileOpen
.rodata.str1.1	0x4303dc40	0x1a	D:\GC_connection\GC_connection\gagent\libgagent.a(ioffile.o)	#SHT_PROGBITS,SHF_ALLOC|SHF_MERGE|SHF_STRINGS,1
	0x4303dc40		.L.str.3
.rodata.str1.1	0x4303dc5a	0x2b	D:\GC_connection\GC_connection\gagent\libgagent.a(ioffile.o)	#SHT_PROGBITS,SHF_ALLOC|SHF_MERGE|SHF_STRINGS,1
	0x4303dc5a		.L.str.4
.rodata.str1.1	0x4303dc85	0x20	D:\GC_connection\GC_connection\gagent\libgagent.a(ioffile.o)	#SHT_PROGBITS,SHF_ALLOC|SHF_MERGE|SHF_STRINGS,1
	0x4303dc85		.L.str.5
.rodata.str1.1	0x4303dca5	0x28	D:\GC_connection\GC_connection\gagent\libgagent.a(ioffile.o)	#SHT_PROGBITS,SHF_ALLOC|SHF_MERGE|SHF_STRINGS,1
	0x4303dca5		.L.str.6
.rodata.str1.1	0x4303dccd	0xd	D:\GC_connection\GC_connection\gagent\libgagent.a(ioffile.o)	#SHT_PROGBITS,SHF_ALLOC|SHF_MERGE|SHF_STRINGS,1
	0x4303dccd		.L__FUNCTION__.iofFileClose
.rodata.str1.1	0x4303dcda	0xc	D:\GC_connection\GC_connection\gagent\libgagent.a(ioffile.o)	#SHT_PROGBITS,SHF_ALLOC|SHF_MERGE|SHF_STRINGS,1
	0x4303dcda		.L__FUNCTION__.iofFileRead
.rodata.str1.1	0x4303dce6	0x20	D:\GC_connection\GC_connection\gagent\libgagent.a(ioffile.o)	#SHT_PROGBITS,SHF_ALLOC|SHF_MERGE|SHF_STRINGS,1
	0x4303dce6		.L.str.7
.rodata.str1.1	0x4303dd06	0xd	D:\GC_connection\GC_connection\gagent\libgagent.a(ioffile.o)	#SHT_PROGBITS,SHF_ALLOC|SHF_MERGE|SHF_STRINGS,1
	0x4303dd06		.L__FUNCTION__.iofFileWrite
.rodata.str1.1	0x4303dd13	0x1d	D:\GC_connection\GC_connection\gagent\libgagent.a(ioffile.o)	#SHT_PROGBITS,SHF_ALLOC|SHF_MERGE|SHF_STRINGS,1
	0x4303dd13		.L.str.9
.rodata.str1.1	0x4303dd30	0x20	D:\GC_connection\GC_connection\gagent\libgagent.a(ioffile.o)	#SHT_PROGBITS,SHF_ALLOC|SHF_MERGE|SHF_STRINGS,1
	0x4303dd30		.L.str.10
.rodata.str1.1	0x4303dd50	0x14	D:\GC_connection\GC_connection\gagent\libgagent.a(ioffile.o)	#SHT_PROGBITS,SHF_ALLOC|SHF_MERGE|SHF_STRINGS,1
	0x4303dd50		.L.str.11
.rodata.str1.1	0x4303dd64	0xd	D:\GC_connection\GC_connection\gagent\libgagent.a(ioffile.o)	#SHT_PROGBITS,SHF_ALLOC|SHF_MERGE|SHF_STRINGS,1
	0x4303dd64		.L__FUNCTION__.iofFileErase
.rodata.str1.1	0x4303dd71	0x19	D:\GC_connection\GC_connection\gagent\libgagent.a(ioffile.o)	#SHT_PROGBITS,SHF_ALLOC|SHF_MERGE|SHF_STRINGS,1
	0x4303dd71		.L.str.12
.rodata.str1.1	0x4303dd8a	0x21	D:\GC_connection\GC_connection\gagent\libgagent.a(ioffile.o)	#SHT_PROGBITS,SHF_ALLOC|SHF_MERGE|SHF_STRINGS,1
	0x4303dd8a		.L__FUNCTION__.iofFileProductInfoTransformation
.rodata.str1.1	0x4303ddab	0x1e	D:\GC_connection\GC_connection\gagent\libgagent.a(ioffile.o)	#SHT_PROGBITS,SHF_ALLOC|SHF_MERGE|SHF_STRINGS,1
	0x4303ddab		.L.str.13
.rodata.str1.1	0x4303ddc9	0x3	D:\GC_connection\GC_connection\gagent\libgagent.a(ioffile.o)	#SHT_PROGBITS,SHF_ALLOC|SHF_MERGE|SHF_STRINGS,1
	0x4303ddc9		.L.str.15
.rodata.str1.1	0x4303ddcc	0x27	D:\GC_connection\GC_connection\gagent\libgagent.a(ioffile.o)	#SHT_PROGBITS,SHF_ALLOC|SHF_MERGE|SHF_STRINGS,1
	0x4303ddcc		.L.str.16
.rodata.str1.1	0x4303ddf3	0x24	D:\GC_connection\GC_connection\gagent\libgagent.a(ioffile.o)	#SHT_PROGBITS,SHF_ALLOC|SHF_MERGE|SHF_STRINGS,1
	0x4303ddf3		.L.str.17
.rodata.str1.1	0x4303de17	0x2f	D:\GC_connection\GC_connection\gagent\libgagent.a(ioffile.o)	#SHT_PROGBITS,SHF_ALLOC|SHF_MERGE|SHF_STRINGS,1
	0x4303de17		.L.str.18
.rodata.str1.1	0x4303de46	0x80	D:\GC_connection\GC_connection\gagent\libgagent.a(ioffile.o)	#SHT_PROGBITS,SHF_ALLOC|SHF_MERGE|SHF_STRINGS,1
	0x4303de46		.L.str.19
.rodata.str1.1	0x4303dec6	0x20	D:\GC_connection\GC_connection\gagent\libgagent.a(ioffile.o)	#SHT_PROGBITS,SHF_ALLOC|SHF_MERGE|SHF_STRINGS,1
	0x4303dec6		.L.str.20
.rodata.str1.1	0x4303dee6	0x12	D:\GC_connection\GC_connection\gagent\libgagent.a(ioffile.o)	#SHT_PROGBITS,SHF_ALLOC|SHF_MERGE|SHF_STRINGS,1
	0x4303dee6		.L.str.21
.rodata.str1.1	0x4303def8	0x25	D:\GC_connection\GC_connection\gagent\libgagent.a(ioffile.o)	#SHT_PROGBITS,SHF_ALLOC|SHF_MERGE|SHF_STRINGS,1
	0x4303def8		.L.str.22
.rodata.str1.1	0x4303df1d	0x1b	D:\GC_connection\GC_connection\gagent\libgagent.a(ioffile.o)	#SHT_PROGBITS,SHF_ALLOC|SHF_MERGE|SHF_STRINGS,1
	0x4303df1d		.L.str.23
.rodata.str1.1	0x4303df38	0x44	D:\GC_connection\GC_connection\gagent\libgagent.a(ioffile.o)	#SHT_PROGBITS,SHF_ALLOC|SHF_MERGE|SHF_STRINGS,1
	0x4303df38		.L.str.24
.rodata.str1.1	0x4303df7c	0x1b	D:\GC_connection\GC_connection\gagent\libgagent.a(ioffile.o)	#SHT_PROGBITS,SHF_ALLOC|SHF_MERGE|SHF_STRINGS,1
	0x4303df7c		.L.str.25
.rodata.str1.1	0x4303df97	0x8	D:\GC_connection\GC_connection\gagent\libgagent.a(ioffile.o)	#SHT_PROGBITS,SHF_ALLOC|SHF_MERGE|SHF_STRINGS,1
	0x4303df97		.L.str.26
.rodata.str1.1	0x4303df9f	0x6	D:\GC_connection\GC_connection\gagent\libgagent.a(iofnet.o)	#SHT_PROGBITS,SHF_ALLOC|SHF_MERGE|SHF_STRINGS,1
	0x4303df9f		.L.str
.rodata.str1.1	0x4303dfa5	0x9	D:\GC_connection\GC_connection\gagent\libgagent.a(iofnet.o)	#SHT_PROGBITS,SHF_ALLOC|SHF_MERGE|SHF_STRINGS,1
	0x4303dfa5		.L.str.1
.rodata.str1.1	0x4303dfae	0x19	D:\GC_connection\GC_connection\gagent\libgagent.a(iofnet.o)	#SHT_PROGBITS,SHF_ALLOC|SHF_MERGE|SHF_STRINGS,1
	0x4303dfae		.L.str.4
.rodata.str1.1	0x4303dfc7	0x12	D:\GC_connection\GC_connection\gagent\libgagent.a(iofnet.o)	#SHT_PROGBITS,SHF_ALLOC|SHF_MERGE|SHF_STRINGS,1
	0x4303dfc7		.L__FUNCTION__.gatNetSoftApStart
.rodata.str1.1	0x4303dfd9	0x2b	D:\GC_connection\GC_connection\gagent\libgagent.a(iofnet.o)	#SHT_PROGBITS,SHF_ALLOC|SHF_MERGE|SHF_STRINGS,1
	0x4303dfd9		.L.str.5
.rodata.str1.1	0x4303e004	0x2b	D:\GC_connection\GC_connection\gagent\libgagent.a(iofnet.o)	#SHT_PROGBITS,SHF_ALLOC|SHF_MERGE|SHF_STRINGS,1
	0x4303e004		.L.str.8
.rodata.str1.1	0x4303e02f	0x30	D:\GC_connection\GC_connection\gagent\libgagent.a(iofnet.o)	#SHT_PROGBITS,SHF_ALLOC|SHF_MERGE|SHF_STRINGS,1
	0x4303e02f		.L.str.9
.rodata.str1.1	0x4303e05f	0x24	D:\GC_connection\GC_connection\gagent\libgagent.a(iofnet.o)	#SHT_PROGBITS,SHF_ALLOC|SHF_MERGE|SHF_STRINGS,1
	0x4303e05f		.L.str.10
.rodata.str1.1	0x4303e083	0x15	D:\GC_connection\GC_connection\gagent\libgagent.a(iofnet.o)	#SHT_PROGBITS,SHF_ALLOC|SHF_MERGE|SHF_STRINGS,1
	0x4303e083		.L.str.11
.rodata.str1.1	0x4303e098	0xe	D:\GC_connection\GC_connection\gagent\libgagent.a(iofnet.o)	#SHT_PROGBITS,SHF_ALLOC|SHF_MERGE|SHF_STRINGS,1
	0x4303e098		.L__FUNCTION__.gatIofNetInit
.rodata.str1.1	0x4303e0a6	0x1a	D:\GC_connection\GC_connection\gagent\libgagent.a(iofnet.o)	#SHT_PROGBITS,SHF_ALLOC|SHF_MERGE|SHF_STRINGS,1
	0x4303e0a6		.L.str.12
.rodata.str1.1	0x4303e0c0	0x17	D:\GC_connection\GC_connection\gagent\libgagent.a(iofnet.o)	#SHT_PROGBITS,SHF_ALLOC|SHF_MERGE|SHF_STRINGS,1
	0x4303e0c0		.L.str.13
.rodata.str1.1	0x4303e0d7	0x12	D:\GC_connection\GC_connection\gagent\libgagent.a(iofnet.o)	#SHT_PROGBITS,SHF_ALLOC|SHF_MERGE|SHF_STRINGS,1
	0x4303e0d7		.L.str.14
.rodata.str1.1	0x4303e0e9	0x11	D:\GC_connection\GC_connection\gagent\libgagent.a(iofnet.o)	#SHT_PROGBITS,SHF_ALLOC|SHF_MERGE|SHF_STRINGS,1
	0x4303e0e9		.L__FUNCTION__.gatIofNetGetRssi
.rodata.str1.1	0x4303e0fa	0x1d	D:\GC_connection\GC_connection\gagent\libgagent.a(iofnet.o)	#SHT_PROGBITS,SHF_ALLOC|SHF_MERGE|SHF_STRINGS,1
	0x4303e0fa		.L.str.15
.rodata.str1.1	0x4303e117	0xc	D:\GC_connection\GC_connection\gagent\libgagent.a(iofnet.o)	#SHT_PROGBITS,SHF_ALLOC|SHF_MERGE|SHF_STRINGS,1
	0x4303e117		.L__FUNCTION__.iofWifiScan
.rodata.str1.1	0x4303e123	0x20	D:\GC_connection\GC_connection\gagent\libgagent.a(iofnet.o)	#SHT_PROGBITS,SHF_ALLOC|SHF_MERGE|SHF_STRINGS,1
	0x4303e123		.L.str.17
.rodata.str1.1	0x4303e143	0x10	D:\GC_connection\GC_connection\gagent\libgagent.a(iofnet.o)	#SHT_PROGBITS,SHF_ALLOC|SHF_MERGE|SHF_STRINGS,1
	0x4303e143		.L__FUNCTION__.gatNetStartScan
.rodata.str1.1	0x4303e153	0x24	D:\GC_connection\GC_connection\gagent\libgagent.a(iofnet.o)	#SHT_PROGBITS,SHF_ALLOC|SHF_MERGE|SHF_STRINGS,1
	0x4303e153		.L.str.18
.rodata.str1.1	0x4303e177	0x26	D:\GC_connection\GC_connection\gagent\libgagent.a(iofnet.o)	#SHT_PROGBITS,SHF_ALLOC|SHF_MERGE|SHF_STRINGS,1
	0x4303e177		.L.str.19
.rodata.str1.1	0x4303e19d	0x1e	D:\GC_connection\GC_connection\gagent\libgagent.a(iofnet.o)	#SHT_PROGBITS,SHF_ALLOC|SHF_MERGE|SHF_STRINGS,1
	0x4303e19d		.L.str.20
.rodata.str1.1	0x4303e1bb	0x26	D:\GC_connection\GC_connection\gagent\libgagent.a(iofnet.o)	#SHT_PROGBITS,SHF_ALLOC|SHF_MERGE|SHF_STRINGS,1
	0x4303e1bb		.L.str.21
.rodata.str1.1	0x4303e1e1	0x11	D:\GC_connection\GC_connection\gagent\libgagent.a(iofnet.o)	#SHT_PROGBITS,SHF_ALLOC|SHF_MERGE|SHF_STRINGS,1
	0x4303e1e1		.L__FUNCTION__.iofGetHostByName
.rodata.str1.1	0x4303e1f2	0x1b	D:\GC_connection\GC_connection\gagent\libgagent.a(iofnet.o)	#SHT_PROGBITS,SHF_ALLOC|SHF_MERGE|SHF_STRINGS,1
	0x4303e1f2		.L.str.22
.rodata.str1.1	0x4303e20d	0x14	D:\GC_connection\GC_connection\gagent\libgagent.a(iofnet.o)	#SHT_PROGBITS,SHF_ALLOC|SHF_MERGE|SHF_STRINGS,1
	0x4303e20d		.L__FUNCTION__.iofGatGetHostByName
.rodata.str1.1	0x4303e221	0x8	D:\GC_connection\GC_connection\gagent\libgagent.a(iofnet.o)	#SHT_PROGBITS,SHF_ALLOC|SHF_MERGE|SHF_STRINGS,1
	0x4303e221		.L.str.23
.rodata.str1.1	0x4303e229	0x10	D:\GC_connection\GC_connection\gagent\libgagent.a(iofnet.o)	#SHT_PROGBITS,SHF_ALLOC|SHF_MERGE|SHF_STRINGS,1
	0x4303e229		.L__FUNCTION__.iofNetDnsHandle
.rodata.str1.1	0x4303e239	0x1e	D:\GC_connection\GC_connection\gagent\libgagent.a(iofnet.o)	#SHT_PROGBITS,SHF_ALLOC|SHF_MERGE|SHF_STRINGS,1
	0x4303e239		.L.str.24
.rodata.str1.1	0x4303e257	0x16	D:\GC_connection\GC_connection\gagent\libgagent.a(iofnet.o)	#SHT_PROGBITS,SHF_ALLOC|SHF_MERGE|SHF_STRINGS,1
	0x4303e257		.L.str.25
.rodata.str1.1	0x4303e26d	0x17	D:\GC_connection\GC_connection\gagent\libgagent.a(iofnet.o)	#SHT_PROGBITS,SHF_ALLOC|SHF_MERGE|SHF_STRINGS,1
	0x4303e26d		.L.str.26
.rodata.str1.1	0x4303e284	0x33	D:\GC_connection\GC_connection\gagent\libgagent.a(iofnet.o)	#SHT_PROGBITS,SHF_ALLOC|SHF_MERGE|SHF_STRINGS,1
	0x4303e284		.L.str.27
.rodata.str1.1	0x4303e2b7	0x1e	D:\GC_connection\GC_connection\gagent\libgagent.a(iofnet.o)	#SHT_PROGBITS,SHF_ALLOC|SHF_MERGE|SHF_STRINGS,1
	0x4303e2b7		.L.str.28
.rodata.str1.1	0x4303e2d5	0x34	D:\GC_connection\GC_connection\gagent\libgagent.a(iofnet.o)	#SHT_PROGBITS,SHF_ALLOC|SHF_MERGE|SHF_STRINGS,1
	0x4303e2d5		.L.str.29
.rodata.str1.1	0x4303e309	0xc	D:\GC_connection\GC_connection\gagent\libgagent.a(iofnet.o)	#SHT_PROGBITS,SHF_ALLOC|SHF_MERGE|SHF_STRINGS,1
	0x4303e309		.L.str.30
.rodata.str1.1	0x4303e315	0x22	D:\GC_connection\GC_connection\gagent\libgagent.a(iofnet.o)	#SHT_PROGBITS,SHF_ALLOC|SHF_MERGE|SHF_STRINGS,1
	0x4303e315		.L.str.31
.rodata.str1.1	0x4303e337	0x1c	D:\GC_connection\GC_connection\gagent\libgagent.a(iofnet.o)	#SHT_PROGBITS,SHF_ALLOC|SHF_MERGE|SHF_STRINGS,1
	0x4303e337		.L.str.32
.rodata.str1.1	0x4303e353	0x2f	D:\GC_connection\GC_connection\gagent\libgagent.a(iofnet.o)	#SHT_PROGBITS,SHF_ALLOC|SHF_MERGE|SHF_STRINGS,1
	0x4303e353		.L.str.33
.rodata.str1.1	0x4303e382	0x15	D:\GC_connection\GC_connection\gagent\libgagent.a(iofnet.o)	#SHT_PROGBITS,SHF_ALLOC|SHF_MERGE|SHF_STRINGS,1
	0x4303e382		.L.str.34
.rodata.str1.1	0x4303e397	0x16	D:\GC_connection\GC_connection\gagent\libgagent.a(iofnet.o)	#SHT_PROGBITS,SHF_ALLOC|SHF_MERGE|SHF_STRINGS,1
	0x4303e397		.L.str.35
.rodata.str1.1	0x4303e3ad	0x1a	D:\GC_connection\GC_connection\gagent\libgagent.a(iofnet.o)	#SHT_PROGBITS,SHF_ALLOC|SHF_MERGE|SHF_STRINGS,1
	0x4303e3ad		.L.str.36
.rodata.str1.1	0x4303e3c7	0x19	D:\GC_connection\GC_connection\gagent\libgagent.a(iofnet.o)	#SHT_PROGBITS,SHF_ALLOC|SHF_MERGE|SHF_STRINGS,1
	0x4303e3c7		.L.str.37
.rodata.str1.1	0x4303e3e0	0x24	D:\GC_connection\GC_connection\gagent\libgagent.a(iofnet.o)	#SHT_PROGBITS,SHF_ALLOC|SHF_MERGE|SHF_STRINGS,1
	0x4303e3e0		.L.str.38
.rodata.str1.1	0x4303e404	0x2a	D:\GC_connection\GC_connection\gagent\libgagent.a(iofnet.o)	#SHT_PROGBITS,SHF_ALLOC|SHF_MERGE|SHF_STRINGS,1
	0x4303e404		.L.str.40
.rodata.str1.1	0x4303e42e	0x23	D:\GC_connection\GC_connection\gagent\libgagent.a(iofnet.o)	#SHT_PROGBITS,SHF_ALLOC|SHF_MERGE|SHF_STRINGS,1
	0x4303e42e		.L.str.41
.rodata.str1.1	0x4303e451	0x2a	D:\GC_connection\GC_connection\gagent\libgagent.a(iofnet.o)	#SHT_PROGBITS,SHF_ALLOC|SHF_MERGE|SHF_STRINGS,1
	0x4303e451		.L.str.42
.rodata.str1.1	0x4303e47b	0x20	D:\GC_connection\GC_connection\gagent\libgagent.a(iofnet.o)	#SHT_PROGBITS,SHF_ALLOC|SHF_MERGE|SHF_STRINGS,1
	0x4303e47b		.L.str.43
.rodata.str1.1	0x4303e49b	0x13	D:\GC_connection\GC_connection\gagent\libgagent.a(iofnet.o)	#SHT_PROGBITS,SHF_ALLOC|SHF_MERGE|SHF_STRINGS,1
	0x4303e49b		.L__FUNCTION__.iofNetActiveHandle
.rodata.str1.1	0x4303e4ae	0x11	D:\GC_connection\GC_connection\gagent\libgagent.a(iofnet.o)	#SHT_PROGBITS,SHF_ALLOC|SHF_MERGE|SHF_STRINGS,1
	0x4303e4ae		.L.str.45
.rodata.str1.1	0x4303e4bf	0x25	D:\GC_connection\GC_connection\gagent\libgagent.a(iofnet.o)	#SHT_PROGBITS,SHF_ALLOC|SHF_MERGE|SHF_STRINGS,1
	0x4303e4bf		.L.str.46
.rodata.str1.1	0x4303e4e4	0x22	D:\GC_connection\GC_connection\gagent\libgagent.a(iofnet.o)	#SHT_PROGBITS,SHF_ALLOC|SHF_MERGE|SHF_STRINGS,1
	0x4303e4e4		.L.str.47
.rodata.str1.1	0x4303e506	0x24	D:\GC_connection\GC_connection\gagent\libgagent.a(iofnet.o)	#SHT_PROGBITS,SHF_ALLOC|SHF_MERGE|SHF_STRINGS,1
	0x4303e506		.L.str.48
.rodata.str1.1	0x4303e52a	0x20	D:\GC_connection\GC_connection\gagent\libgagent.a(iofnet.o)	#SHT_PROGBITS,SHF_ALLOC|SHF_MERGE|SHF_STRINGS,1
	0x4303e52a		.L.str.49
.rodata.str1.1	0x4303e54a	0x24	D:\GC_connection\GC_connection\gagent\libgagent.a(iofnet.o)	#SHT_PROGBITS,SHF_ALLOC|SHF_MERGE|SHF_STRINGS,1
	0x4303e54a		.L.str.50
.rodata.str1.1	0x4303e56e	0x21	D:\GC_connection\GC_connection\gagent\libgagent.a(iofnet.o)	#SHT_PROGBITS,SHF_ALLOC|SHF_MERGE|SHF_STRINGS,1
	0x4303e56e		.L.str.51
.rodata.str1.1	0x4303e58f	0x20	D:\GC_connection\GC_connection\gagent\libgagent.a(iofnet.o)	#SHT_PROGBITS,SHF_ALLOC|SHF_MERGE|SHF_STRINGS,1
	0x4303e58f		.L.str.52
.rodata.str1.1	0x4303e5af	0x21	D:\GC_connection\GC_connection\gagent\libgagent.a(iofnet.o)	#SHT_PROGBITS,SHF_ALLOC|SHF_MERGE|SHF_STRINGS,1
	0x4303e5af		.L.str.53
.rodata.str1.1	0x4303e5d0	0x15	D:\GC_connection\GC_connection\gagent\libgagent.a(iofnet.o)	#SHT_PROGBITS,SHF_ALLOC|SHF_MERGE|SHF_STRINGS,1
	0x4303e5d0		.L.str.54
.rodata.str1.1	0x4303e5e5	0x31	D:\GC_connection\GC_connection\gagent\libgagent.a(iofnet.o)	#SHT_PROGBITS,SHF_ALLOC|SHF_MERGE|SHF_STRINGS,1
	0x4303e5e5		.L.str.55
.rodata.str1.1	0x4303e616	0x17	D:\GC_connection\GC_connection\gagent\libgagent.a(iofnet.o)	#SHT_PROGBITS,SHF_ALLOC|SHF_MERGE|SHF_STRINGS,1
	0x4303e616		.L.str.56
.rodata.str1.1	0x4303e62d	0x11	D:\GC_connection\GC_connection\gagent\libgagent.a(iofnet.o)	#SHT_PROGBITS,SHF_ALLOC|SHF_MERGE|SHF_STRINGS,1
	0x4303e62d		.L.str.57
.rodata.str1.1	0x4303e63e	0x1a	D:\GC_connection\GC_connection\gagent\libgagent.a(iofnet.o)	#SHT_PROGBITS,SHF_ALLOC|SHF_MERGE|SHF_STRINGS,1
	0x4303e63e		.L.str.58
.rodata.str1.1	0x4303e658	0x17	D:\GC_connection\GC_connection\gagent\libgagent.a(iofnet.o)	#SHT_PROGBITS,SHF_ALLOC|SHF_MERGE|SHF_STRINGS,1
	0x4303e658		.L.str.59
.rodata.str1.1	0x4303e66f	0x2b	D:\GC_connection\GC_connection\gagent\libgagent.a(iofnet.o)	#SHT_PROGBITS,SHF_ALLOC|SHF_MERGE|SHF_STRINGS,1
	0x4303e66f		.L.str.60
.rodata.str1.1	0x4303e69a	0x1d	D:\GC_connection\GC_connection\gagent\libgagent.a(iofnet.o)	#SHT_PROGBITS,SHF_ALLOC|SHF_MERGE|SHF_STRINGS,1
	0x4303e69a		.L.str.61
.rodata.str1.1	0x4303e6b7	0x31	D:\GC_connection\GC_connection\gagent\libgagent.a(iofnet.o)	#SHT_PROGBITS,SHF_ALLOC|SHF_MERGE|SHF_STRINGS,1
	0x4303e6b7		.L.str.62
.rodata.str1.1	0x4303e6e8	0x2b	D:\GC_connection\GC_connection\gagent\libgagent.a(iofnet.o)	#SHT_PROGBITS,SHF_ALLOC|SHF_MERGE|SHF_STRINGS,1
	0x4303e6e8		.L.str.63
.rodata.str1.1	0x4303e713	0x24	D:\GC_connection\GC_connection\gagent\libgagent.a(iofnet.o)	#SHT_PROGBITS,SHF_ALLOC|SHF_MERGE|SHF_STRINGS,1
	0x4303e713		.L.str.64
.rodata.str1.1	0x4303e737	0x28	D:\GC_connection\GC_connection\gagent\libgagent.a(iofnet.o)	#SHT_PROGBITS,SHF_ALLOC|SHF_MERGE|SHF_STRINGS,1
	0x4303e737		.L.str.65
.rodata.str1.1	0x4303e75f	0x2b	D:\GC_connection\GC_connection\gagent\libgagent.a(iofnet.o)	#SHT_PROGBITS,SHF_ALLOC|SHF_MERGE|SHF_STRINGS,1
	0x4303e75f		.L.str.66
.rodata.str1.1	0x4303e78a	0x1c	D:\GC_connection\GC_connection\gagent\libgagent.a(iofnet.o)	#SHT_PROGBITS,SHF_ALLOC|SHF_MERGE|SHF_STRINGS,1
	0x4303e78a		.L.str.67
.rodata.str1.1	0x4303e7a6	0x1f	D:\GC_connection\GC_connection\gagent\libgagent.a(iofnet.o)	#SHT_PROGBITS,SHF_ALLOC|SHF_MERGE|SHF_STRINGS,1
	0x4303e7a6		.L.str.68
.rodata.str1.1	0x4303e7c5	0x2b	D:\GC_connection\GC_connection\gagent\libgagent.a(iofnet.o)	#SHT_PROGBITS,SHF_ALLOC|SHF_MERGE|SHF_STRINGS,1
	0x4303e7c5		.L.str.69
.rodata.str1.1	0x4303e7f0	0x2f	D:\GC_connection\GC_connection\gagent\libgagent.a(iofnet.o)	#SHT_PROGBITS,SHF_ALLOC|SHF_MERGE|SHF_STRINGS,1
	0x4303e7f0		.L.str.70
.rodata.str1.1	0x4303e81f	0x2b	D:\GC_connection\GC_connection\gagent\libgagent.a(iofnet.o)	#SHT_PROGBITS,SHF_ALLOC|SHF_MERGE|SHF_STRINGS,1
	0x4303e81f		.L.str.71
.rodata.str1.1	0x4303e84a	0x21	D:\GC_connection\GC_connection\gagent\libgagent.a(iofnet.o)	#SHT_PROGBITS,SHF_ALLOC|SHF_MERGE|SHF_STRINGS,1
	0x4303e84a		.L.str.72
.rodata.str1.1	0x4303e86b	0x1f	D:\GC_connection\GC_connection\gagent\libgagent.a(iofnet.o)	#SHT_PROGBITS,SHF_ALLOC|SHF_MERGE|SHF_STRINGS,1
	0x4303e86b		.L.str.73
.rodata.str1.1	0x4303e88a	0x1e	D:\GC_connection\GC_connection\gagent\libgagent.a(iofnet.o)	#SHT_PROGBITS,SHF_ALLOC|SHF_MERGE|SHF_STRINGS,1
	0x4303e88a		.L.str.74
.rodata.str1.8	0x4303e8a8	0xf	D:\GC_connection\GC_connection\gagent\libgagent.a(iofnet.o)	#SHT_PROGBITS,SHF_ALLOC|SHF_MERGE|SHF_STRINGS,8
	0x4303e8a8		.L.str.16
.rodata.str1.1	0x4303e8b7	0x1b	D:\GC_connection\GC_connection\gagent\libgagent.a(iofserial.o)	#SHT_PROGBITS,SHF_ALLOC|SHF_MERGE|SHF_STRINGS,1
	0x4303e8b7		.L.str.2
.rodata.str1.1	0x4303e8d2	0x2f	D:\GC_connection\GC_connection\gagent\libgagent.a(iofserial.o)	#SHT_PROGBITS,SHF_ALLOC|SHF_MERGE|SHF_STRINGS,1
	0x4303e8d2		.L.str.3
.rodata.str1.1	0x4303e901	0x1d	D:\GC_connection\GC_connection\gagent\libgagent.a(iofserial.o)	#SHT_PROGBITS,SHF_ALLOC|SHF_MERGE|SHF_STRINGS,1
	0x4303e901		.L.str.4
.rodata.str1.1	0x4303e91e	0x33	D:\GC_connection\GC_connection\gagent\libgagent.a(iofserial.o)	#SHT_PROGBITS,SHF_ALLOC|SHF_MERGE|SHF_STRINGS,1
	0x4303e91e		.L.str.5
.rodata.str1.1	0x4303e951	0x19	D:\GC_connection\GC_connection\gagent\libgagent.a(iofserial.o)	#SHT_PROGBITS,SHF_ALLOC|SHF_MERGE|SHF_STRINGS,1
	0x4303e951		.L.str.6
.rodata.str1.1	0x4303e96a	0xe	D:\GC_connection\GC_connection\gagent\libgagent.a(iofserial.o)	#SHT_PROGBITS,SHF_ALLOC|SHF_MERGE|SHF_STRINGS,1
	0x4303e96a		.L__FUNCTION__.iofSerialOpen
.rodata.str1.1	0x4303e978	0x39	D:\GC_connection\GC_connection\gagent\libgagent.a(iofserial.o)	#SHT_PROGBITS,SHF_ALLOC|SHF_MERGE|SHF_STRINGS,1
	0x4303e978		.L.str.7
.rodata.str1.1	0x4303e9b1	0x18	D:\GC_connection\GC_connection\gagent\libgagent.a(iofserial.o)	#SHT_PROGBITS,SHF_ALLOC|SHF_MERGE|SHF_STRINGS,1
	0x4303e9b1		.L.str.8
.rodata.str1.1	0x4303e9c9	0xe	D:\GC_connection\GC_connection\gagent\libgagent.a(iofserial.o)	#SHT_PROGBITS,SHF_ALLOC|SHF_MERGE|SHF_STRINGS,1
	0x4303e9c9		.L__FUNCTION__.iofSerialInit
.rodata.str1.1	0x4303e9d7	0x10	D:\GC_connection\GC_connection\gagent\libgagent.a(iofserial.o)	#SHT_PROGBITS,SHF_ALLOC|SHF_MERGE|SHF_STRINGS,1
	0x4303e9d7		.L__FUNCTION__.iofSerialSelect
.rodata.str1.1	0x4303e9e7	0x15	D:\GC_connection\GC_connection\gagent\libgagent.a(iofserial.o)	#SHT_PROGBITS,SHF_ALLOC|SHF_MERGE|SHF_STRINGS,1
	0x4303e9e7		.L.str.9
.rodata.str1.1	0x4303e9fc	0x25	D:\GC_connection\GC_connection\gagent\libgagent.a(iofserial.o)	#SHT_PROGBITS,SHF_ALLOC|SHF_MERGE|SHF_STRINGS,1
	0x4303e9fc		.L.str.14
.rodata.str1.1	0x4303ea21	0xe	D:\GC_connection\GC_connection\gagent\libgagent.a(iofserial.o)	#SHT_PROGBITS,SHF_ALLOC|SHF_MERGE|SHF_STRINGS,1
	0x4303ea21		.L__FUNCTION__.iofSerialSend
.rodata.str1.1	0x4303ea2f	0x1c	D:\GC_connection\GC_connection\gagent\libgagent.a(iofserial.o)	#SHT_PROGBITS,SHF_ALLOC|SHF_MERGE|SHF_STRINGS,1
	0x4303ea2f		.L.str.15
.rodata.str1.1	0x4303ea4b	0xe	D:\GC_connection\GC_connection\gagent\libgagent.a(iofserial.o)	#SHT_PROGBITS,SHF_ALLOC|SHF_MERGE|SHF_STRINGS,1
	0x4303ea4b		.L__FUNCTION__.iofSerialRead
.rodata.str1.1	0x4303ea59	0x1f	D:\GC_connection\GC_connection\gagent\libgagent.a(iofserial.o)	#SHT_PROGBITS,SHF_ALLOC|SHF_MERGE|SHF_STRINGS,1
	0x4303ea59		.L.str.16
.rodata.str1.1	0x4303ea78	0xb	D:\GC_connection\GC_connection\gagent\libgagent.a(iofserial.o)	#SHT_PROGBITS,SHF_ALLOC|SHF_MERGE|SHF_STRINGS,1
	0x4303ea78		.L__FUNCTION__.SerialRxCb
.rodata.str1.1	0x4303ea83	0x16	D:\GC_connection\GC_connection\gagent\libgagent.a(iofserial.o)	#SHT_PROGBITS,SHF_ALLOC|SHF_MERGE|SHF_STRINGS,1
	0x4303ea83		.L.str.17
.rodata.str1.1	0x4303ea99	0xb	D:\GC_connection\GC_connection\gagent\libgagent.a(iofserial.o)	#SHT_PROGBITS,SHF_ALLOC|SHF_MERGE|SHF_STRINGS,1
	0x4303ea99		.L__FUNCTION__.SerialTxCb
.rodata.str1.1	0x4303eaa4	0x15	D:\GC_connection\GC_connection\gagent\libgagent.a(iofsocket.o)	#SHT_PROGBITS,SHF_ALLOC|SHF_MERGE|SHF_STRINGS,1
	0x4303eaa4		.L.str.2
.rodata.str1.1	0x4303eab9	0x12	D:\GC_connection\GC_connection\gagent\libgagent.a(iofsocket.o)	#SHT_PROGBITS,SHF_ALLOC|SHF_MERGE|SHF_STRINGS,1
	0x4303eab9		.L__FUNCTION__.gatIofSocketClose
.rodata.str1.1	0x4303eacb	0x21	D:\GC_connection\GC_connection\gagent\libgagent.a(iofsocket.o)	#SHT_PROGBITS,SHF_ALLOC|SHF_MERGE|SHF_STRINGS,1
	0x4303eacb		.L.str.3
.rodata.str1.1	0x4303eaec	0x14	D:\GC_connection\GC_connection\gagent\libgagent.a(iofsocket.o)	#SHT_PROGBITS,SHF_ALLOC|SHF_MERGE|SHF_STRINGS,1
	0x4303eaec		.L__FUNCTION__.gatIofSocketConnect
.rodata.str1.1	0x4303eb00	0x1b	D:\GC_connection\GC_connection\gagent\libgagent.a(iofsocket.o)	#SHT_PROGBITS,SHF_ALLOC|SHF_MERGE|SHF_STRINGS,1
	0x4303eb00		.L.str.4
.rodata.str1.1	0x4303eb1b	0x21	D:\GC_connection\GC_connection\gagent\libgagent.a(iofsocket.o)	#SHT_PROGBITS,SHF_ALLOC|SHF_MERGE|SHF_STRINGS,1
	0x4303eb1b		.L.str.5
.rodata.str1.1	0x4303eb3c	0x32	D:\GC_connection\GC_connection\gagent\libgagent.a(iofsocket.o)	#SHT_PROGBITS,SHF_ALLOC|SHF_MERGE|SHF_STRINGS,1
	0x4303eb3c		.L.str.6
.rodata.str1.1	0x4303eb6e	0xe	D:\GC_connection\GC_connection\gagent\libgagent.a(iofsocket.o)	#SHT_PROGBITS,SHF_ALLOC|SHF_MERGE|SHF_STRINGS,1
	0x4303eb6e		.L__FUNCTION__.gatIofTcpSend
.rodata.str1.1	0x4303eb7c	0x2b	D:\GC_connection\GC_connection\gagent\libgagent.a(ioftime.o)	#SHT_PROGBITS,SHF_ALLOC|SHF_MERGE|SHF_STRINGS,1
	0x4303eb7c		.L.str.2
.rodata.str1.1	0x4303eba7	0x18	D:\GC_connection\GC_connection\gagent\libgagent.a(ioftime.o)	#SHT_PROGBITS,SHF_ALLOC|SHF_MERGE|SHF_STRINGS,1
	0x4303eba7		.L.str.3
.rodata.str1.1	0x4303ebbf	0xe	D:\GC_connection\GC_connection\gagent\libgagent.a(ioftime.o)	#SHT_PROGBITS,SHF_ALLOC|SHF_MERGE|SHF_STRINGS,1
	0x4303ebbf		.L__FUNCTION__.getDevTime_MS
.rodata.str1.1	0x4303ebcd	0x17	D:\GC_connection\GC_connection\gagent\libgagent.a(ioftime.o)	#SHT_PROGBITS,SHF_ALLOC|SHF_MERGE|SHF_STRINGS,1
	0x4303ebcd		.L.str.4
.rodata.str1.1	0x4303ebe4	0xd	D:\GC_connection\GC_connection\gagent\libgagent.a(ioftime.o)	#SHT_PROGBITS,SHF_ALLOC|SHF_MERGE|SHF_STRINGS,1
	0x4303ebe4		.L__FUNCTION__.getDevTime_S
.rodata.str1.1	0x4303ebf1	0x18	D:\GC_connection\GC_connection\gagent\libgagent.a(ioftime.o)	#SHT_PROGBITS,SHF_ALLOC|SHF_MERGE|SHF_STRINGS,1
	0x4303ebf1		.L.str.5
.rodata.str1.1	0x4303ec09	0xd	D:\GC_connection\GC_connection\gagent\libgagent.a(ioftime.o)	#SHT_PROGBITS,SHF_ALLOC|SHF_MERGE|SHF_STRINGS,1
	0x4303ec09		.L__FUNCTION__.iofTimerInit
.rodata.str1.1	0x4303ec16	0xc	D:\GC_connection\GC_connection\gagent\libgagent.a(ioftime.o)	#SHT_PROGBITS,SHF_ALLOC|SHF_MERGE|SHF_STRINGS,1
	0x4303ec16		.L.str.6
.rodata.str1.1	0x4303ec22	0x35	D:\GC_connection\GC_connection\gagent\libgagent.a(ioftime.o)	#SHT_PROGBITS,SHF_ALLOC|SHF_MERGE|SHF_STRINGS,1
	0x4303ec22		.L.str.7
.rodata.str1.1	0x4303ec57	0x15	D:\GC_connection\GC_connection\gagent\libgagent.a(ioftime.o)	#SHT_PROGBITS,SHF_ALLOC|SHF_MERGE|SHF_STRINGS,1
	0x4303ec57		.L__FUNCTION__.iofLocalTimerMSStart
.rodata.str1.1	0x4303ec6c	0xc	D:\GC_connection\GC_connection\gagent\libgagent.a(ioftime.o)	#SHT_PROGBITS,SHF_ALLOC|SHF_MERGE|SHF_STRINGS,1
	0x4303ec6c		.L.str.8
.rodata.str1.1	0x4303ec78	0x37	D:\GC_connection\GC_connection\gagent\libgagent.a(ioftime.o)	#SHT_PROGBITS,SHF_ALLOC|SHF_MERGE|SHF_STRINGS,1
	0x4303ec78		.L.str.9
.rodata.str1.1	0x4303ecaf	0x27	D:\GC_connection\GC_connection\gagent\libgagent.a(ioftime.o)	#SHT_PROGBITS,SHF_ALLOC|SHF_MERGE|SHF_STRINGS,1
	0x4303ecaf		.L.str.10
.rodata.str1.1	0x4303ecd6	0x1c	D:\GC_connection\GC_connection\gagent\libgagent.a(ioftime.o)	#SHT_PROGBITS,SHF_ALLOC|SHF_MERGE|SHF_STRINGS,1
	0x4303ecd6		.L.str.11
.rodata.str1.1	0x4303ecf2	0x14	D:\GC_connection\GC_connection\gagent\libgagent.a(ioftime.o)	#SHT_PROGBITS,SHF_ALLOC|SHF_MERGE|SHF_STRINGS,1
	0x4303ecf2		.L__FUNCTION__.iofLocalTimerMSStop
.rodata.str1.1	0x4303ed06	0x2f	D:\GC_connection\GC_connection\gagent\libgagent.a(ioftime.o)	#SHT_PROGBITS,SHF_ALLOC|SHF_MERGE|SHF_STRINGS,1
	0x4303ed06		.L.str.12
.rodata.str1.1	0x4303ed35	0x29	D:\GC_connection\GC_connection\gagent\libgagent.a(lanvirtual.o)	#SHT_PROGBITS,SHF_ALLOC|SHF_MERGE|SHF_STRINGS,1
	0x4303ed35		.L.str.2
.rodata.str1.1	0x4303ed5e	0xb	D:\GC_connection\GC_connection\gagent\libgagent.a(lanvirtual.o)	#SHT_PROGBITS,SHF_ALLOC|SHF_MERGE|SHF_STRINGS,1
	0x4303ed5e		.L__FUNCTION__.gatLanSend
.rodata.str1.1	0x4303ed69	0x16	D:\GC_connection\GC_connection\gagent\libgagent.a(mqttgat.o)	#SHT_PROGBITS,SHF_ALLOC|SHF_MERGE|SHF_STRINGS,1
	0x4303ed69		.L.str.2
.rodata.str1.1	0x4303ed7f	0x13	D:\GC_connection\GC_connection\gagent\libgagent.a(mqttgat.o)	#SHT_PROGBITS,SHF_ALLOC|SHF_MERGE|SHF_STRINGS,1
	0x4303ed7f		.L__FUNCTION__.mqttConnBrokerInit
.rodata.str1.1	0x4303ed92	0x15	D:\GC_connection\GC_connection\gagent\libgagent.a(mqttgat.o)	#SHT_PROGBITS,SHF_ALLOC|SHF_MERGE|SHF_STRINGS,1
	0x4303ed92		.L.str.3
.rodata.str1.1	0x4303eda7	0xd	D:\GC_connection\GC_connection\gagent\libgagent.a(mqttgat.o)	#SHT_PROGBITS,SHF_ALLOC|SHF_MERGE|SHF_STRINGS,1
	0x4303eda7		.L.str.4
.rodata.str1.1	0x4303edb4	0x10	D:\GC_connection\GC_connection\gagent\libgagent.a(mqttgat.o)	#SHT_PROGBITS,SHF_ALLOC|SHF_MERGE|SHF_STRINGS,1
	0x4303edb4		.L__FUNCTION__.mqttDoHeartBeat
.rodata.str1.1	0x4303edc4	0x2e	D:\GC_connection\GC_connection\gagent\libgagent.a(mqttgat.o)	#SHT_PROGBITS,SHF_ALLOC|SHF_MERGE|SHF_STRINGS,1
	0x4303edc4		.L.str.5
.rodata.str1.1	0x4303edf2	0x38	D:\GC_connection\GC_connection\gagent\libgagent.a(mqttgat.o)	#SHT_PROGBITS,SHF_ALLOC|SHF_MERGE|SHF_STRINGS,1
	0x4303edf2		.L.str.6
.rodata.str1.1	0x4303ee2a	0x30	D:\GC_connection\GC_connection\gagent\libgagent.a(mqttgat.o)	#SHT_PROGBITS,SHF_ALLOC|SHF_MERGE|SHF_STRINGS,1
	0x4303ee2a		.L.str.7
.rodata.str1.1	0x4303ee5a	0x1e	D:\GC_connection\GC_connection\gagent\libgagent.a(mqttgat.o)	#SHT_PROGBITS,SHF_ALLOC|SHF_MERGE|SHF_STRINGS,1
	0x4303ee5a		.L.str.8
.rodata.str1.1	0x4303ee78	0x27	D:\GC_connection\GC_connection\gagent\libgagent.a(mqttgat.o)	#SHT_PROGBITS,SHF_ALLOC|SHF_MERGE|SHF_STRINGS,1
	0x4303ee78		.L.str.9
.rodata.str1.1	0x4303ee9f	0x12	D:\GC_connection\GC_connection\gagent\libgagent.a(mqttgat.o)	#SHT_PROGBITS,SHF_ALLOC|SHF_MERGE|SHF_STRINGS,1
	0x4303ee9f		.L__FUNCTION__.mqttExtractPacket
.rodata.str1.1	0x4303eeb1	0x27	D:\GC_connection\GC_connection\gagent\libgagent.a(mqttgat.o)	#SHT_PROGBITS,SHF_ALLOC|SHF_MERGE|SHF_STRINGS,1
	0x4303eeb1		.L.str.11
.rodata.str1.1	0x4303eed8	0x21	D:\GC_connection\GC_connection\gagent\libgagent.a(mqttgat.o)	#SHT_PROGBITS,SHF_ALLOC|SHF_MERGE|SHF_STRINGS,1
	0x4303eed8		.L.str.12
.rodata.str1.1	0x4303eef9	0x20	D:\GC_connection\GC_connection\gagent\libgagent.a(mqttgat.o)	#SHT_PROGBITS,SHF_ALLOC|SHF_MERGE|SHF_STRINGS,1
	0x4303eef9		.L.str.13
.rodata.str1.1	0x4303ef19	0x22	D:\GC_connection\GC_connection\gagent\libgagent.a(mqttgat.o)	#SHT_PROGBITS,SHF_ALLOC|SHF_MERGE|SHF_STRINGS,1
	0x4303ef19		.L.str.14
.rodata.str1.1	0x4303ef3b	0x21	D:\GC_connection\GC_connection\gagent\libgagent.a(mqttgat.o)	#SHT_PROGBITS,SHF_ALLOC|SHF_MERGE|SHF_STRINGS,1
	0x4303ef3b		.L.str.15
.rodata.str1.1	0x4303ef5c	0x20	D:\GC_connection\GC_connection\gagent\libgagent.a(mqttgat.o)	#SHT_PROGBITS,SHF_ALLOC|SHF_MERGE|SHF_STRINGS,1
	0x4303ef5c		.L.str.16
.rodata.str1.1	0x4303ef7c	0x1b	D:\GC_connection\GC_connection\gagent\libgagent.a(mqttgat.o)	#SHT_PROGBITS,SHF_ALLOC|SHF_MERGE|SHF_STRINGS,1
	0x4303ef7c		.L.str.17
.rodata.str1.1	0x4303ef97	0x1f	D:\GC_connection\GC_connection\gagent\libgagent.a(mqttgat.o)	#SHT_PROGBITS,SHF_ALLOC|SHF_MERGE|SHF_STRINGS,1
	0x4303ef97		.L.str.18
.rodata.str1.1	0x4303efb6	0x2a	D:\GC_connection\GC_connection\gagent\libgagent.a(mqttgat.o)	#SHT_PROGBITS,SHF_ALLOC|SHF_MERGE|SHF_STRINGS,1
	0x4303efb6		.L.str.19
.rodata.str1.1	0x4303efe0	0x2b	D:\GC_connection\GC_connection\gagent\libgagent.a(mqttgat.o)	#SHT_PROGBITS,SHF_ALLOC|SHF_MERGE|SHF_STRINGS,1
	0x4303efe0		.L.str.20
.rodata.str1.1	0x4303f00b	0x25	D:\GC_connection\GC_connection\gagent\libgagent.a(mqttgat.o)	#SHT_PROGBITS,SHF_ALLOC|SHF_MERGE|SHF_STRINGS,1
	0x4303f00b		.L.str.23
.rodata.str1.1	0x4303f030	0x3d	D:\GC_connection\GC_connection\gagent\libgagent.a(mqttgat.o)	#SHT_PROGBITS,SHF_ALLOC|SHF_MERGE|SHF_STRINGS,1
	0x4303f030		.L.str.24
.rodata.str1.1	0x4303f06d	0x23	D:\GC_connection\GC_connection\gagent\libgagent.a(mqttgat.o)	#SHT_PROGBITS,SHF_ALLOC|SHF_MERGE|SHF_STRINGS,1
	0x4303f06d		.L.str.25
.rodata.str1.1	0x4303f090	0x1f	D:\GC_connection\GC_connection\gagent\libgagent.a(mqttgat.o)	#SHT_PROGBITS,SHF_ALLOC|SHF_MERGE|SHF_STRINGS,1
	0x4303f090		.L.str.26
.rodata.str1.1	0x4303f0af	0x56	D:\GC_connection\GC_connection\gagent\libgagent.a(mqttgat.o)	#SHT_PROGBITS,SHF_ALLOC|SHF_MERGE|SHF_STRINGS,1
	0x4303f0af		.L.str.27
.rodata.str1.1	0x4303f105	0x25	D:\GC_connection\GC_connection\gagent\libgagent.a(mqttgat.o)	#SHT_PROGBITS,SHF_ALLOC|SHF_MERGE|SHF_STRINGS,1
	0x4303f105		.L.str.28
.rodata.str1.1	0x4303f12a	0x21	D:\GC_connection\GC_connection\gagent\libgagent.a(mqttgat.o)	#SHT_PROGBITS,SHF_ALLOC|SHF_MERGE|SHF_STRINGS,1
	0x4303f12a		.L.str.29
.rodata.str1.1	0x4303f14b	0x14	D:\GC_connection\GC_connection\gagent\libgagent.a(mqttgat.o)	#SHT_PROGBITS,SHF_ALLOC|SHF_MERGE|SHF_STRINGS,1
	0x4303f14b		.L.str.30
.rodata.str1.1	0x4303f15f	0xf	D:\GC_connection\GC_connection\gagent\libgagent.a(mqttgat.o)	#SHT_PROGBITS,SHF_ALLOC|SHF_MERGE|SHF_STRINGS,1
	0x4303f15f		.L.str.31
.rodata.str1.1	0x4303f16e	0xc	D:\GC_connection\GC_connection\gagent\libgagent.a(mqttgat.o)	#SHT_PROGBITS,SHF_ALLOC|SHF_MERGE|SHF_STRINGS,1
	0x4303f16e		.L__FUNCTION__.gatMqttInit
.rodata.str1.1	0x4303f17a	0xe	D:\GC_connection\GC_connection\gagent\libgagent.a(mqttgat.o)	#SHT_PROGBITS,SHF_ALLOC|SHF_MERGE|SHF_STRINGS,1
	0x4303f17a		.L__FUNCTION__.gatMqttReInit
.rodata.str1.1	0x4303f188	0x1d	D:\GC_connection\GC_connection\gagent\libgagent.a(mqttgat.o)	#SHT_PROGBITS,SHF_ALLOC|SHF_MERGE|SHF_STRINGS,1
	0x4303f188		.L.str.33
.rodata.str1.1	0x4303f1a5	0xf	D:\GC_connection\GC_connection\gagent\libgagent.a(mqttgat.o)	#SHT_PROGBITS,SHF_ALLOC|SHF_MERGE|SHF_STRINGS,1
	0x4303f1a5		.L__FUNCTION__.mqttDataHandle
.rodata.str1.1	0x4303f1b4	0x1a	D:\GC_connection\GC_connection\gagent\libgagent.a(mqttgat.o)	#SHT_PROGBITS,SHF_ALLOC|SHF_MERGE|SHF_STRINGS,1
	0x4303f1b4		.L.str.34
.rodata.str1.1	0x4303f1ce	0x27	D:\GC_connection\GC_connection\gagent\libgagent.a(mqttgat.o)	#SHT_PROGBITS,SHF_ALLOC|SHF_MERGE|SHF_STRINGS,1
	0x4303f1ce		.L.str.35
.rodata.str1.1	0x4303f1f5	0x36	D:\GC_connection\GC_connection\gagent\libgagent.a(mqttgat.o)	#SHT_PROGBITS,SHF_ALLOC|SHF_MERGE|SHF_STRINGS,1
	0x4303f1f5		.L.str.36
.rodata.str1.1	0x4303f22b	0x25	D:\GC_connection\GC_connection\gagent\libgagent.a(mqttgat.o)	#SHT_PROGBITS,SHF_ALLOC|SHF_MERGE|SHF_STRINGS,1
	0x4303f22b		.L.str.37
.rodata.str1.1	0x4303f250	0x1e	D:\GC_connection\GC_connection\gagent\libgagent.a(mqttgat.o)	#SHT_PROGBITS,SHF_ALLOC|SHF_MERGE|SHF_STRINGS,1
	0x4303f250		.L.str.38
.rodata.str1.1	0x4303f26e	0x1c	D:\GC_connection\GC_connection\gagent\libgagent.a(mqttgat.o)	#SHT_PROGBITS,SHF_ALLOC|SHF_MERGE|SHF_STRINGS,1
	0x4303f26e		.L.str.39
.rodata.str1.1	0x4303f28a	0x1e	D:\GC_connection\GC_connection\gagent\libgagent.a(mqttgat.o)	#SHT_PROGBITS,SHF_ALLOC|SHF_MERGE|SHF_STRINGS,1
	0x4303f28a		.L.str.40
.rodata.str1.1	0x4303f2a8	0x11	D:\GC_connection\GC_connection\gagent\libgagent.a(mqttgat.o)	#SHT_PROGBITS,SHF_ALLOC|SHF_MERGE|SHF_STRINGS,1
	0x4303f2a8		.L.str.41
.rodata.str1.1	0x4303f2b9	0x15	D:\GC_connection\GC_connection\gagent\libgagent.a(mqttgat.o)	#SHT_PROGBITS,SHF_ALLOC|SHF_MERGE|SHF_STRINGS,1
	0x4303f2b9		.L__FUNCTION__.gatM2MHeartBeatStart
.rodata.str1.1	0x4303f2ce	0x12	D:\GC_connection\GC_connection\gagent\libgagent.a(mqttgat.o)	#SHT_PROGBITS,SHF_ALLOC|SHF_MERGE|SHF_STRINGS,1
	0x4303f2ce		.L.str.42
.rodata.str1.1	0x4303f2e0	0x14	D:\GC_connection\GC_connection\gagent\libgagent.a(mqttgat.o)	#SHT_PROGBITS,SHF_ALLOC|SHF_MERGE|SHF_STRINGS,1
	0x4303f2e0		.L__FUNCTION__.gatM2MHeartBeatStop
.rodata.str1.1	0x4303f2f4	0x15	D:\GC_connection\GC_connection\gagent\libgagent.a(mqttgat.o)	#SHT_PROGBITS,SHF_ALLOC|SHF_MERGE|SHF_STRINGS,1
	0x4303f2f4		.L__FUNCTION__.gatCleanMqttCacheBuf
.rodata.str1.1	0x4303f309	0x22	D:\GC_connection\GC_connection\gagent\libgagent.a(mqttgat.o)	#SHT_PROGBITS,SHF_ALLOC|SHF_MERGE|SHF_STRINGS,1
	0x4303f309		.L.str.43
.rodata.str1.1	0x4303f32b	0x14	D:\GC_connection\GC_connection\gagent\libgagent.a(mqttgat.o)	#SHT_PROGBITS,SHF_ALLOC|SHF_MERGE|SHF_STRINGS,1
	0x4303f32b		.L__FUNCTION__.gatCloudGizDataSend
.rodata.str1.1	0x4303f33f	0x14	D:\GC_connection\GC_connection\gagent\libgagent.a(mqttgat.o)	#SHT_PROGBITS,SHF_ALLOC|SHF_MERGE|SHF_STRINGS,1
	0x4303f33f		.L.str.44
.rodata.str1.1	0x4303f353	0x1f	D:\GC_connection\GC_connection\gagent\libgagent.a(mqttgat.o)	#SHT_PROGBITS,SHF_ALLOC|SHF_MERGE|SHF_STRINGS,1
	0x4303f353		.L.str.45
.rodata.str1.1	0x4303f372	0x10	D:\GC_connection\GC_connection\gagent\libgagent.a(mqttgat.o)	#SHT_PROGBITS,SHF_ALLOC|SHF_MERGE|SHF_STRINGS,1
	0x4303f372		.L__FUNCTION__.mqttNodeRecInit
.rodata.str1.1	0x4303f382	0x20	D:\GC_connection\GC_connection\gagent\libgagent.a(mqttgat.o)	#SHT_PROGBITS,SHF_ALLOC|SHF_MERGE|SHF_STRINGS,1
	0x4303f382		.L.str.46
.rodata.str1.1	0x4303f3a2	0x1a	D:\GC_connection\GC_connection\gagent\libgagent.a(mqttlib.o)	#SHT_PROGBITS,SHF_ALLOC|SHF_MERGE|SHF_STRINGS,1
	0x4303f3a2		.L.str.2
.rodata.str1.1	0x4303f3bc	0x1c	D:\GC_connection\GC_connection\gagent\libgagent.a(mqttlib.o)	#SHT_PROGBITS,SHF_ALLOC|SHF_MERGE|SHF_STRINGS,1
	0x4303f3bc		.L__FUNCTION__.mqtt_num_rem_len_bytes_safe
.rodata.str1.1	0x4303f3d8	0x15	D:\GC_connection\GC_connection\gagent\libgagent.a(mqttlib.o)	#SHT_PROGBITS,SHF_ALLOC|SHF_MERGE|SHF_STRINGS,1
	0x4303f3d8		.L.str.3
.rodata.str1.1	0x4303f3ed	0x18	D:\GC_connection\GC_connection\gagent\libgagent.a(mqttlib.o)	#SHT_PROGBITS,SHF_ALLOC|SHF_MERGE|SHF_STRINGS,1
	0x4303f3ed		.L.str.4
.rodata.str1.1	0x4303f405	0x6	D:\GC_connection\GC_connection\gagent\libgagent.a(mqttlib.o)	#SHT_PROGBITS,SHF_ALLOC|SHF_MERGE|SHF_STRINGS,1
.rodata.str1.1	0x4303f40b	0xd	D:\GC_connection\GC_connection\gagent\libgagent.a(mqttlib.o)	#SHT_PROGBITS,SHF_ALLOC|SHF_MERGE|SHF_STRINGS,1
	0x4303f40b		.L__FUNCTION__.mqtt_connect
.rodata.str1.1	0x4303f418	0x21	D:\GC_connection\GC_connection\gagent\libgagent.a(mqttlib.o)	#SHT_PROGBITS,SHF_ALLOC|SHF_MERGE|SHF_STRINGS,1
	0x4303f418		.L.str.8
.rodata.str1.1	0x4303f439	0x16	D:\GC_connection\GC_connection\gagent\libgagent.a(mqttlib.o)	#SHT_PROGBITS,SHF_ALLOC|SHF_MERGE|SHF_STRINGS,1
	0x4303f439		.L.str.13
.rodata.str1.1	0x4303f44f	0x16	D:\GC_connection\GC_connection\gagent\libgagent.a(mqttlib.o)	#SHT_PROGBITS,SHF_ALLOC|SHF_MERGE|SHF_STRINGS,1
	0x4303f44f		.L__FUNCTION__.mqtt_publish_with_qos
.rodata.str1.1	0x4303f465	0x59	D:\GC_connection\GC_connection\gagent\libgagent.a(mqttlib.o)	#SHT_PROGBITS,SHF_ALLOC|SHF_MERGE|SHF_STRINGS,1
	0x4303f465		.L.str.15
.rodata.str1.1	0x4303f4be	0xe	D:\GC_connection\GC_connection\gagent\libgagent.a(mqttlib.o)	#SHT_PROGBITS,SHF_ALLOC|SHF_MERGE|SHF_STRINGS,1
	0x4303f4be		.L.str.16
.rodata.str1.1	0x4303f4cc	0x10	D:\GC_connection\GC_connection\gagent\libgagent.a(mqttlib.o)	#SHT_PROGBITS,SHF_ALLOC|SHF_MERGE|SHF_STRINGS,1
	0x4303f4cc		.L__FUNCTION__.mqtt_subscribes
.rodata.str1.1	0x4303f4dc	0x29	D:\GC_connection\GC_connection\gagent\libgagent.a(mqttlib.o)	#SHT_PROGBITS,SHF_ALLOC|SHF_MERGE|SHF_STRINGS,1
	0x4303f4dc		.L.str.17
PADDING_ALIGNMENT	0x4303f505	0x3	0x0
.rodata	0x4303f508	0xc	D:\GC_connection\GC_connection\gagent\libgagent.a(mqttlib.o)	#SHT_PROGBITS,SHF_ALLOC,8
.rodata.str1.1	0x4303f514	0x24	D:\GC_connection\GC_connection\gagent\libgagent.a(otawan.o)	#SHT_PROGBITS,SHF_ALLOC|SHF_MERGE|SHF_STRINGS,1
	0x4303f514		.L.str.2
.rodata.str1.1	0x4303f538	0x13	D:\GC_connection\GC_connection\gagent\libgagent.a(otawan.o)	#SHT_PROGBITS,SHF_ALLOC|SHF_MERGE|SHF_STRINGS,1
	0x4303f538		.L__FUNCTION__.gatWanOtaStatusGet
.rodata.str1.1	0x4303f54b	0x36	D:\GC_connection\GC_connection\gagent\libgagent.a(otawan.o)	#SHT_PROGBITS,SHF_ALLOC|SHF_MERGE|SHF_STRINGS,1
	0x4303f54b		.L.str.3
.rodata.str1.1	0x4303f581	0x12	D:\GC_connection\GC_connection\gagent\libgagent.a(otawan.o)	#SHT_PROGBITS,SHF_ALLOC|SHF_MERGE|SHF_STRINGS,1
	0x4303f581		.L__FUNCTION__.gatOTAEventHandle
.rodata.str1.1	0x4303f593	0x10	D:\GC_connection\GC_connection\gagent\libgagent.a(otawan.o)	#SHT_PROGBITS,SHF_ALLOC|SHF_MERGE|SHF_STRINGS,1
	0x4303f593		.L.str.5
.rodata.str1.1	0x4303f5a3	0x7	D:\GC_connection\GC_connection\gagent\libgagent.a(otawan.o)	#SHT_PROGBITS,SHF_ALLOC|SHF_MERGE|SHF_STRINGS,1
	0x4303f5a3		.L.str.6
.rodata.str1.1	0x4303f5aa	0x32	D:\GC_connection\GC_connection\gagent\libgagent.a(otawan.o)	#SHT_PROGBITS,SHF_ALLOC|SHF_MERGE|SHF_STRINGS,1
	0x4303f5aa		.L.str.7
.rodata.str1.1	0x4303f5dc	0xf	D:\GC_connection\GC_connection\gagent\libgagent.a(otawan.o)	#SHT_PROGBITS,SHF_ALLOC|SHF_MERGE|SHF_STRINGS,1
	0x4303f5dc		.L.str.8
.rodata.str1.1	0x4303f5eb	0x18	D:\GC_connection\GC_connection\gagent\libgagent.a(otawan.o)	#SHT_PROGBITS,SHF_ALLOC|SHF_MERGE|SHF_STRINGS,1
	0x4303f5eb		.L.str.10
.rodata.str1.1	0x4303f603	0xa	D:\GC_connection\GC_connection\gagent\libgagent.a(otawan.o)	#SHT_PROGBITS,SHF_ALLOC|SHF_MERGE|SHF_STRINGS,1
	0x4303f603		.L.str.14
.rodata.str1.1	0x4303f60d	0x5	D:\GC_connection\GC_connection\gagent\libgagent.a(otawan.o)	#SHT_PROGBITS,SHF_ALLOC|SHF_MERGE|SHF_STRINGS,1
	0x4303f60d		.L.str.17
.rodata.str1.1	0x4303f612	0x26	D:\GC_connection\GC_connection\gagent\libgagent.a(otawan.o)	#SHT_PROGBITS,SHF_ALLOC|SHF_MERGE|SHF_STRINGS,1
	0x4303f612		.L.str.18
.rodata.str1.1	0x4303f638	0x5	D:\GC_connection\GC_connection\gagent\libgagent.a(otawan.o)	#SHT_PROGBITS,SHF_ALLOC|SHF_MERGE|SHF_STRINGS,1
	0x4303f638		.L.str.19
.rodata.str1.1	0x4303f63d	0x26	D:\GC_connection\GC_connection\gagent\libgagent.a(otawan.o)	#SHT_PROGBITS,SHF_ALLOC|SHF_MERGE|SHF_STRINGS,1
	0x4303f63d		.L.str.20
.rodata.str1.1	0x4303f663	0x42	D:\GC_connection\GC_connection\gagent\libgagent.a(otawan.o)	#SHT_PROGBITS,SHF_ALLOC|SHF_MERGE|SHF_STRINGS,1
	0x4303f663		.L.str.21
.rodata.str1.1	0x4303f6a5	0x1f	D:\GC_connection\GC_connection\gagent\libgagent.a(otawan.o)	#SHT_PROGBITS,SHF_ALLOC|SHF_MERGE|SHF_STRINGS,1
	0x4303f6a5		.L.str.22
.rodata.str1.1	0x4303f6c4	0x12	D:\GC_connection\GC_connection\gagent\libgagent.a(otawan.o)	#SHT_PROGBITS,SHF_ALLOC|SHF_MERGE|SHF_STRINGS,1
	0x4303f6c4		.L__FUNCTION__.gatReqLastVersion
.rodata.str1.1	0x4303f6d6	0x28	D:\GC_connection\GC_connection\gagent\libgagent.a(otawan.o)	#SHT_PROGBITS,SHF_ALLOC|SHF_MERGE|SHF_STRINGS,1
	0x4303f6d6		.L.str.23
.rodata.str1.1	0x4303f6fe	0x6	D:\GC_connection\GC_connection\gagent\libgagent.a(otawan.o)	#SHT_PROGBITS,SHF_ALLOC|SHF_MERGE|SHF_STRINGS,1
	0x4303f6fe		.L.str.24
.rodata.str1.1	0x4303f704	0x5c	D:\GC_connection\GC_connection\gagent\libgagent.a(otawan.o)	#SHT_PROGBITS,SHF_ALLOC|SHF_MERGE|SHF_STRINGS,1
	0x4303f704		.L.str.25
.rodata.str1.1	0x4303f760	0xd	D:\GC_connection\GC_connection\gagent\libgagent.a(otawan.o)	#SHT_PROGBITS,SHF_ALLOC|SHF_MERGE|SHF_STRINGS,1
	0x4303f760		.L.str.26
.rodata.str1.1	0x4303f76d	0xc	D:\GC_connection\GC_connection\gagent\libgagent.a(otawan.o)	#SHT_PROGBITS,SHF_ALLOC|SHF_MERGE|SHF_STRINGS,1
	0x4303f76d		.L.str.27
.rodata.str1.1	0x4303f779	0x24	D:\GC_connection\GC_connection\gagent\libgagent.a(otawan.o)	#SHT_PROGBITS,SHF_ALLOC|SHF_MERGE|SHF_STRINGS,1
	0x4303f779		.L.str.30
.rodata.str1.1	0x4303f79d	0x14	D:\GC_connection\GC_connection\gagent\libgagent.a(otawan.o)	#SHT_PROGBITS,SHF_ALLOC|SHF_MERGE|SHF_STRINGS,1
	0x4303f79d		.L__FUNCTION__.gatReqLastVersionCb
.rodata.str1.1	0x4303f7b1	0x2c	D:\GC_connection\GC_connection\gagent\libgagent.a(otawan.o)	#SHT_PROGBITS,SHF_ALLOC|SHF_MERGE|SHF_STRINGS,1
	0x4303f7b1		.L.str.31
.rodata.str1.1	0x4303f7dd	0x29	D:\GC_connection\GC_connection\gagent\libgagent.a(otawan.o)	#SHT_PROGBITS,SHF_ALLOC|SHF_MERGE|SHF_STRINGS,1
	0x4303f7dd		.L.str.32
.rodata.str1.1	0x4303f806	0x1d	D:\GC_connection\GC_connection\gagent\libgagent.a(otawan.o)	#SHT_PROGBITS,SHF_ALLOC|SHF_MERGE|SHF_STRINGS,1
	0x4303f806		.L.str.33
.rodata.str1.1	0x4303f823	0x1a	D:\GC_connection\GC_connection\gagent\libgagent.a(otawan.o)	#SHT_PROGBITS,SHF_ALLOC|SHF_MERGE|SHF_STRINGS,1
	0x4303f823		.L.str.35
.rodata.str1.1	0x4303f83d	0x15	D:\GC_connection\GC_connection\gagent\libgagent.a(otawan.o)	#SHT_PROGBITS,SHF_ALLOC|SHF_MERGE|SHF_STRINGS,1
	0x4303f83d		.L.str.36
.rodata.str1.1	0x4303f852	0x14	D:\GC_connection\GC_connection\gagent\libgagent.a(otawan.o)	#SHT_PROGBITS,SHF_ALLOC|SHF_MERGE|SHF_STRINGS,1
	0x4303f852		.L.str.37
.rodata.str1.1	0x4303f866	0x15	D:\GC_connection\GC_connection\gagent\libgagent.a(otawan.o)	#SHT_PROGBITS,SHF_ALLOC|SHF_MERGE|SHF_STRINGS,1
	0x4303f866		.L.str.38
.rodata.str1.1	0x4303f87b	0x18	D:\GC_connection\GC_connection\gagent\libgagent.a(otawan.o)	#SHT_PROGBITS,SHF_ALLOC|SHF_MERGE|SHF_STRINGS,1
	0x4303f87b		.L.str.39
.rodata.str1.1	0x4303f893	0x18	D:\GC_connection\GC_connection\gagent\libgagent.a(otawan.o)	#SHT_PROGBITS,SHF_ALLOC|SHF_MERGE|SHF_STRINGS,1
	0x4303f893		.L.str.40
.rodata.str1.1	0x4303f8ab	0x18	D:\GC_connection\GC_connection\gagent\libgagent.a(otawan.o)	#SHT_PROGBITS,SHF_ALLOC|SHF_MERGE|SHF_STRINGS,1
	0x4303f8ab		.L.str.41
.rodata.str1.1	0x4303f8c3	0x20	D:\GC_connection\GC_connection\gagent\libgagent.a(otawan.o)	#SHT_PROGBITS,SHF_ALLOC|SHF_MERGE|SHF_STRINGS,1
	0x4303f8c3		.L.str.42
.rodata.str1.1	0x4303f8e3	0x11	D:\GC_connection\GC_connection\gagent\libgagent.a(otawan.o)	#SHT_PROGBITS,SHF_ALLOC|SHF_MERGE|SHF_STRINGS,1
	0x4303f8e3		.L__FUNCTION__.gatOtaSoftVerify
.rodata.str1.1	0x4303f8f4	0x9	D:\GC_connection\GC_connection\gagent\libgagent.a(otawan.o)	#SHT_PROGBITS,SHF_ALLOC|SHF_MERGE|SHF_STRINGS,1
	0x4303f8f4		.L.str.43
.rodata.str1.1	0x4303f8fd	0x22	D:\GC_connection\GC_connection\gagent\libgagent.a(otawan.o)	#SHT_PROGBITS,SHF_ALLOC|SHF_MERGE|SHF_STRINGS,1
	0x4303f8fd		.L.str.44
.rodata.str1.1	0x4303f91f	0x1d	D:\GC_connection\GC_connection\gagent\libgagent.a(otawan.o)	#SHT_PROGBITS,SHF_ALLOC|SHF_MERGE|SHF_STRINGS,1
	0x4303f91f		.L.str.45
.rodata.str1.1	0x4303f93c	0xd	D:\GC_connection\GC_connection\gagent\libgagent.a(otawan.o)	#SHT_PROGBITS,SHF_ALLOC|SHF_MERGE|SHF_STRINGS,1
	0x4303f93c		.L.str.46
.rodata.str1.1	0x4303f949	0x8	D:\GC_connection\GC_connection\gagent\libgagent.a(otawan.o)	#SHT_PROGBITS,SHF_ALLOC|SHF_MERGE|SHF_STRINGS,1
	0x4303f949		.L.str.47
.rodata.str1.1	0x4303f951	0x37	D:\GC_connection\GC_connection\gagent\libgagent.a(otawan.o)	#SHT_PROGBITS,SHF_ALLOC|SHF_MERGE|SHF_STRINGS,1
	0x4303f951		.L.str.50
.rodata.str1.1	0x4303f988	0x2c	D:\GC_connection\GC_connection\gagent\libgagent.a(otawan.o)	#SHT_PROGBITS,SHF_ALLOC|SHF_MERGE|SHF_STRINGS,1
	0x4303f988		.L.str.52
.rodata.str1.1	0x4303f9b4	0x13	D:\GC_connection\GC_connection\gagent\libgagent.a(otawan.o)	#SHT_PROGBITS,SHF_ALLOC|SHF_MERGE|SHF_STRINGS,1
	0x4303f9b4		.L.str.53
.rodata.str1.1	0x4303f9c7	0x34	D:\GC_connection\GC_connection\gagent\libgagent.a(otawan.o)	#SHT_PROGBITS,SHF_ALLOC|SHF_MERGE|SHF_STRINGS,1
	0x4303f9c7		.L.str.54
.rodata.str1.1	0x4303f9fb	0x13	D:\GC_connection\GC_connection\gagent\libgagent.a(otawan.o)	#SHT_PROGBITS,SHF_ALLOC|SHF_MERGE|SHF_STRINGS,1
	0x4303f9fb		.L__FUNCTION__.gatWanOtaStatusSet
.rodata.str1.1	0x4303fa0e	0x26	D:\GC_connection\GC_connection\gagent\libgagent.a(otawan.o)	#SHT_PROGBITS,SHF_ALLOC|SHF_MERGE|SHF_STRINGS,1
	0x4303fa0e		.L.str.55
.rodata.str1.1	0x4303fa34	0x16	D:\GC_connection\GC_connection\gagent\libgagent.a(otawan.o)	#SHT_PROGBITS,SHF_ALLOC|SHF_MERGE|SHF_STRINGS,1
	0x4303fa34		.L__FUNCTION__.gatDownLoadFirmwareCb
.rodata.str1.1	0x4303fa4a	0x1a	D:\GC_connection\GC_connection\gagent\libgagent.a(otawan.o)	#SHT_PROGBITS,SHF_ALLOC|SHF_MERGE|SHF_STRINGS,1
	0x4303fa4a		.L.str.56
.rodata.str1.1	0x4303fa64	0x38	D:\GC_connection\GC_connection\gagent\libgagent.a(otawan.o)	#SHT_PROGBITS,SHF_ALLOC|SHF_MERGE|SHF_STRINGS,1
	0x4303fa64		.L.str.57
.rodata.str1.1	0x4303fa9c	0x35	D:\GC_connection\GC_connection\gagent\libgagent.a(otawan.o)	#SHT_PROGBITS,SHF_ALLOC|SHF_MERGE|SHF_STRINGS,1
	0x4303fa9c		.L.str.58
.rodata.str1.1	0x4303fad1	0x1a	D:\GC_connection\GC_connection\gagent\libgagent.a(otawan.o)	#SHT_PROGBITS,SHF_ALLOC|SHF_MERGE|SHF_STRINGS,1
	0x4303fad1		.L.str.59
.rodata.str1.1	0x4303faeb	0x1a	D:\GC_connection\GC_connection\gagent\libgagent.a(otawan.o)	#SHT_PROGBITS,SHF_ALLOC|SHF_MERGE|SHF_STRINGS,1
	0x4303faeb		.L.str.60
.rodata.str1.1	0x4303fb05	0x1a	D:\GC_connection\GC_connection\gagent\libgagent.a(otawan.o)	#SHT_PROGBITS,SHF_ALLOC|SHF_MERGE|SHF_STRINGS,1
	0x4303fb05		.L.str.61
.rodata.str1.1	0x4303fb1f	0x1a	D:\GC_connection\GC_connection\gagent\libgagent.a(otawan.o)	#SHT_PROGBITS,SHF_ALLOC|SHF_MERGE|SHF_STRINGS,1
	0x4303fb1f		.L.str.62
.rodata.str1.1	0x4303fb39	0x12	D:\GC_connection\GC_connection\gagent\libgagent.a(otawan.o)	#SHT_PROGBITS,SHF_ALLOC|SHF_MERGE|SHF_STRINGS,1
	0x4303fb39		.L.str.63
.rodata.str1.1	0x4303fb4b	0x1a	D:\GC_connection\GC_connection\gagent\libgagent.a(otawan.o)	#SHT_PROGBITS,SHF_ALLOC|SHF_MERGE|SHF_STRINGS,1
	0x4303fb4b		.L.str.64
.rodata.str1.1	0x4303fb65	0x11	D:\GC_connection\GC_connection\gagent\libgagent.a(otawan.o)	#SHT_PROGBITS,SHF_ALLOC|SHF_MERGE|SHF_STRINGS,1
	0x4303fb65		.L.str.65
.rodata.str1.1	0x4303fb76	0x14	D:\GC_connection\GC_connection\gagent\libgagent.a(otawan.o)	#SHT_PROGBITS,SHF_ALLOC|SHF_MERGE|SHF_STRINGS,1
	0x4303fb76		.L.str.67
.rodata.str1.1	0x4303fb8a	0x13	D:\GC_connection\GC_connection\gagent\libgagent.a(otawan.o)	#SHT_PROGBITS,SHF_ALLOC|SHF_MERGE|SHF_STRINGS,1
	0x4303fb8a		.L.str.68
.rodata.str1.1	0x4303fb9d	0x17	D:\GC_connection\GC_connection\gagent\libgagent.a(otawan.o)	#SHT_PROGBITS,SHF_ALLOC|SHF_MERGE|SHF_STRINGS,1
	0x4303fb9d		.L.str.69
.rodata.str1.1	0x4303fbb4	0x29	D:\GC_connection\GC_connection\gagent\libgagent.a(otawan.o)	#SHT_PROGBITS,SHF_ALLOC|SHF_MERGE|SHF_STRINGS,1
	0x4303fbb4		.L.str.70
.rodata.str1.1	0x4303fbdd	0x15	D:\GC_connection\GC_connection\gagent\libgagent.a(otawan.o)	#SHT_PROGBITS,SHF_ALLOC|SHF_MERGE|SHF_STRINGS,1
	0x4303fbdd		.L.str.71
.rodata.str1.1	0x4303fbf2	0x12	D:\GC_connection\GC_connection\gagent\libgagent.a(otawan.o)	#SHT_PROGBITS,SHF_ALLOC|SHF_MERGE|SHF_STRINGS,1
	0x4303fbf2		.L.str.72
.rodata.str1.1	0x4303fc04	0x5c	D:\GC_connection\GC_connection\gagent\libgagent.a(otawan.o)	#SHT_PROGBITS,SHF_ALLOC|SHF_MERGE|SHF_STRINGS,1
	0x4303fc04		.L.str.73
.rodata.str1.1	0x4303fc60	0x1e	D:\GC_connection\GC_connection\gagent\libgagent.a(otawan.o)	#SHT_PROGBITS,SHF_ALLOC|SHF_MERGE|SHF_STRINGS,1
	0x4303fc60		.L.str.74
.rodata.str1.1	0x4303fc7e	0x20	D:\GC_connection\GC_connection\gagent\libgagent.a(otawan.o)	#SHT_PROGBITS,SHF_ALLOC|SHF_MERGE|SHF_STRINGS,1
	0x4303fc7e		.L.str.75
.rodata.str1.1	0x4303fc9e	0x21	D:\GC_connection\GC_connection\gagent\libgagent.a(otawan.o)	#SHT_PROGBITS,SHF_ALLOC|SHF_MERGE|SHF_STRINGS,1
	0x4303fc9e		.L.str.76
.rodata.str1.1	0x4303fcbf	0x31	D:\GC_connection\GC_connection\gagent\libgagent.a(otawan.o)	#SHT_PROGBITS,SHF_ALLOC|SHF_MERGE|SHF_STRINGS,1
	0x4303fcbf		.L.str.77
.rodata.str1.1	0x4303fcf0	0x20	D:\GC_connection\GC_connection\gagent\libgagent.a(otawan.o)	#SHT_PROGBITS,SHF_ALLOC|SHF_MERGE|SHF_STRINGS,1
	0x4303fcf0		.L.str.78
.rodata.str1.1	0x4303fd10	0x23	D:\GC_connection\GC_connection\gagent\libgagent.a(otawan.o)	#SHT_PROGBITS,SHF_ALLOC|SHF_MERGE|SHF_STRINGS,1
	0x4303fd10		.L.str.79
.rodata.str1.1	0x4303fd33	0x4d	D:\GC_connection\GC_connection\gagent\libgagent.a(otawan.o)	#SHT_PROGBITS,SHF_ALLOC|SHF_MERGE|SHF_STRINGS,1
	0x4303fd33		.L.str.80
.rodata.str1.1	0x4303fd80	0x39	D:\GC_connection\GC_connection\gagent\libgagent.a(otawan.o)	#SHT_PROGBITS,SHF_ALLOC|SHF_MERGE|SHF_STRINGS,1
	0x4303fd80		.L.str.81
.rodata.str1.1	0x4303fdb9	0x12	D:\GC_connection\GC_connection\gagent\libgagent.a(otawan.o)	#SHT_PROGBITS,SHF_ALLOC|SHF_MERGE|SHF_STRINGS,1
	0x4303fdb9		.L.str.82
.rodata.str1.1	0x4303fdcb	0x15	D:\GC_connection\GC_connection\gagent\libgagent.a(otawan.o)	#SHT_PROGBITS,SHF_ALLOC|SHF_MERGE|SHF_STRINGS,1
	0x4303fdcb		.L__FUNCTION__.gatReDownloadTimerCb
.rodata.str1.1	0x4303fde0	0x1e	D:\GC_connection\GC_connection\gagent\libgagent.a(simulator.o)	#SHT_PROGBITS,SHF_ALLOC|SHF_MERGE|SHF_STRINGS,1
	0x4303fde0		.L__FUNCTION__.simulatorLogOutCloudTimeOutCb
.rodata.str1.1	0x4303fdfe	0x28	D:\GC_connection\GC_connection\gagent\libgagent.a(simulator.o)	#SHT_PROGBITS,SHF_ALLOC|SHF_MERGE|SHF_STRINGS,1
	0x4303fdfe		.L.str.3
.rodata.str1.1	0x4303fe26	0x13	D:\GC_connection\GC_connection\gagent\libgagent.a(simulator.o)	#SHT_PROGBITS,SHF_ALLOC|SHF_MERGE|SHF_STRINGS,1
	0x4303fe26		.L__FUNCTION__.onSimulatorLoginCb
.rodata.str1.1	0x4303fe39	0x17	D:\GC_connection\GC_connection\gagent\libgagent.a(simulator.o)	#SHT_PROGBITS,SHF_ALLOC|SHF_MERGE|SHF_STRINGS,1
	0x4303fe39		.L.str.9
.rodata.str1.1	0x4303fe50	0x38	D:\GC_connection\GC_connection\gagent\libgagent.a(simulator.o)	#SHT_PROGBITS,SHF_ALLOC|SHF_MERGE|SHF_STRINGS,1
	0x4303fe50		.L.str.10
.rodata.str1.1	0x4303fe88	0x22	D:\GC_connection\GC_connection\gagent\libgagent.a(simulator.o)	#SHT_PROGBITS,SHF_ALLOC|SHF_MERGE|SHF_STRINGS,1
	0x4303fe88		.L.str.11
.rodata.str1.1	0x4303feaa	0x10	D:\GC_connection\GC_connection\gagent\libgagent.a(simulator.o)	#SHT_PROGBITS,SHF_ALLOC|SHF_MERGE|SHF_STRINGS,1
	0x4303feaa		.L.str.14
.rodata.str1.1	0x4303feba	0x15	D:\GC_connection\GC_connection\gagent\libgagent.a(simulator.o)	#SHT_PROGBITS,SHF_ALLOC|SHF_MERGE|SHF_STRINGS,1
	0x4303feba		.L__FUNCTION__.onSimulatorSignOutCb
.rodata.str1.1	0x4303fecf	0x1a	D:\GC_connection\GC_connection\gagent\libgagent.a(simulator.o)	#SHT_PROGBITS,SHF_ALLOC|SHF_MERGE|SHF_STRINGS,1
	0x4303fecf		.L.str.15
.rodata.str1.1	0x4303fee9	0x24	D:\GC_connection\GC_connection\gagent\libgagent.a(simulator.o)	#SHT_PROGBITS,SHF_ALLOC|SHF_MERGE|SHF_STRINGS,1
	0x4303fee9		.L.str.16
.rodata.str1.1	0x4303ff0d	0x25	D:\GC_connection\GC_connection\gagent\libgagent.a(simulator.o)	#SHT_PROGBITS,SHF_ALLOC|SHF_MERGE|SHF_STRINGS,1
	0x4303ff0d		.L.str.17
.rodata.str1.1	0x4303ff32	0x14	D:\GC_connection\GC_connection\gagent\libgagent.a(simulator.o)	#SHT_PROGBITS,SHF_ALLOC|SHF_MERGE|SHF_STRINGS,1
	0x4303ff32		.L.str.18
.rodata.str1.1	0x4303ff46	0x15	D:\GC_connection\GC_connection\gagent\libgagent.a(simulator.o)	#SHT_PROGBITS,SHF_ALLOC|SHF_MERGE|SHF_STRINGS,1
	0x4303ff46		.L__FUNCTION__.gatSubDevsRegisterCb
.rodata.str1.1	0x4303ff5b	0x2b	D:\GC_connection\GC_connection\gagent\libgagent.a(simulator.o)	#SHT_PROGBITS,SHF_ALLOC|SHF_MERGE|SHF_STRINGS,1
	0x4303ff5b		.L.str.19
.rodata.str1.1	0x4303ff86	0x14	D:\GC_connection\GC_connection\gagent\libgagent.a(simulator.o)	#SHT_PROGBITS,SHF_ALLOC|SHF_MERGE|SHF_STRINGS,1
	0x4303ff86		.L.str.20
.rodata.str1.1	0x4303ff9a	0x12	D:\GC_connection\GC_connection\gagent\libgagent.a(simulator.o)	#SHT_PROGBITS,SHF_ALLOC|SHF_MERGE|SHF_STRINGS,1
	0x4303ff9a		.L__FUNCTION__.gagentconnect2M2M
.rodata.str1.1	0x4303ffac	0x21	D:\GC_connection\GC_connection\gagent\libgagent.a(simulator.o)	#SHT_PROGBITS,SHF_ALLOC|SHF_MERGE|SHF_STRINGS,1
	0x4303ffac		.L.str.21
.rodata.str1.1	0x4303ffcd	0x24	D:\GC_connection\GC_connection\gagent\libgagent.a(simulator.o)	#SHT_PROGBITS,SHF_ALLOC|SHF_MERGE|SHF_STRINGS,1
	0x4303ffcd		.L.str.22
.rodata.str1.1	0x4303fff1	0x1d	D:\GC_connection\GC_connection\gagent\libgagent.a(simulator.o)	#SHT_PROGBITS,SHF_ALLOC|SHF_MERGE|SHF_STRINGS,1
	0x4303fff1		.L.str.23
.rodata.str1.1	0x4304000e	0x11	D:\GC_connection\GC_connection\gagent\libgagent.a(simulator.o)	#SHT_PROGBITS,SHF_ALLOC|SHF_MERGE|SHF_STRINGS,1
	0x4304000e		.L.str.24
.rodata.str1.1	0x4304001f	0x3f	D:\GC_connection\GC_connection\gagent\libgagent.a(simulator.o)	#SHT_PROGBITS,SHF_ALLOC|SHF_MERGE|SHF_STRINGS,1
	0x4304001f		.L.str.25
.rodata.str1.1	0x4304005e	0x29	D:\GC_connection\GC_connection\gagent\libgagent.a(simulator.o)	#SHT_PROGBITS,SHF_ALLOC|SHF_MERGE|SHF_STRINGS,1
	0x4304005e		.L.str.26
.rodata.str1.1	0x43040087	0x14	D:\GC_connection\GC_connection\gagent\libgagent.a(simulator.o)	#SHT_PROGBITS,SHF_ALLOC|SHF_MERGE|SHF_STRINGS,1
	0x43040087		.L__FUNCTION__.gagentDisconnectM2M
.rodata.str1.1	0x4304009b	0x1c	D:\GC_connection\GC_connection\gagent\libgagent.a(simulator.o)	#SHT_PROGBITS,SHF_ALLOC|SHF_MERGE|SHF_STRINGS,1
	0x4304009b		.L.str.27
.rodata.str1.1	0x430400b7	0xc	D:\GC_connection\GC_connection\gagent\libgagent.a(simulator.o)	#SHT_PROGBITS,SHF_ALLOC|SHF_MERGE|SHF_STRINGS,1
	0x430400b7		.L.str.28
.rodata.str1.1	0x430400c3	0x32	D:\GC_connection\GC_connection\gagent\libgagent.a(simulator.o)	#SHT_PROGBITS,SHF_ALLOC|SHF_MERGE|SHF_STRINGS,1
	0x430400c3		.L.str.29
.rodata.str1.1	0x430400f5	0x19	D:\GC_connection\GC_connection\gagent\libgagent.a(simulator.o)	#SHT_PROGBITS,SHF_ALLOC|SHF_MERGE|SHF_STRINGS,1
	0x430400f5		.L.str.30
.rodata.str1.1	0x4304010e	0x5b	D:\GC_connection\GC_connection\gagent\libgagent.a(simulator.o)	#SHT_PROGBITS,SHF_ALLOC|SHF_MERGE|SHF_STRINGS,1
	0x4304010e		.L.str.31
.rodata.str1.1	0x43040169	0x15	D:\GC_connection\GC_connection\gagent\libgagent.a(simulator.o)	#SHT_PROGBITS,SHF_ALLOC|SHF_MERGE|SHF_STRINGS,1
	0x43040169		.L__FUNCTION__.gagentResetSimulator
.rodata.str1.1	0x4304017e	0x44	D:\GC_connection\GC_connection\gagent\libgagent.a(simulator.o)	#SHT_PROGBITS,SHF_ALLOC|SHF_MERGE|SHF_STRINGS,1
	0x4304017e		.L.str.32
.rodata.str1.1	0x430401c2	0x2c	D:\GC_connection\GC_connection\gagent\libgagent.a(simulator.o)	#SHT_PROGBITS,SHF_ALLOC|SHF_MERGE|SHF_STRINGS,1
	0x430401c2		.L.str.33
.rodata.str1.1	0x430401ee	0xe	D:\GC_connection\GC_connection\gagent\libgagent.a(simulator.o)	#SHT_PROGBITS,SHF_ALLOC|SHF_MERGE|SHF_STRINGS,1
	0x430401ee		.L.str.34
.rodata.str1.1	0x430401fc	0x25	D:\GC_connection\GC_connection\gagent\libgagent.a(simulator.o)	#SHT_PROGBITS,SHF_ALLOC|SHF_MERGE|SHF_STRINGS,1
	0x430401fc		.L.str.35
.rodata.str1.1	0x43040221	0x24	D:\GC_connection\GC_connection\gagent\libgagent.a(simulator.o)	#SHT_PROGBITS,SHF_ALLOC|SHF_MERGE|SHF_STRINGS,1
	0x43040221		.L.str.36
.rodata.str1.1	0x43040245	0x25	D:\GC_connection\GC_connection\gagent\libgagent.a(simulator.o)	#SHT_PROGBITS,SHF_ALLOC|SHF_MERGE|SHF_STRINGS,1
	0x43040245		.L.str.37
.rodata.str1.1	0x4304026a	0x28	D:\GC_connection\GC_connection\gagent\libgagent.a(simulator.o)	#SHT_PROGBITS,SHF_ALLOC|SHF_MERGE|SHF_STRINGS,1
	0x4304026a		.L.str.38
.rodata.str1.1	0x43040292	0x23	D:\GC_connection\GC_connection\gagent\libgagent.a(simulator.o)	#SHT_PROGBITS,SHF_ALLOC|SHF_MERGE|SHF_STRINGS,1
	0x43040292		.L.str.39
.rodata.str1.1	0x430402b5	0x13	D:\GC_connection\GC_connection\gagent\libgagent.a(simulator.o)	#SHT_PROGBITS,SHF_ALLOC|SHF_MERGE|SHF_STRINGS,1
	0x430402b5		.L__FUNCTION__.gagentDevsRegister
.rodata.str1.1	0x430402c8	0x24	D:\GC_connection\GC_connection\gagent\libgagent.a(simulator.o)	#SHT_PROGBITS,SHF_ALLOC|SHF_MERGE|SHF_STRINGS,1
	0x430402c8		.L.str.40
.rodata.str1.1	0x430402ec	0x24	D:\GC_connection\GC_connection\gagent\libgagent.a(simulator.o)	#SHT_PROGBITS,SHF_ALLOC|SHF_MERGE|SHF_STRINGS,1
	0x430402ec		.L.str.41
.rodata.str1.1	0x43040310	0x27	D:\GC_connection\GC_connection\gagent\libgagent.a(simulator.o)	#SHT_PROGBITS,SHF_ALLOC|SHF_MERGE|SHF_STRINGS,1
	0x43040310		.L.str.42
.rodata.str1.1	0x43040337	0x45	D:\GC_connection\GC_connection\gagent\libgagent.a(simulator.o)	#SHT_PROGBITS,SHF_ALLOC|SHF_MERGE|SHF_STRINGS,1
	0x43040337		.L.str.43
.rodata.str1.1	0x4304037c	0x3c	D:\GC_connection\GC_connection\gagent\libgagent.a(simulator.o)	#SHT_PROGBITS,SHF_ALLOC|SHF_MERGE|SHF_STRINGS,1
	0x4304037c		.L.str.44
.rodata.str1.1	0x430403b8	0x2d	D:\GC_connection\GC_connection\gagent\libgagent.a(simulator.o)	#SHT_PROGBITS,SHF_ALLOC|SHF_MERGE|SHF_STRINGS,1
	0x430403b8		.L.str.45
.rodata.str1.1	0x430403e5	0x41	D:\GC_connection\GC_connection\gagent\libgagent.a(simulator.o)	#SHT_PROGBITS,SHF_ALLOC|SHF_MERGE|SHF_STRINGS,1
	0x430403e5		.L.str.46
.rodata.str1.1	0x43040426	0x40	D:\GC_connection\GC_connection\gagent\libgagent.a(simulator.o)	#SHT_PROGBITS,SHF_ALLOC|SHF_MERGE|SHF_STRINGS,1
	0x43040426		.L.str.47
.rodata.str1.1	0x43040466	0x10	D:\GC_connection\GC_connection\gagent\libgagent.a(simulator.o)	#SHT_PROGBITS,SHF_ALLOC|SHF_MERGE|SHF_STRINGS,1
	0x43040466		.L.str.48
.rodata.str1.1	0x43040476	0x1c	D:\GC_connection\GC_connection\gagent\libgagent.a(simulator.o)	#SHT_PROGBITS,SHF_ALLOC|SHF_MERGE|SHF_STRINGS,1
	0x43040476		.L.str.49
.rodata.str1.1	0x43040492	0x20	D:\GC_connection\GC_connection\gagent\libgagent.a(simulator.o)	#SHT_PROGBITS,SHF_ALLOC|SHF_MERGE|SHF_STRINGS,1
	0x43040492		.L.str.50
.rodata.str1.1	0x430404b2	0x1e	D:\GC_connection\GC_connection\gagent\libgagent.a(simulator.o)	#SHT_PROGBITS,SHF_ALLOC|SHF_MERGE|SHF_STRINGS,1
	0x430404b2		.L.str.51
.rodata.str1.1	0x430404d0	0xb	D:\GC_connection\GC_connection\gagent\libgagent.a(simulator.o)	#SHT_PROGBITS,SHF_ALLOC|SHF_MERGE|SHF_STRINGS,1
	0x430404d0		.L.str.53
.rodata.str1.1	0x430404db	0xf	D:\GC_connection\GC_connection\gagent\libgagent.a(simulator.o)	#SHT_PROGBITS,SHF_ALLOC|SHF_MERGE|SHF_STRINGS,1
	0x430404db		.L.str.54
.rodata.str1.1	0x430404ea	0x16	D:\GC_connection\GC_connection\gagent\libgagent.a(simulator.o)	#SHT_PROGBITS,SHF_ALLOC|SHF_MERGE|SHF_STRINGS,1
	0x430404ea		.L.str.55
.rodata.str1.1	0x43040500	0x6	D:\GC_connection\GC_connection\gagent\libgagent.a(simulator.o)	#SHT_PROGBITS,SHF_ALLOC|SHF_MERGE|SHF_STRINGS,1
.rodata.str1.1	0x43040506	0xd	D:\GC_connection\GC_connection\gagent\libgagent.a(simulator.o)	#SHT_PROGBITS,SHF_ALLOC|SHF_MERGE|SHF_STRINGS,1
	0x43040506		.L.str.57
.rodata.str1.1	0x43040513	0xc	D:\GC_connection\GC_connection\gagent\libgagent.a(simulator.o)	#SHT_PROGBITS,SHF_ALLOC|SHF_MERGE|SHF_STRINGS,1
	0x43040513		.L.str.58
.rodata.str1.1	0x4304051f	0x14	D:\GC_connection\GC_connection\gagent\libgagent.a(simulator.o)	#SHT_PROGBITS,SHF_ALLOC|SHF_MERGE|SHF_STRINGS,1
	0x4304051f		.L.str.59
.rodata.str1.1	0x43040533	0x1e	D:\GC_connection\GC_connection\gagent\libgagent.a(simulator.o)	#SHT_PROGBITS,SHF_ALLOC|SHF_MERGE|SHF_STRINGS,1
	0x43040533		.L.str.60
.rodata.str1.1	0x43040551	0x20	D:\GC_connection\GC_connection\gagent\libgagent.a(simulator.o)	#SHT_PROGBITS,SHF_ALLOC|SHF_MERGE|SHF_STRINGS,1
	0x43040551		.L.str.61
.rodata.str1.1	0x43040571	0x2a	D:\GC_connection\GC_connection\gagent\libgagent.a(simulator.o)	#SHT_PROGBITS,SHF_ALLOC|SHF_MERGE|SHF_STRINGS,1
	0x43040571		.L.str.62
.rodata.str1.1	0x4304059b	0x23	D:\GC_connection\GC_connection\gagent\libgagent.a(simulator.o)	#SHT_PROGBITS,SHF_ALLOC|SHF_MERGE|SHF_STRINGS,1
	0x4304059b		.L.str.63
.rodata.str1.1	0x430405be	0x22	D:\GC_connection\GC_connection\gagent\libgagent.a(simulator.o)	#SHT_PROGBITS,SHF_ALLOC|SHF_MERGE|SHF_STRINGS,1
	0x430405be		.L.str.64
.rodata.str1.1	0x430405e0	0x23	D:\GC_connection\GC_connection\gagent\libgagent.a(simulator.o)	#SHT_PROGBITS,SHF_ALLOC|SHF_MERGE|SHF_STRINGS,1
	0x430405e0		.L.str.68
.rodata.str1.1	0x43040603	0x26	D:\GC_connection\GC_connection\gagent\libgagent.a(simulator.o)	#SHT_PROGBITS,SHF_ALLOC|SHF_MERGE|SHF_STRINGS,1
	0x43040603		.L.str.69
.rodata.str1.1	0x43040629	0x1c	D:\GC_connection\GC_connection\gagent\libgagent.a(simulator.o)	#SHT_PROGBITS,SHF_ALLOC|SHF_MERGE|SHF_STRINGS,1
	0x43040629		.L__FUNCTION__.simulatorDevsLoginTimeOutCb
.rodata.str1.1	0x43040645	0x20	D:\GC_connection\GC_connection\gagent\libgagent.a(simulator.o)	#SHT_PROGBITS,SHF_ALLOC|SHF_MERGE|SHF_STRINGS,1
	0x43040645		.L.str.70
.rodata.str1.1	0x43040665	0x10	D:\GC_connection\GC_connection\gagent\libgagent.a(simulator.o)	#SHT_PROGBITS,SHF_ALLOC|SHF_MERGE|SHF_STRINGS,1
	0x43040665		.L__FUNCTION__.gagentDevsLogin
.rodata.str1.1	0x43040675	0x1e	D:\GC_connection\GC_connection\gagent\libgagent.a(simulator.o)	#SHT_PROGBITS,SHF_ALLOC|SHF_MERGE|SHF_STRINGS,1
	0x43040675		.L.str.71
.rodata.str1.1	0x43040693	0x43	D:\GC_connection\GC_connection\gagent\libgagent.a(simulator.o)	#SHT_PROGBITS,SHF_ALLOC|SHF_MERGE|SHF_STRINGS,1
	0x43040693		.L.str.72
.rodata.str1.1	0x430406d6	0x17	D:\GC_connection\GC_connection\gagent\libgagent.a(simulator.o)	#SHT_PROGBITS,SHF_ALLOC|SHF_MERGE|SHF_STRINGS,1
	0x430406d6		.L.str.73
.rodata.str1.1	0x430406ed	0x11	D:\GC_connection\GC_connection\gagent\libgagent.a(simulator.o)	#SHT_PROGBITS,SHF_ALLOC|SHF_MERGE|SHF_STRINGS,1
	0x430406ed		.L.str.75
.rodata.str1.1	0x430406fe	0x21	D:\GC_connection\GC_connection\gagent\libgagent.a(simulator.o)	#SHT_PROGBITS,SHF_ALLOC|SHF_MERGE|SHF_STRINGS,1
	0x430406fe		.L.str.76
.rodata.str1.1	0x4304071f	0x1c	D:\GC_connection\GC_connection\gagent\libgagent.a(simulator.o)	#SHT_PROGBITS,SHF_ALLOC|SHF_MERGE|SHF_STRINGS,1
	0x4304071f		.L__FUNCTION__.simulatorM2MSignOutSocketCb
.rodata.str1.1	0x4304073b	0x47	D:\GC_connection\GC_connection\gagent\libgagent.a(simulator.o)	#SHT_PROGBITS,SHF_ALLOC|SHF_MERGE|SHF_STRINGS,1
	0x4304073b		.L.str.77
.rodata.str1.1	0x43040782	0x1c	D:\GC_connection\GC_connection\gagent\libgagent.a(simulator.o)	#SHT_PROGBITS,SHF_ALLOC|SHF_MERGE|SHF_STRINGS,1
	0x43040782		.L__FUNCTION__.simulatorGServerResetRec_Cb
.rodata.str1.1	0x4304079e	0x30	D:\GC_connection\GC_connection\gagent\libgagent.a(simulator.o)	#SHT_PROGBITS,SHF_ALLOC|SHF_MERGE|SHF_STRINGS,1
	0x4304079e		.L.str.78
.rodata.str1.1	0x430407ce	0x33	D:\GC_connection\GC_connection\gagent\libgagent.a(simulator.o)	#SHT_PROGBITS,SHF_ALLOC|SHF_MERGE|SHF_STRINGS,1
	0x430407ce		.L.str.79
.rodata.str1.1	0x43040801	0x1e	D:\GC_connection\GC_connection\gagent\libgagent.a(simulator.o)	#SHT_PROGBITS,SHF_ALLOC|SHF_MERGE|SHF_STRINGS,1
	0x43040801		.L.str.80
.rodata.str1.1	0x4304081f	0x17	D:\GC_connection\GC_connection\gagent\libgagent.a(simulator.o)	#SHT_PROGBITS,SHF_ALLOC|SHF_MERGE|SHF_STRINGS,1
	0x4304081f		.L.str.81
.rodata.str1.1	0x43040836	0x1b	D:\GC_connection\GC_connection\gagent\libgagent.a(simulator.o)	#SHT_PROGBITS,SHF_ALLOC|SHF_MERGE|SHF_STRINGS,1
	0x43040836		.L.str.83
.rodata.str1.1	0x43040851	0x19	D:\GC_connection\GC_connection\gagent\libgagent.a(simulator.o)	#SHT_PROGBITS,SHF_ALLOC|SHF_MERGE|SHF_STRINGS,1
	0x43040851		.L.str.84
.rodata.str1.1	0x4304086a	0x16	D:\GC_connection\GC_connection\gagent\libgagent.a(simulator.o)	#SHT_PROGBITS,SHF_ALLOC|SHF_MERGE|SHF_STRINGS,1
	0x4304086a		.L.str.85
.rodata.str1.1	0x43040880	0x1a	D:\GC_connection\GC_connection\gagent\libgagent.a(simulator.o)	#SHT_PROGBITS,SHF_ALLOC|SHF_MERGE|SHF_STRINGS,1
	0x43040880		.L__FUNCTION__.simulatorGServerRecHandle
.rodata.str1.1	0x4304089a	0x47	D:\GC_connection\GC_connection\gagent\libgagent.a(simulator.o)	#SHT_PROGBITS,SHF_ALLOC|SHF_MERGE|SHF_STRINGS,1
	0x4304089a		.L.str.87
.rodata.str1.1	0x430408e1	0x40	D:\GC_connection\GC_connection\gagent\libgagent.a(simulator.o)	#SHT_PROGBITS,SHF_ALLOC|SHF_MERGE|SHF_STRINGS,1
	0x430408e1		.L.str.88
.rodata.str1.1	0x43040921	0x26	D:\GC_connection\GC_connection\gagent\libgagent.a(simulator.o)	#SHT_PROGBITS,SHF_ALLOC|SHF_MERGE|SHF_STRINGS,1
	0x43040921		.L.str.89
.rodata.str1.1	0x43040947	0x18	D:\GC_connection\GC_connection\gagent\libgagent.a(simulator.o)	#SHT_PROGBITS,SHF_ALLOC|SHF_MERGE|SHF_STRINGS,1
	0x43040947		.L.str.90
.rodata.str1.1	0x4304095f	0x29	D:\GC_connection\GC_connection\gagent\libgagent.a(simulator.o)	#SHT_PROGBITS,SHF_ALLOC|SHF_MERGE|SHF_STRINGS,1
	0x4304095f		.L.str.91
.rodata.str1.1	0x43040988	0x37	D:\GC_connection\GC_connection\gagent\libgagent.a(simulator.o)	#SHT_PROGBITS,SHF_ALLOC|SHF_MERGE|SHF_STRINGS,1
	0x43040988		.L.str.94
.rodata.str1.1	0x430409bf	0x26	D:\GC_connection\GC_connection\gagent\libgagent.a(simulator.o)	#SHT_PROGBITS,SHF_ALLOC|SHF_MERGE|SHF_STRINGS,1
	0x430409bf		.L.str.95
.rodata.str1.1	0x430409e5	0x2d	D:\GC_connection\GC_connection\gagent\libgagent.a(simulator.o)	#SHT_PROGBITS,SHF_ALLOC|SHF_MERGE|SHF_STRINGS,1
	0x430409e5		.L.str.96
.rodata.str1.1	0x43040a12	0x2d	D:\GC_connection\GC_connection\gagent\libgagent.a(simulator.o)	#SHT_PROGBITS,SHF_ALLOC|SHF_MERGE|SHF_STRINGS,1
	0x43040a12		.L.str.97
.rodata.str1.1	0x43040a3f	0x18	D:\GC_connection\GC_connection\gagent\libgagent.a(simulator.o)	#SHT_PROGBITS,SHF_ALLOC|SHF_MERGE|SHF_STRINGS,1
	0x43040a3f		.L.str.98
.rodata.str1.1	0x43040a57	0x30	D:\GC_connection\GC_connection\gagent\libgagent.a(simulator.o)	#SHT_PROGBITS,SHF_ALLOC|SHF_MERGE|SHF_STRINGS,1
	0x43040a57		.L.str.99
.rodata.str1.1	0x43040a87	0x35	D:\GC_connection\GC_connection\gagent\libgagent.a(simulator.o)	#SHT_PROGBITS,SHF_ALLOC|SHF_MERGE|SHF_STRINGS,1
	0x43040a87		.L.str.100
.rodata.str1.1	0x43040abc	0x32	D:\GC_connection\GC_connection\gagent\libgagent.a(simulator.o)	#SHT_PROGBITS,SHF_ALLOC|SHF_MERGE|SHF_STRINGS,1
	0x43040abc		.L.str.101
.rodata.str1.1	0x43040aee	0x2f	D:\GC_connection\GC_connection\gagent\libgagent.a(simulator.o)	#SHT_PROGBITS,SHF_ALLOC|SHF_MERGE|SHF_STRINGS,1
	0x43040aee		.L.str.102
.rodata.str1.1	0x43040b1d	0x31	D:\GC_connection\GC_connection\gagent\libgagent.a(simulator.o)	#SHT_PROGBITS,SHF_ALLOC|SHF_MERGE|SHF_STRINGS,1
	0x43040b1d		.L.str.103
.rodata.str1.1	0x43040b4e	0x3b	D:\GC_connection\GC_connection\gagent\libgagent.a(simulator.o)	#SHT_PROGBITS,SHF_ALLOC|SHF_MERGE|SHF_STRINGS,1
	0x43040b4e		.L.str.104
.rodata.str1.1	0x43040b89	0x50	D:\GC_connection\GC_connection\gagent\libgagent.a(simulator.o)	#SHT_PROGBITS,SHF_ALLOC|SHF_MERGE|SHF_STRINGS,1
	0x43040b89		.L.str.105
.rodata.str1.1	0x43040bd9	0x3f	D:\GC_connection\GC_connection\gagent\libgagent.a(simulator.o)	#SHT_PROGBITS,SHF_ALLOC|SHF_MERGE|SHF_STRINGS,1
	0x43040bd9		.L.str.106
.rodata.str1.1	0x43040c18	0x2f	D:\GC_connection\GC_connection\gagent\libgagent.a(simulator.o)	#SHT_PROGBITS,SHF_ALLOC|SHF_MERGE|SHF_STRINGS,1
	0x43040c18		.L.str.107
.rodata.str1.1	0x43040c47	0x36	D:\GC_connection\GC_connection\gagent\libgagent.a(simulator.o)	#SHT_PROGBITS,SHF_ALLOC|SHF_MERGE|SHF_STRINGS,1
	0x43040c47		.L.str.108
.rodata.str1.1	0x43040c7d	0x2c	D:\GC_connection\GC_connection\gagent\libgagent.a(simulator.o)	#SHT_PROGBITS,SHF_ALLOC|SHF_MERGE|SHF_STRINGS,1
	0x43040c7d		.L.str.109
.rodata.str1.1	0x43040ca9	0x14	D:\GC_connection\GC_connection\gagent\libgagent.a(simulator.o)	#SHT_PROGBITS,SHF_ALLOC|SHF_MERGE|SHF_STRINGS,1
	0x43040ca9		.L__FUNCTION__.gatRegsiterSubRecCb
.rodata.str1.1	0x43040cbd	0x3b	D:\GC_connection\GC_connection\gagent\libgagent.a(simulator.o)	#SHT_PROGBITS,SHF_ALLOC|SHF_MERGE|SHF_STRINGS,1
	0x43040cbd		.L.str.111
.rodata.str1.1	0x43040cf8	0x33	D:\GC_connection\GC_connection\gagent\libgagent.a(simulator.o)	#SHT_PROGBITS,SHF_ALLOC|SHF_MERGE|SHF_STRINGS,1
	0x43040cf8		.L.str.112
.rodata.str1.1	0x43040d2b	0x21	D:\GC_connection\GC_connection\gagent\libgagent.a(simulator.o)	#SHT_PROGBITS,SHF_ALLOC|SHF_MERGE|SHF_STRINGS,1
	0x43040d2b		.L.str.113
.rodata.str1.1	0x43040d4c	0x1e	D:\GC_connection\GC_connection\gagent\libgagent.a(simulator.o)	#SHT_PROGBITS,SHF_ALLOC|SHF_MERGE|SHF_STRINGS,1
	0x43040d4c		.L.str.116
.rodata.str1.1	0x43040d6a	0x2a	D:\GC_connection\GC_connection\gagent\libgagent.a(simulator.o)	#SHT_PROGBITS,SHF_ALLOC|SHF_MERGE|SHF_STRINGS,1
	0x43040d6a		.L.str.118
.rodata.str1.1	0x43040d94	0x15	D:\GC_connection\GC_connection\gagent\libgagent.a(simulator.o)	#SHT_PROGBITS,SHF_ALLOC|SHF_MERGE|SHF_STRINGS,1
	0x43040d94		.L.str.119
.rodata.str1.1	0x43040da9	0x22	D:\GC_connection\GC_connection\gagent\libgagent.a(simulator.o)	#SHT_PROGBITS,SHF_ALLOC|SHF_MERGE|SHF_STRINGS,1
	0x43040da9		.L.str.120
.rodata.str1.1	0x43040dcb	0x1f	D:\GC_connection\GC_connection\gagent\libgagent.a(simulator.o)	#SHT_PROGBITS,SHF_ALLOC|SHF_MERGE|SHF_STRINGS,1
	0x43040dcb		.L.str.121
.rodata.str1.1	0x43040dea	0x4	D:\GC_connection\GC_connection\gagent\libgagent.a(simulator.o)	#SHT_PROGBITS,SHF_ALLOC|SHF_MERGE|SHF_STRINGS,1
	0x43040dea		.L.str.122
.rodata.str1.1	0x43040dee	0x1e	D:\GC_connection\GC_connection\gagent\libgagent.a(simulator.o)	#SHT_PROGBITS,SHF_ALLOC|SHF_MERGE|SHF_STRINGS,1
	0x43040dee		.L.str.123
.rodata.str1.1	0x43040e0c	0x27	D:\GC_connection\GC_connection\gagent\libgagent.a(simulator.o)	#SHT_PROGBITS,SHF_ALLOC|SHF_MERGE|SHF_STRINGS,1
	0x43040e0c		.L.str.124
.rodata.str1.1	0x43040e33	0x22	D:\GC_connection\GC_connection\gagent\libgagent.a(simulator.o)	#SHT_PROGBITS,SHF_ALLOC|SHF_MERGE|SHF_STRINGS,1
	0x43040e33		.L.str.125
.rodata.str1.1	0x43040e55	0x40	D:\GC_connection\GC_connection\gagent\libgagent.a(simulator.o)	#SHT_PROGBITS,SHF_ALLOC|SHF_MERGE|SHF_STRINGS,1
	0x43040e55		.L.str.126
PADDING_ALIGNMENT	0x43040e95	0x3	0x0
.rodata.str1.8	0x43040e98	0xd	D:\GC_connection\GC_connection\gagent\libgagent.a(simulator.o)	#SHT_PROGBITS,SHF_ALLOC|SHF_MERGE|SHF_STRINGS,8
	0x43040e98		.L.str.52
.rodata.str1.1	0x43040ea5	0x12	sdk\libs\timer_dam_lib.lib(qapi_timer_user.o)	#SHT_PROGBITS,SHF_ALLOC|SHF_MERGE|SHF_STRINGS,1
	0x43040ea5		.L.str
.rodata.cst32	0x43040eb7	0x20	D:\4.0.3\armv7m-none-eabi\libc\lib/libc.a(malloc.o)	#SHT_PROGBITS,SHF_ALLOC|SHF_MERGE,1
	0x43040eb7		a_ctz_64.debruijn32
.rodata.str1.1	0x43040ed7	0x7	D:\4.0.3\armv7m-none-eabi\libc\lib/libc.a(vfprintf.o)	#SHT_PROGBITS,SHF_ALLOC|SHF_MERGE|SHF_STRINGS,1
.rodata.str1.1	0x43040ede	0xa	D:\4.0.3\armv7m-none-eabi\libc\lib/libc.a(vfprintf.o)	#SHT_PROGBITS,SHF_ALLOC|SHF_MERGE|SHF_STRINGS,1
.rodata.states	0x43040ee8	0x1d0	D:\4.0.3\armv7m-none-eabi\libc\lib/libc.a(vfprintf.o)	#SHT_PROGBITS,SHF_ALLOC,1
	0x43040ee8		states
.rodata.cst16	0x430410b8	0x10	D:\4.0.3\armv7m-none-eabi\libc\lib/libc.a(vfprintf.o)	#SHT_PROGBITS,SHF_ALLOC|SHF_MERGE,1
	0x430410b8		xdigits
.rodata.str1.4	0x430410c8	0x14	D:\4.0.3\armv7m-none-eabi\libc\lib/libc.a(vfprintf.o)	#SHT_PROGBITS,SHF_ALLOC|SHF_MERGE|SHF_STRINGS,4
	0x430410c8		$d
PADDING_ALIGNMENT	0x430410dc	0x4	0x0
.rodata..Lvsnprintf_full.f	0x430410e0	0x90	D:\4.0.3\armv7m-none-eabi\libc\lib/libc.a(vsnprintf.o)	#SHT_PROGBITS,SHF_ALLOC,8
	0x430410e0		$d
.rodata.str1.1	0x43041170	0x58	D:\4.0.3\armv7m-none-eabi\libc\lib/libc.a(strerror.o)	#SHT_PROGBITS,SHF_ALLOC|SHF_MERGE|SHF_STRINGS,1
	0x43041170		errid
.rodata.errmsg	0x430411c8	0x70c	D:\4.0.3\armv7m-none-eabi\libc\lib/libc.a(strerror.o)	#SHT_PROGBITS,SHF_ALLOC,1
	0x430411c8		errmsg
.rodata.table	0x430418d4	0x101	D:\4.0.3\armv7m-none-eabi\libc\lib/libc.a(intscan.o)	#SHT_PROGBITS,SHF_ALLOC,1
	0x430418d4		table
.rodata..L.str	0x430419d5	0x9	D:\4.0.3\armv7m-none-eabi\libc\lib/libc.a(intscan.o)	#SHT_PROGBITS,SHF_ALLOC,1
PADDING_ALIGNMENT	0x430419de	0x2	0x0
	Image$$ER_RO$$Limit(0x43041a1c) = .( 0x43041a1c );
Image$$ER_RO$$Length(0x41a1c) = Image$$ER_RO$$Limit( 0x43041a1c ) - Image$$ER_RO$$Base( 0x43000000 );

ER_RW	0x43041a20	0xa1c # Offset: 0x41a80, LMA: 0x43041a20
	Image$$ER_RW$$Base(0x43041a20) = .( 0x43041a20 );
KEEP (*(.data .data.* ))
.data	0x43041a20	0xe0	D:\GC_connection\GC_connection\objs\main.o	#SHT_PROGBITS,SHF_ALLOC|SHF_WRITE,4
	0x43041a20		gpio_map_tbl
.data	0x43041b00	0x4	D:\GC_connection\GC_connection\gagent\libgagent.a(iofdev.o)	#SHT_PROGBITS,SHF_ALLOC|SHF_WRITE,4
	0x43041b00		__stack_chk_guard
.data	0x43041b04	0xb0	D:\GC_connection\GC_connection\gagent\libgagent.a(iofpthread.o)	#SHT_PROGBITS,SHF_ALLOC|SHF_WRITE,4
	0x43041b04		gatThreadGroup
.data	0x43041bb4	0x1	D:\GC_connection\GC_connection\gagent\libgagent.a(localprotocol.o)	#SHT_PROGBITS,SHF_ALLOC|SHF_WRITE,1
	0x43041bb4		newLocalSn.g_SN
PADDING_ALIGNMENT	0x43041bb5	0x3	0x0
.data	0x43041bb8	0xe4	D:\GC_connection\GC_connection\gagent\libgagent.a(productinfo.o)	#SHT_PROGBITS,SHF_ALLOC|SHF_WRITE,4
	0x43041bb8		configData
.data	0x43041c9c	0x4	D:\GC_connection\GC_connection\gagent\libgagent.a(aes.o)	#SHT_PROGBITS,SHF_ALLOC|SHF_WRITE,1
	0x43041c9c		R
.data	0x43041ca0	0x4	D:\GC_connection\GC_connection\gagent\libgagent.a(dp.o)	#SHT_PROGBITS,SHF_ALLOC|SHF_WRITE,4
	0x43041ca0		cpCurMode
.data	0x43041ca4	0x8	D:\GC_connection\GC_connection\gagent\libgagent.a(iofnet.o)	#SHT_PROGBITS,SHF_ALLOC|SHF_WRITE,4
	0x43041ca4		tcp_netctl_lib_status
	0x43041ca5		tcp_datacall_status
	0x43041ca8		tcp_dss_handle
.data	0x43041cac	0x4	D:\GC_connection\GC_connection\gagent\libgagent.a(mqttgat.o)	#SHT_PROGBITS,SHF_ALLOC|SHF_WRITE,4
	0x43041cac		mqttDoHeartBeat.dCloudTime
.data	0x43041cb0	0x4	D:\GC_connection\GC_connection\gagent\libgagent.a(otawan.o)	#SHT_PROGBITS,SHF_ALLOC|SHF_WRITE,4
	0x43041cb0		gatDownLoadFirmwareCb.fd
.data	0x43041cb4	0x300	D:\GC_connection\GC_connection\gagent\libgagent.a(cmdtable.o)	#SHT_PROGBITS,SHF_ALLOC|SHF_WRITE,4
	0x43041cb4		lanCmds
	0x43041d74		wanCmds
	0x43041e10		devCmds
	0x43041f9c		protCmdTab
.data	0x43041fb4	0x40	D:\GC_connection\GC_connection\gagent\libgagent.a(gagent_md5.o)	#SHT_PROGBITS,SHF_ALLOC|SHF_WRITE,1
	0x43041fb4		PADDING
PADDING_ALIGNMENT	0x43041ff4	0x4	0x0
.data.mal	0x43041ff8	0x410	D:\4.0.3\armv7m-none-eabi\libc\lib/libc.a(malloc.o)	#SHT_PROGBITS,SHF_ALLOC|SHF_WRITE,8
	0x43041ff8		mal
	0x43041ff8		$d
.data..L_MergedGlobals	0x43042408	0xc	D:\4.0.3\armv7m-none-eabi\libc\lib/libc.a(malloc.o)	#SHT_PROGBITS,SHF_ALLOC|SHF_WRITE,4
	0x43042408		$d
	0x43042408		expand_heap.end
	0x4304240c		expand_heap.heap_lock
PADDING_ALIGNMENT	0x43042414	0x4	0x0
.data.seed	0x43042418	0x8	D:\4.0.3\armv7m-none-eabi\libc\lib/libc.a(rand.o)	#SHT_PROGBITS,SHF_ALLOC|SHF_WRITE,8
	0x43042418		seed
	0x43042418		$d
.data.__progname	0x43042420	0x4	D:\4.0.3\armv7m-none-eabi\libc\lib/libc.a(libc.o)	#SHT_PROGBITS,SHF_ALLOC|SHF_WRITE,4
	0x43042420		$d
	0x43042420		__progname
	0x43042420		program_invocation_short_name
.data.__progname_full	0x43042424	0x4	D:\4.0.3\armv7m-none-eabi\libc\lib/libc.a(libc.o)	#SHT_PROGBITS,SHF_ALLOC|SHF_WRITE,4
	0x43042424		$d
	0x43042424		__progname_full
	0x43042424		program_invocation_name
.data.__expand_heap.brk	0x43042428	0x4	D:\4.0.3\armv7m-none-eabi\libc\lib/libc.a(expand_heap.o)	#SHT_PROGBITS,SHF_ALLOC|SHF_WRITE,4
	0x43042428		__expand_heap.brk
	0x43042428		$d
.data.__heap_base	0x4304242c	0x4	D:\4.0.3\armv7m-none-eabi\libc\lib/libc.a(__brk.o)	#SHT_PROGBITS,SHF_ALLOC|SHF_WRITE,4
	0x4304242c		$d
	0x4304242c		__heap_base
.data.__heap_limit	0x43042430	0x4	D:\4.0.3\armv7m-none-eabi\libc\lib/libc.a(__brk.o)	#SHT_PROGBITS,SHF_ALLOC|SHF_WRITE,4
	0x43042430		$d
	0x43042430		__heap_limit
.data.dummy_file	0x43042434	0x4	D:\4.0.3\armv7m-none-eabi\libc\lib/libc.a(__stdio_exit.o)	#SHT_PROGBITS,SHF_ALLOC|SHF_WRITE,4
	0x43042434		dummy_file
	0x43042434		$d
	0x43042434		__stdin_used
	0x43042434		__stdout_used
	0x43042434		__stderr_used
.data.ofl_head	0x43042438	0x4	D:\4.0.3\armv7m-none-eabi\libc\lib/libc.a(ofl.o)	#SHT_PROGBITS,SHF_ALLOC|SHF_WRITE,4
	0x43042438		ofl_head
	0x43042438		$d
	Image$$ER_RW$$Limit(0x4304243c) = .( 0x4304243c );
Image$$ER_RW$$Length(0xa1c) = Image$$ER_RW$$Limit( 0x4304243c ) - Image$$ER_RW$$Base( 0x43041a20 );

ER_ZI	0x43042440	0x686b0 # Offset: 0x4249c, LMA: 0x43042440
	Image$$ER_ZI$$Base(0x43042440) = .( 0x43042440 );
*(.bss* .bss.* .common COMMON )
	0x43042440	0x16	D:\GC_connection\GC_connection\objs\gizwits_product.o	#SHT_NOBITS,SHF_ALLOC|SHF_WRITE,16
	0x43042440		currentDataPoint
	0x43042456	0x20000	D:\GC_connection\GC_connection\objs\gizwits_protocol.o	#SHT_NOBITS,SHF_ALLOC|SHF_WRITE,16
	0x43042456		free_memory_task
	0x43062456	0x4000	D:\GC_connection\GC_connection\objs\gizwits_protocol.o	#SHT_NOBITS,SHF_ALLOC|SHF_WRITE,16
	0x43062456		gizTaskStack
	0x43066456	0x3de	D:\GC_connection\GC_connection\objs\gizwits_protocol.o	#SHT_NOBITS,SHF_ALLOC|SHF_WRITE,16
	0x43066456		gizwitsProtocol
	0x43066834	0x4	D:\GC_connection\GC_connection\objs\gizwits_protocol.o	#SHT_NOBITS,SHF_ALLOC|SHF_WRITE,16
	0x43066834		byte_pool_task
	0x43066838	0x4	D:\GC_connection\GC_connection\objs\gizwits_protocol.o	#SHT_NOBITS,SHF_ALLOC|SHF_WRITE,16
	0x43066838		gizTaskHandle
	0x4306683c	0x10	D:\GC_connection\GC_connection\objs\gizwits_protocol.o	#SHT_NOBITS,SHF_ALLOC|SHF_WRITE,16
	0x4306683c		timer_def_attr
	0x4306684c	0x4	D:\GC_connection\GC_connection\objs\gizwits_protocol.o	#SHT_NOBITS,SHF_ALLOC|SHF_WRITE,16
	0x4306684c		timer_handle
	0x43066850	0x18	D:\GC_connection\GC_connection\objs\gizwits_protocol.o	#SHT_NOBITS,SHF_ALLOC|SHF_WRITE,16
	0x43066850		timer_set_attr
	0x43066868	0x1	D:\GC_connection\GC_connection\objs\main.o	#SHT_NOBITS,SHF_ALLOC|SHF_WRITE,16
	0x43066868		led_pin_num_pressure
PADDING_ALIGNMENT	0x43066869	0x1	0x0
	0x4306686a	0x1c	D:\GC_connection\GC_connection\objs\main.o	#SHT_NOBITS,SHF_ALLOC|SHF_WRITE,16
	0x4306686a		gpio_id_tbl
PADDING_ALIGNMENT	0x43066886	0x2	0x0
	0x43066888	0x118	D:\GC_connection\GC_connection\objs\main.o	#SHT_NOBITS,SHF_ALLOC|SHF_WRITE,16
	0x43066888		tlmm_config
	0x430669a0	0x4	D:\GC_connection\GC_connection\objs\main.o	#SHT_NOBITS,SHF_ALLOC|SHF_WRITE,16
	0x430669a0		userTimer
	0x430669a4	0x40000	D:\GC_connection\GC_connection\gagent\libgagent.a(gagentThread.o)	#SHT_NOBITS,SHF_ALLOC|SHF_WRITE,16
	0x430669a4		free_memory_gagent
	0x430a69a4	0x4	D:\GC_connection\GC_connection\gagent\libgagent.a(gagentThread.o)	#SHT_NOBITS,SHF_ALLOC|SHF_WRITE,16
	0x430a69a4		byte_pool_gagent
	0x430a69a8	0x4	D:\GC_connection\GC_connection\gagent\libgagent.a(gagentThread.o)	#SHT_NOBITS,SHF_ALLOC|SHF_WRITE,16
	0x430a69a8		gatThread_Handle
	0x430a69ac	0x4	D:\GC_connection\GC_connection\gagent\libgagent.a(gagentThread.o)	#SHT_NOBITS,SHF_ALLOC|SHF_WRITE,16
	0x430a69ac		gatapp_stack
	0x430a69b0	0x100	D:\GC_connection\GC_connection\gagent\libgagent.a(gatnet.o)	#SHT_NOBITS,SHF_ALLOC|SHF_WRITE,16
	0x430a69b0		netConPara
	0x430a6ab0	0x14	D:\GC_connection\GC_connection\gagent\libgagent.a(httpgat.o)	#SHT_NOBITS,SHF_ALLOC|SHF_WRITE,16
	0x430a6ab0		httpRecCore
	0x430a6ac4	0x14	D:\GC_connection\GC_connection\gagent\libgagent.a(httpgat.o)	#SHT_NOBITS,SHF_ALLOC|SHF_WRITE,16
	0x430a6ac4		httpSendCore
	0x430a6ad8	0x4	D:\GC_connection\GC_connection\gagent\libgagent.a(iofipc.o)	#SHT_NOBITS,SHF_ALLOC|SHF_WRITE,16
	0x430a6ad8		gatQueue
	0x430a6adc	0x4	D:\GC_connection\GC_connection\gagent\libgagent.a(iofnet.o)	#SHT_NOBITS,SHF_ALLOC|SHF_WRITE,16
	0x430a6adc		tcp_signal_handle
	0x430a6ae0	0x4	D:\GC_connection\GC_connection\gagent\libgagent.a(iofpthread.o)	#SHT_NOBITS,SHF_ALLOC|SHF_WRITE,16
	0x430a6ae0		gatDnsTid
	0x430a6ae4	0x4	D:\GC_connection\GC_connection\gagent\libgagent.a(iofpthread.o)	#SHT_NOBITS,SHF_ALLOC|SHF_WRITE,16
	0x430a6ae4		gatNetTid
	0x430a6ae8	0x4	D:\GC_connection\GC_connection\gagent\libgagent.a(iofpthread.o)	#SHT_NOBITS,SHF_ALLOC|SHF_WRITE,16
	0x430a6ae8		gatSerialRecTid
	0x430a6aec	0x4	D:\GC_connection\GC_connection\gagent\libgagent.a(iofpthread.o)	#SHT_NOBITS,SHF_ALLOC|SHF_WRITE,16
	0x430a6aec		gatSerialSendTid
	0x430a6af0	0x4	D:\GC_connection\GC_connection\gagent\libgagent.a(iofpthread.o)	#SHT_NOBITS,SHF_ALLOC|SHF_WRITE,16
	0x430a6af0		gatTaskProcessTid
	0x430a6af4	0x4	D:\GC_connection\GC_connection\gagent\libgagent.a(iofpthread.o)	#SHT_NOBITS,SHF_ALLOC|SHF_WRITE,16
	0x430a6af4		gatTcpDataRecTid
	0x430a6af8	0x4	D:\GC_connection\GC_connection\gagent\libgagent.a(iofpthread.o)	#SHT_NOBITS,SHF_ALLOC|SHF_WRITE,16
	0x430a6af8		gatTcpDataSendTid
	0x430a6afc	0x4	D:\GC_connection\GC_connection\gagent\libgagent.a(iofpthread.o)	#SHT_NOBITS,SHF_ALLOC|SHF_WRITE,16
	0x430a6afc		gatTcpServerTid
	0x430a6b00	0x4	D:\GC_connection\GC_connection\gagent\libgagent.a(iofpthread.o)	#SHT_NOBITS,SHF_ALLOC|SHF_WRITE,16
	0x430a6b00		gatUdpRecTid
	0x430a6b04	0x4	D:\GC_connection\GC_connection\gagent\libgagent.a(iofpthread.o)	#SHT_NOBITS,SHF_ALLOC|SHF_WRITE,16
	0x430a6b04		gatUdpSendTid
	0x430a6b08	0x4	D:\GC_connection\GC_connection\gagent\libgagent.a(iofserial.o)	#SHT_NOBITS,SHF_ALLOC|SHF_WRITE,16
	0x430a6b08		fdList
	0x430a6b0c	0x1c	D:\GC_connection\GC_connection\gagent\libgagent.a(qlog.o)	#SHT_NOBITS,SHF_ALLOC|SHF_WRITE,16
	0x430a6b0c		uart_conf
	0x430a6b28	0x54	D:\GC_connection\GC_connection\gagent\libgagent.a(tcp.o)	#SHT_NOBITS,SHF_ALLOC|SHF_WRITE,16
	0x430a6b28		tcpChListNr
	0x430a6b7c	0x14	D:\GC_connection\GC_connection\gagent\libgagent.a(tcp.o)	#SHT_NOBITS,SHF_ALLOC|SHF_WRITE,16
	0x430a6b7c		tcpDataNodeNr
	0x430a6b90	0x1c	D:\GC_connection\GC_connection\gagent\libgagent.a(tcp.o)	#SHT_NOBITS,SHF_ALLOC|SHF_WRITE,16
	0x430a6b90		tcpSendNr
	0x430a6bac	0x14	D:\GC_connection\GC_connection\gagent\libgagent.a(timer_subsystem.o)	#SHT_NOBITS,SHF_ALLOC|SHF_WRITE,16
	0x430a6bac		gatTimerCore
	0x430a6bc0	0x1000	sdk\libs\timer_dam_lib.lib(qapi_timer_user.o)	#SHT_NOBITS,SHF_ALLOC|SHF_WRITE,16
	0x430a6bc0		timer_client_stack
	0x430a7bc0	0x4	sdk\libs\timer_dam_lib.lib(qapi_timer_user.o)	#SHT_NOBITS,SHF_ALLOC|SHF_WRITE,16
	0x430a7bc0		timer_client_module_thread
	0x430a7bc4	0x4	sdk\libs\timer_dam_lib.lib(qapi_timer_user.o)	#SHT_NOBITS,SHF_ALLOC|SHF_WRITE,16
	0x430a7bc4		timer_thread_state
	0x430a7bc8	0x4	sdk\libs\timer_dam_lib.lib(qapi_timer_user.o)	#SHT_NOBITS,SHF_ALLOC|SHF_WRITE,16
	0x430a7bc8		timer_user_handle
	0x430a7bcc	0x4	sdk\libs\txm_lib.lib(txm_module_thread_shell_entry.o)	#SHT_NOBITS,SHF_ALLOC|SHF_WRITE,16
	0x430a7bcc		_txm_module_entry_info
	0x430a7bd0	0x4	sdk\libs\txm_lib.lib(txm_module_thread_shell_entry.o)	#SHT_NOBITS,SHF_ALLOC|SHF_WRITE,16
	0x430a7bd0		_txm_module_instance_ptr
	0x430a7bd4	0x4	sdk\libs\txm_lib.lib(txm_module_thread_shell_entry.o)	#SHT_NOBITS,SHF_ALLOC|SHF_WRITE,16
	0x430a7bd4		_txm_module_kernel_call_dispatcher
	0x430a7bd8	0x40	D:\4.0.3\armv7m-none-eabi\libc\lib/libc.a(libc.o)	#SHT_NOBITS,SHF_ALLOC|SHF_WRITE,16
	0x430a7bd8		__libc
.bss	0x430a7c18	0x14	D:\GC_connection\GC_connection\objs\gizwits_protocol.o	#SHT_NOBITS,SHF_ALLOC|SHF_WRITE,4
	0x430a7c18		gizTimerFunc.repCtime
	0x430a7c1c		gizCheckReport.lastReportTime
	0x430a7c20		gizWiFiStatus.lastStatus.0
	0x430a7c24		gizQueue
	0x430a7c28		task_comm
.bss	0x430a7c2c	0x2	D:\GC_connection\GC_connection\objs\main.o	#SHT_NOBITS,SHF_ALLOC|SHF_WRITE,4
	0x430a7c2c		userTimerCB.ctime
	0x430a7c2d		userTimerCB.ccount
PADDING_ALIGNMENT	0x430a7c2e	0x2	0x0
.bss	0x430a7c30	0x4	D:\GC_connection\GC_connection\gagent\libgagent.a(gagentThread.o)	#SHT_NOBITS,SHF_ALLOC|SHF_WRITE,4
	0x430a7c30		tcpSendSem
.bss	0x430a7c34	0x204	D:\GC_connection\GC_connection\gagent\libgagent.a(iofdev.o)	#SHT_NOBITS,SHF_ALLOC|SHF_WRITE,4
	0x430a7c34		iofPrintf.str_tmp
	0x430a7e34		logLock
.bss	0x430a7e38	0x4	D:\GC_connection\GC_connection\gagent\libgagent.a(iofpthread.o)	#SHT_NOBITS,SHF_ALLOC|SHF_WRITE,4
	0x430a7e38		iofPthreadCreate.entry_input
.bss	0x430a7e3c	0x4	D:\GC_connection\GC_connection\gagent\libgagent.a(iofstring.o)	#SHT_NOBITS,SHF_ALLOC|SHF_WRITE,4
	0x430a7e3c		objMemAllocated
.bss	0x430a7e40	0x83	D:\GC_connection\GC_connection\gagent\libgagent.a(local.o)	#SHT_NOBITS,SHF_ALLOC|SHF_WRITE,16
	0x430a7e40		LocalStatusSync
	0x430a7e50		GAgentInfoGet.szPassCode
	0x430a7e5b		GAgentInfoGet.szTzs
	0x430a7e6f		GAgentInfoGet.szDid
	0x430a7e86		GAgentInfoGet.szGServerDomain
PADDING_ALIGNMENT	0x430a7ec3	0xd	0x0
.bss	0x430a7ed0	0xa2	D:\GC_connection\GC_connection\gagent\libgagent.a(localcomm.o)	#SHT_NOBITS,SHF_ALLOC|SHF_WRITE,16
	0x430a7ed0		localWriteAdapter
	0x430a7ed4		gatLocalSignalCheckTick.signal_last
	0x430a7ed8		SignalTick
	0x430a7ee8		bindTimer
	0x430a7f00		mcuInfo
PADDING_ALIGNMENT	0x430a7f72	0xe	0x0
.bss	0x430a7f80	0x64	D:\GC_connection\GC_connection\gagent\libgagent.a(localio.o)	#SHT_NOBITS,SHF_ALLOC|SHF_WRITE,16
	0x430a7f80		localInfo
	0x430a7f88		localRecvList
	0x430a7f9c		localSendList
	0x430a7fb0		localChannelOpenList
PADDING_ALIGNMENT	0x430a7fe4	0xc	0x0
.bss	0x430a7ff0	0x54	D:\GC_connection\GC_connection\gagent\libgagent.a(nwk_manage.o)	#SHT_NOBITS,SHF_ALLOC|SHF_WRITE,16
	0x430a7ff0		halNwkStatus
	0x430a7ff4		nwkEventCb
PADDING_ALIGNMENT	0x430a8044	0xc	0x0
.bss	0x430a8050	0x27e	D:\GC_connection\GC_connection\gagent\libgagent.a(productinfo.o)	#SHT_NOBITS,SHF_ALLOC|SHF_WRITE,16
	0x430a8050		gatProductInfo
	0x430a8190		gatProDefaultInfo
	0x430a826c		configDataLock
	0x430a8270		gatFlag
	0x430a8275		gatRebootReason
	0x430a827a		szTzSec
	0x430a828e		gatApn
.bss	0x430a82ce	0x2000	D:\GC_connection\GC_connection\gagent\libgagent.a(qlog.o)	#SHT_NOBITS,SHF_ALLOC|SHF_WRITE,1
	0x430a82ce		tx_buff
	0x430a92ce		rx_buff
PADDING_ALIGNMENT	0x430aa2ce	0x2	0x0
.bss	0x430aa2d0	0x39	D:\GC_connection\GC_connection\gagent\libgagent.a(simulatorcomm.o)	#SHT_NOBITS,SHF_ALLOC|SHF_WRITE,4
	0x430aa2d0		devUploadData
	0x430aa308		simulatorUploadDtatCb.uploadResult
PADDING_ALIGNMENT	0x430aa309	0x3	0x0
.bss	0x430aa30c	0x8	D:\GC_connection\GC_connection\gagent\libgagent.a(tcp.o)	#SHT_NOBITS,SHF_ALLOC|SHF_WRITE,4
	0x430aa30c		tcpSemId
	0x430aa310		gatTcpReceiveHandle.recBuf
.bss	0x430aa314	0x8	D:\GC_connection\GC_connection\gagent\libgagent.a(aes.o)	#SHT_NOBITS,SHF_ALLOC|SHF_WRITE,4
	0x430aa314		inv_s_box
	0x430aa318		s_box
.bss	0x430aa31c	0x14	D:\GC_connection\GC_connection\gagent\libgagent.a(authorization.o)	#SHT_NOBITS,SHF_ALLOC|SHF_WRITE,4
	0x430aa31c		authFunCb
	0x430aa320		authTimer
.bss	0x430aa330	0x84	D:\GC_connection\GC_connection\gagent\libgagent.a(gagent.o)	#SHT_NOBITS,SHF_ALLOC|SHF_WRITE,16
	0x430aa330		gatGetSoftVer.szGatSoftVer
	0x430aa33c		gatMsgIdValue
	0x430aa340		gatRunTimeData
	0x430aa3a0		gatReBootTimerStart.flag
	0x430aa3a4		rebootTimer
PADDING_ALIGNMENT	0x430aa3b4	0x4	0x0
.bss	0x430aa3b8	0x108	D:\GC_connection\GC_connection\gagent\libgagent.a(gatm2m.o)	#SHT_NOBITS,SHF_ALLOC|SHF_WRITE,8
	0x430aa3b8		m2mInfo
.bss	0x430aa4c0	0x28	D:\GC_connection\GC_connection\gagent\libgagent.a(gatnet.o)	#SHT_NOBITS,SHF_ALLOC|SHF_WRITE,4
	0x430aa4c0		gatRouterConnTimeout.failCount
	0x430aa4c4		testModeTimer
	0x430aa4d4		gatTestModeTick.cnt
	0x430aa4d8		routerTimer
.bss	0x430aa4e8	0xe8	D:\GC_connection\GC_connection\gagent\libgagent.a(gdns.o)	#SHT_NOBITS,SHF_ALLOC|SHF_WRITE,4
	0x430aa4e8		dnsReq
	0x430aa5c0		dnsReqTimer
.bss	0x430aa5d0	0x34	D:\GC_connection\GC_connection\gagent\libgagent.a(gserver.o)	#SHT_NOBITS,SHF_ALLOC|SHF_WRITE,16
	0x430aa5d0		gatRegsiterTimer.cnt
	0x430aa5d4		gserverExcepTimeoutTimer
	0x430aa5f0		gatProvisionRecCb.failCont
	0x430aa5f4		gserverReConnectTimer
.bss	0x430aa604	0x62	D:\GC_connection\GC_connection\gagent\libgagent.a(iofnet.o)	#SHT_NOBITS,SHF_ALLOC|SHF_WRITE,4
	0x430aa604		gatNetLocalIp.ipaddr
	0x430aa636		gatNetMACGet.szIMEI
	0x430aa648		gS_APList
	0x430aa650		dnsData
	0x430aa664		gatNetReadyFlag
	0x430aa665		gatNetActiveFlag
PADDING_ALIGNMENT	0x430aa666	0x2	0x0
.bss	0x430aa668	0x54	D:\GC_connection\GC_connection\gagent\libgagent.a(iofserial.o)	#SHT_NOBITS,SHF_ALLOC|SHF_WRITE,4
	0x430aa668		Serial_rfds
	0x430aa6ac		hdlr
	0x430aa6b0		localRecvSem
	0x430aa6b4		gatserialRecVal
PADDING_ALIGNMENT	0x430aa6bc	0x4	0x0
.bss	0x430aa6c0	0x34	D:\GC_connection\GC_connection\gagent\libgagent.a(mqttgat.o)	#SHT_NOBITS,SHF_ALLOC|SHF_WRITE,16
	0x430aa6c0		mqttExtractPacket.headPos
	0x430aa6c1		mqttExtractPacket.tempBuf
	0x430aa6c8		mqttRecNodeList
PADDING_ALIGNMENT	0x430aa6f4	0xc	0x0
.bss	0x430aa700	0x21c	D:\GC_connection\GC_connection\gagent\libgagent.a(otawan.o)	#SHT_NOBITS,SHF_ALLOC|SHF_WRITE,16
	0x430aa700		gatWanOta
	0x430aa89c		DownloadStatus
	0x430aa8a0		gatDownLoadFirmwareCb.downloadCnt
	0x430aa8a4		gatDownLoadFirmwareCb.MD5
	0x430aa8b4		gatReDownloadTick
	0x430aa8c4		gatDownLoadFirmwareCb.ctx
PADDING_ALIGNMENT	0x430aa91c	0x4	0x0
.bss	0x430aa920	0x1cc	D:\GC_connection\GC_connection\gagent\libgagent.a(simulator.o)	#SHT_NOBITS,SHF_ALLOC|SHF_WRITE,16
	0x430aa920		devDisConData
	0x430aa950		devsConData
	0x430aa998		devConnData
	0x430aa9f8		devResetData
	0x430aaab0		gatRegsiterSubRecCb.recvLen
	0x430aaab4		gatRegsiterSubRecCb.recvBuf
	0x430aaab8		devsRegData
.bss.qapi_timer_user_initialized	0x430aaaec	0x4	sdk\libs\timer_dam_lib.lib(qapi_timer_user.o)	#SHT_NOBITS,SHF_ALLOC|SHF_WRITE,4
	0x430aaaec		qapi_timer_user_initialized
	Image$$ER_ZI$$Limit(0x430aaaf0) = .( 0x430aaaf0 );
Image$$ER_ZI$$ZI$$Length(0x686b0) = Image$$ER_ZI$$Limit( 0x430aaaf0 ) - Image$$ER_ZI$$Base( 0x43042440 );

.debug	0x0	0x0 # Offset: 0x0

.line	0x0	0x0 # Offset: 0x0

.debug_srcinfo	0x0	0x0 # Offset: 0x0

.debug_sfnames	0x0	0x0 # Offset: 0x0

.debug_aranges	0x0	0x0 # Offset: 0x0

.debug_pubnames	0x4249c	0x3b7 # Offset: 0x4249c
*(.debug_pubnames )
.debug_pubnames	0x4249c	0x18a	sdk\libs\timer_dam_lib.lib(qapi_timer_user.o)	#SHT_PROGBITS,,1
.debug_pubnames	0x42626	0xa2	sdk\libs\txm_lib.lib(txm_module_thread_shell_entry.o)	#SHT_PROGBITS,,1
.debug_pubnames	0x426c8	0x40	sdk\libs\txm_lib.lib(txm_module_callback_request_thread_entry.o)	#SHT_PROGBITS,,1
.debug_pubnames	0x42708	0x30	sdk\libs\txm_lib.lib(txm_module_system_call11.o)	#SHT_PROGBITS,,1
.debug_pubnames	0x42738	0x30	sdk\libs\txm_lib.lib(txm_module_system_call12.o)	#SHT_PROGBITS,,1
.debug_pubnames	0x42768	0x2f	sdk\libs\txm_lib.lib(txm_module_system_call4.o)	#SHT_PROGBITS,,1
.debug_pubnames	0x42797	0x2f	sdk\libs\txm_lib.lib(txm_module_system_call5.o)	#SHT_PROGBITS,,1
.debug_pubnames	0x427c6	0x2f	sdk\libs\txm_lib.lib(txm_module_system_call6.o)	#SHT_PROGBITS,,1
.debug_pubnames	0x427f5	0x2f	sdk\libs\txm_lib.lib(txm_module_system_call7.o)	#SHT_PROGBITS,,1
.debug_pubnames	0x42824	0x2f	sdk\libs\txm_lib.lib(txm_module_system_call8.o)	#SHT_PROGBITS,,1

.debug_info	0x42853	0x2f01 # Offset: 0x42853
*(.debug_info .gnu.linkonce.wi.* )
.debug_info	0x42853	0xb01	sdk\libs\timer_dam_lib.lib(qapi_timer_user.o)	#SHT_PROGBITS,,1
.debug_info	0x43354	0xcd5	sdk\libs\txm_lib.lib(txm_module_thread_shell_entry.o)	#SHT_PROGBITS,,1
.debug_info	0x44029	0x1019	sdk\libs\txm_lib.lib(txm_module_callback_request_thread_entry.o)	#SHT_PROGBITS,,1
.debug_info	0x45042	0x136	sdk\libs\txm_lib.lib(txm_module_system_call11.o)	#SHT_PROGBITS,,1
.debug_info	0x45178	0x145	sdk\libs\txm_lib.lib(txm_module_system_call12.o)	#SHT_PROGBITS,,1
.debug_info	0x452bd	0xcd	sdk\libs\txm_lib.lib(txm_module_system_call4.o)	#SHT_PROGBITS,,1
.debug_info	0x4538a	0xdc	sdk\libs\txm_lib.lib(txm_module_system_call5.o)	#SHT_PROGBITS,,1
.debug_info	0x45466	0xeb	sdk\libs\txm_lib.lib(txm_module_system_call6.o)	#SHT_PROGBITS,,1
.debug_info	0x45551	0xfa	sdk\libs\txm_lib.lib(txm_module_system_call7.o)	#SHT_PROGBITS,,1
.debug_info	0x4564b	0x109	sdk\libs\txm_lib.lib(txm_module_system_call8.o)	#SHT_PROGBITS,,1

.debug_abbrev	0x45754	0x742 # Offset: 0x45754
*(.debug_abbrev )
.debug_abbrev	0x45754	0x19a	sdk\libs\timer_dam_lib.lib(qapi_timer_user.o)	#SHT_PROGBITS,,1
.debug_abbrev	0x458ee	0xe2	sdk\libs\txm_lib.lib(txm_module_thread_shell_entry.o)	#SHT_PROGBITS,,1
.debug_abbrev	0x459d0	0xeb	sdk\libs\txm_lib.lib(txm_module_callback_request_thread_entry.o)	#SHT_PROGBITS,,1
.debug_abbrev	0x45abb	0x8d	sdk\libs\txm_lib.lib(txm_module_system_call11.o)	#SHT_PROGBITS,,1
.debug_abbrev	0x45b48	0x8d	sdk\libs\txm_lib.lib(txm_module_system_call12.o)	#SHT_PROGBITS,,1
.debug_abbrev	0x45bd5	0x8d	sdk\libs\txm_lib.lib(txm_module_system_call4.o)	#SHT_PROGBITS,,1
.debug_abbrev	0x45c62	0x8d	sdk\libs\txm_lib.lib(txm_module_system_call5.o)	#SHT_PROGBITS,,1
.debug_abbrev	0x45cef	0x8d	sdk\libs\txm_lib.lib(txm_module_system_call6.o)	#SHT_PROGBITS,,1
.debug_abbrev	0x45d7c	0x8d	sdk\libs\txm_lib.lib(txm_module_system_call7.o)	#SHT_PROGBITS,,1
.debug_abbrev	0x45e09	0x8d	sdk\libs\txm_lib.lib(txm_module_system_call8.o)	#SHT_PROGBITS,,1

.debug_line	0x45e96	0x1321 # Offset: 0x45e96
*(.debug_line )
.debug_line	0x45e96	0x4d4	sdk\libs\timer_dam_lib.lib(qapi_timer_user.o)	#SHT_PROGBITS,,1
.debug_line	0x4636a	0x1c2	sdk\libs\txm_lib.lib(txm_module_thread_shell_entry.o)	#SHT_PROGBITS,,1
.debug_line	0x4652c	0x27c	sdk\libs\txm_lib.lib(txm_module_callback_request_thread_entry.o)	#SHT_PROGBITS,,1
.debug_line	0x467a8	0x174	sdk\libs\txm_lib.lib(txm_module_system_call11.o)	#SHT_PROGBITS,,1
.debug_line	0x4691c	0x175	sdk\libs\txm_lib.lib(txm_module_system_call12.o)	#SHT_PROGBITS,,1
.debug_line	0x46a91	0x16c	sdk\libs\txm_lib.lib(txm_module_system_call4.o)	#SHT_PROGBITS,,1
.debug_line	0x46bfd	0x16d	sdk\libs\txm_lib.lib(txm_module_system_call5.o)	#SHT_PROGBITS,,1
.debug_line	0x46d6a	0x16e	sdk\libs\txm_lib.lib(txm_module_system_call6.o)	#SHT_PROGBITS,,1
.debug_line	0x46ed8	0x16f	sdk\libs\txm_lib.lib(txm_module_system_call7.o)	#SHT_PROGBITS,,1
.debug_line	0x47047	0x170	sdk\libs\txm_lib.lib(txm_module_system_call8.o)	#SHT_PROGBITS,,1

.debug_frame	0x471b7	0x2bc # Offset: 0x471b7
*(.debug_frame )
.debug_frame	0x471b7	0x134	sdk\libs\timer_dam_lib.lib(qapi_timer_user.o)	#SHT_PROGBITS,,4
.debug_frame	0x472eb	0x2c	sdk\libs\txm_lib.lib(txm_module_thread_shell_entry.o)	#SHT_PROGBITS,,4
.debug_frame	0x47317	0x3c	sdk\libs\txm_lib.lib(txm_module_callback_request_thread_entry.o)	#SHT_PROGBITS,,4
.debug_frame	0x47353	0x2c	sdk\libs\txm_lib.lib(txm_module_system_call11.o)	#SHT_PROGBITS,,4
.debug_frame	0x4737f	0x2c	sdk\libs\txm_lib.lib(txm_module_system_call12.o)	#SHT_PROGBITS,,4
.debug_frame	0x473ab	0x28	sdk\libs\txm_lib.lib(txm_module_system_call4.o)	#SHT_PROGBITS,,4
.debug_frame	0x473d3	0x28	sdk\libs\txm_lib.lib(txm_module_system_call5.o)	#SHT_PROGBITS,,4
.debug_frame	0x473fb	0x28	sdk\libs\txm_lib.lib(txm_module_system_call6.o)	#SHT_PROGBITS,,4
.debug_frame	0x47423	0x28	sdk\libs\txm_lib.lib(txm_module_system_call7.o)	#SHT_PROGBITS,,4
.debug_frame	0x4744b	0x28	sdk\libs\txm_lib.lib(txm_module_system_call8.o)	#SHT_PROGBITS,,4

.debug_str	0x47473	0x2de1 # Offset: 0x47473
*(.debug_str )
.debug_str	0x47473	0x3c	sdk\libs\timer_dam_lib.lib(qapi_timer_user.o)	#SHT_PROGBITS,SHF_MERGE|SHF_STRINGS,1
	0x0		
.debug_str	0x474af	0x8b	sdk\libs\timer_dam_lib.lib(qapi_timer_user.o)	#SHT_PROGBITS,SHF_MERGE|SHF_STRINGS,1
	0x3c		
.debug_str	0x4753a	0x66	sdk\libs\timer_dam_lib.lib(qapi_timer_user.o)	#SHT_PROGBITS,SHF_MERGE|SHF_STRINGS,1
	0xc7		
.debug_str	0x475a0	0x1c	sdk\libs\timer_dam_lib.lib(qapi_timer_user.o)	#SHT_PROGBITS,SHF_MERGE|SHF_STRINGS,1
	0x12d		
.debug_str	0x475bc	0xd	sdk\libs\timer_dam_lib.lib(qapi_timer_user.o)	#SHT_PROGBITS,SHF_MERGE|SHF_STRINGS,1
	0x149		
.debug_str	0x475c9	0x9	sdk\libs\timer_dam_lib.lib(qapi_timer_user.o)	#SHT_PROGBITS,SHF_MERGE|SHF_STRINGS,1
	0x156		
.debug_str	0x475d2	0xe	sdk\libs\timer_dam_lib.lib(qapi_timer_user.o)	#SHT_PROGBITS,SHF_MERGE|SHF_STRINGS,1
	0x15f		
.debug_str	0x475e0	0x13	sdk\libs\timer_dam_lib.lib(qapi_timer_user.o)	#SHT_PROGBITS,SHF_MERGE|SHF_STRINGS,1
	0x16d		
.debug_str	0x475f3	0x13	sdk\libs\timer_dam_lib.lib(qapi_timer_user.o)	#SHT_PROGBITS,SHF_MERGE|SHF_STRINGS,1
	0x180		
.debug_str	0x47606	0x14	sdk\libs\timer_dam_lib.lib(qapi_timer_user.o)	#SHT_PROGBITS,SHF_MERGE|SHF_STRINGS,1
	0x193		
.debug_str	0x4761a	0x15	sdk\libs\timer_dam_lib.lib(qapi_timer_user.o)	#SHT_PROGBITS,SHF_MERGE|SHF_STRINGS,1
	0x1a7		
.debug_str	0x4762f	0x18	sdk\libs\timer_dam_lib.lib(qapi_timer_user.o)	#SHT_PROGBITS,SHF_MERGE|SHF_STRINGS,1
	0x1bc		
.debug_str	0x47647	0x15	sdk\libs\timer_dam_lib.lib(qapi_timer_user.o)	#SHT_PROGBITS,SHF_MERGE|SHF_STRINGS,1
	0x1d4		
.debug_str	0x4765c	0x12	sdk\libs\timer_dam_lib.lib(qapi_timer_user.o)	#SHT_PROGBITS,SHF_MERGE|SHF_STRINGS,1
	0x1e9		
.debug_str	0x4766e	0x1a	sdk\libs\timer_dam_lib.lib(qapi_timer_user.o)	#SHT_PROGBITS,SHF_MERGE|SHF_STRINGS,1
	0x1fb		
.debug_str	0x47688	0x1f	sdk\libs\timer_dam_lib.lib(qapi_timer_user.o)	#SHT_PROGBITS,SHF_MERGE|SHF_STRINGS,1
	0x215		
.debug_str	0x476a7	0x1b	sdk\libs\timer_dam_lib.lib(qapi_timer_user.o)	#SHT_PROGBITS,SHF_MERGE|SHF_STRINGS,1
	0x234		
.debug_str	0x476c2	0xd	sdk\libs\timer_dam_lib.lib(qapi_timer_user.o)	#SHT_PROGBITS,SHF_MERGE|SHF_STRINGS,1
	0x24f		
.debug_str	0x476cf	0x12	sdk\libs\timer_dam_lib.lib(qapi_timer_user.o)	#SHT_PROGBITS,SHF_MERGE|SHF_STRINGS,1
	0x25c		
.debug_str	0x476e1	0x6	sdk\libs\timer_dam_lib.lib(qapi_timer_user.o)	#SHT_PROGBITS,SHF_MERGE|SHF_STRINGS,1
	0x26e		
.debug_str	0x476e7	0x14	sdk\libs\timer_dam_lib.lib(qapi_timer_user.o)	#SHT_PROGBITS,SHF_MERGE|SHF_STRINGS,1
	0x274		
.debug_str	0x476fb	0x14	sdk\libs\timer_dam_lib.lib(qapi_timer_user.o)	#SHT_PROGBITS,SHF_MERGE|SHF_STRINGS,1
	0x288		
.debug_str	0x4770f	0x16	sdk\libs\timer_dam_lib.lib(qapi_timer_user.o)	#SHT_PROGBITS,SHF_MERGE|SHF_STRINGS,1
	0x29c		
.debug_str	0x47725	0x14	sdk\libs\timer_dam_lib.lib(qapi_timer_user.o)	#SHT_PROGBITS,SHF_MERGE|SHF_STRINGS,1
	0x2b2		
.debug_str	0x47739	0x15	sdk\libs\timer_dam_lib.lib(qapi_timer_user.o)	#SHT_PROGBITS,SHF_MERGE|SHF_STRINGS,1
	0x2c6		
.debug_str	0x4774e	0x15	sdk\libs\timer_dam_lib.lib(qapi_timer_user.o)	#SHT_PROGBITS,SHF_MERGE|SHF_STRINGS,1
	0x2db		
.debug_str	0x47763	0x19	sdk\libs\timer_dam_lib.lib(qapi_timer_user.o)	#SHT_PROGBITS,SHF_MERGE|SHF_STRINGS,1
	0x2f0		
.debug_str	0x4777c	0x15	sdk\libs\timer_dam_lib.lib(qapi_timer_user.o)	#SHT_PROGBITS,SHF_MERGE|SHF_STRINGS,1
	0x309		
.debug_str	0x47791	0x19	sdk\libs\timer_dam_lib.lib(qapi_timer_user.o)	#SHT_PROGBITS,SHF_MERGE|SHF_STRINGS,1
	0x31e		
.debug_str	0x477aa	0xf	sdk\libs\timer_dam_lib.lib(qapi_timer_user.o)	#SHT_PROGBITS,SHF_MERGE|SHF_STRINGS,1
	0x337		
.debug_str	0x477b9	0x5	sdk\libs\timer_dam_lib.lib(qapi_timer_user.o)	#SHT_PROGBITS,SHF_MERGE|SHF_STRINGS,1
	0x346		
.debug_str	0x477be	0x5	sdk\libs\timer_dam_lib.lib(qapi_timer_user.o)	#SHT_PROGBITS,SHF_MERGE|SHF_STRINGS,1
	0x34b		
.debug_str	0x477c3	0x13	sdk\libs\timer_dam_lib.lib(qapi_timer_user.o)	#SHT_PROGBITS,SHF_MERGE|SHF_STRINGS,1
	0x350		
.debug_str	0x477d6	0x5	sdk\libs\timer_dam_lib.lib(qapi_timer_user.o)	#SHT_PROGBITS,SHF_MERGE|SHF_STRINGS,1
	0x363		
.debug_str	0x477db	0x10	sdk\libs\timer_dam_lib.lib(qapi_timer_user.o)	#SHT_PROGBITS,SHF_MERGE|SHF_STRINGS,1
	0x368		
.debug_str	0x477eb	0x1a	sdk\libs\timer_dam_lib.lib(qapi_timer_user.o)	#SHT_PROGBITS,SHF_MERGE|SHF_STRINGS,1
	0x378		
.debug_str	0x47805	0x15	sdk\libs\timer_dam_lib.lib(qapi_timer_user.o)	#SHT_PROGBITS,SHF_MERGE|SHF_STRINGS,1
	0x392		
.debug_str	0x4781a	0x1c	sdk\libs\timer_dam_lib.lib(qapi_timer_user.o)	#SHT_PROGBITS,SHF_MERGE|SHF_STRINGS,1
	0x3a7		
.debug_str	0x47836	0x18	sdk\libs\timer_dam_lib.lib(qapi_timer_user.o)	#SHT_PROGBITS,SHF_MERGE|SHF_STRINGS,1
	0x3c3		
.debug_str	0x4784e	0x10	sdk\libs\timer_dam_lib.lib(qapi_timer_user.o)	#SHT_PROGBITS,SHF_MERGE|SHF_STRINGS,1
	0x3db		
.debug_str	0x4785e	0x1a	sdk\libs\timer_dam_lib.lib(qapi_timer_user.o)	#SHT_PROGBITS,SHF_MERGE|SHF_STRINGS,1
	0x3eb		
.debug_str	0x47878	0x10	sdk\libs\timer_dam_lib.lib(qapi_timer_user.o)	#SHT_PROGBITS,SHF_MERGE|SHF_STRINGS,1
	0x405		
.debug_str	0x47888	0x22	sdk\libs\timer_dam_lib.lib(qapi_timer_user.o)	#SHT_PROGBITS,SHF_MERGE|SHF_STRINGS,1
	0x415		
.debug_str	0x478aa	0x26	sdk\libs\timer_dam_lib.lib(qapi_timer_user.o)	#SHT_PROGBITS,SHF_MERGE|SHF_STRINGS,1
	0x437		
.debug_str	0x478d0	0x23	sdk\libs\timer_dam_lib.lib(qapi_timer_user.o)	#SHT_PROGBITS,SHF_MERGE|SHF_STRINGS,1
	0x45d		
.debug_str	0x478f3	0x20	sdk\libs\timer_dam_lib.lib(qapi_timer_user.o)	#SHT_PROGBITS,SHF_MERGE|SHF_STRINGS,1
	0x480		
.debug_str	0x47913	0x1e	sdk\libs\timer_dam_lib.lib(qapi_timer_user.o)	#SHT_PROGBITS,SHF_MERGE|SHF_STRINGS,1
	0x4a0		
.debug_str	0x47931	0x22	sdk\libs\timer_dam_lib.lib(qapi_timer_user.o)	#SHT_PROGBITS,SHF_MERGE|SHF_STRINGS,1
	0x4be		
.debug_str	0x47953	0x1c	sdk\libs\timer_dam_lib.lib(qapi_timer_user.o)	#SHT_PROGBITS,SHF_MERGE|SHF_STRINGS,1
	0x4e0		
.debug_str	0x4796f	0x19	sdk\libs\timer_dam_lib.lib(qapi_timer_user.o)	#SHT_PROGBITS,SHF_MERGE|SHF_STRINGS,1
	0x4fc		
.debug_str	0x47988	0x12	sdk\libs\timer_dam_lib.lib(qapi_timer_user.o)	#SHT_PROGBITS,SHF_MERGE|SHF_STRINGS,1
	0x515		
.debug_str	0x4799a	0x1a	sdk\libs\timer_dam_lib.lib(qapi_timer_user.o)	#SHT_PROGBITS,SHF_MERGE|SHF_STRINGS,1
	0x527		
.debug_str	0x479b4	0x20	sdk\libs\timer_dam_lib.lib(qapi_timer_user.o)	#SHT_PROGBITS,SHF_MERGE|SHF_STRINGS,1
	0x541		
.debug_str	0x479d4	0x19	sdk\libs\timer_dam_lib.lib(qapi_timer_user.o)	#SHT_PROGBITS,SHF_MERGE|SHF_STRINGS,1
	0x561		
.debug_str	0x479ed	0x1d	sdk\libs\timer_dam_lib.lib(qapi_timer_user.o)	#SHT_PROGBITS,SHF_MERGE|SHF_STRINGS,1
	0x57a		
.debug_str	0x47a0a	0x17	sdk\libs\timer_dam_lib.lib(qapi_timer_user.o)	#SHT_PROGBITS,SHF_MERGE|SHF_STRINGS,1
	0x597		
.debug_str	0x47a21	0x22	sdk\libs\timer_dam_lib.lib(qapi_timer_user.o)	#SHT_PROGBITS,SHF_MERGE|SHF_STRINGS,1
	0x5ae		
.debug_str	0x47a43	0x19	sdk\libs\timer_dam_lib.lib(qapi_timer_user.o)	#SHT_PROGBITS,SHF_MERGE|SHF_STRINGS,1
	0x5d0		
.debug_str	0x47a5c	0x19	sdk\libs\timer_dam_lib.lib(qapi_timer_user.o)	#SHT_PROGBITS,SHF_MERGE|SHF_STRINGS,1
	0x5e9		
.debug_str	0x47a75	0x17	sdk\libs\timer_dam_lib.lib(qapi_timer_user.o)	#SHT_PROGBITS,SHF_MERGE|SHF_STRINGS,1
	0x602		
.debug_str	0x47a8c	0x1b	sdk\libs\timer_dam_lib.lib(qapi_timer_user.o)	#SHT_PROGBITS,SHF_MERGE|SHF_STRINGS,1
	0x619		
.debug_str	0x47aa7	0x15	sdk\libs\timer_dam_lib.lib(qapi_timer_user.o)	#SHT_PROGBITS,SHF_MERGE|SHF_STRINGS,1
	0x634		
.debug_str	0x47abc	0x1e	sdk\libs\timer_dam_lib.lib(qapi_timer_user.o)	#SHT_PROGBITS,SHF_MERGE|SHF_STRINGS,1
	0x649		
.debug_str	0x47ada	0x20	sdk\libs\timer_dam_lib.lib(qapi_timer_user.o)	#SHT_PROGBITS,SHF_MERGE|SHF_STRINGS,1
	0x667		
.debug_str	0x47afa	0x23	sdk\libs\timer_dam_lib.lib(qapi_timer_user.o)	#SHT_PROGBITS,SHF_MERGE|SHF_STRINGS,1
	0x687		
.debug_str	0x47b1d	0x1b	sdk\libs\timer_dam_lib.lib(qapi_timer_user.o)	#SHT_PROGBITS,SHF_MERGE|SHF_STRINGS,1
	0x6aa		
.debug_str	0x47b38	0x1d	sdk\libs\timer_dam_lib.lib(qapi_timer_user.o)	#SHT_PROGBITS,SHF_MERGE|SHF_STRINGS,1
	0x6c5		
.debug_str	0x47b55	0x18	sdk\libs\timer_dam_lib.lib(qapi_timer_user.o)	#SHT_PROGBITS,SHF_MERGE|SHF_STRINGS,1
	0x6e2		
.debug_str	0x47b6d	0x21	sdk\libs\timer_dam_lib.lib(qapi_timer_user.o)	#SHT_PROGBITS,SHF_MERGE|SHF_STRINGS,1
	0x6fa		
.debug_str	0x47b8e	0x1b	sdk\libs\timer_dam_lib.lib(qapi_timer_user.o)	#SHT_PROGBITS,SHF_MERGE|SHF_STRINGS,1
	0x71b		
.debug_str	0x47ba9	0x1c	sdk\libs\timer_dam_lib.lib(qapi_timer_user.o)	#SHT_PROGBITS,SHF_MERGE|SHF_STRINGS,1
	0x736		
.debug_str	0x47bc5	0x1b	sdk\libs\timer_dam_lib.lib(qapi_timer_user.o)	#SHT_PROGBITS,SHF_MERGE|SHF_STRINGS,1
	0x752		
.debug_str	0x47be0	0xc	sdk\libs\timer_dam_lib.lib(qapi_timer_user.o)	#SHT_PROGBITS,SHF_MERGE|SHF_STRINGS,1
	0x76d		
.debug_str	0x47bec	0xe	sdk\libs\timer_dam_lib.lib(qapi_timer_user.o)	#SHT_PROGBITS,SHF_MERGE|SHF_STRINGS,1
	0x779		
.debug_str	0x47bfa	0x19	sdk\libs\timer_dam_lib.lib(qapi_timer_user.o)	#SHT_PROGBITS,SHF_MERGE|SHF_STRINGS,1
	0x787		
.debug_str	0x47c13	0xf	sdk\libs\timer_dam_lib.lib(qapi_timer_user.o)	#SHT_PROGBITS,SHF_MERGE|SHF_STRINGS,1
	0x7a0		
.debug_str	0x47c22	0x11	sdk\libs\timer_dam_lib.lib(qapi_timer_user.o)	#SHT_PROGBITS,SHF_MERGE|SHF_STRINGS,1
	0x7af		
.debug_str	0x47c33	0x1b	sdk\libs\timer_dam_lib.lib(qapi_timer_user.o)	#SHT_PROGBITS,SHF_MERGE|SHF_STRINGS,1
	0x7c0		
.debug_str	0x47c4e	0x19	sdk\libs\timer_dam_lib.lib(qapi_timer_user.o)	#SHT_PROGBITS,SHF_MERGE|SHF_STRINGS,1
	0x7db		
.debug_str	0x47c67	0x19	sdk\libs\timer_dam_lib.lib(qapi_timer_user.o)	#SHT_PROGBITS,SHF_MERGE|SHF_STRINGS,1
	0x7f4		
.debug_str	0x47c80	0x16	sdk\libs\timer_dam_lib.lib(qapi_timer_user.o)	#SHT_PROGBITS,SHF_MERGE|SHF_STRINGS,1
	0x80d		
.debug_str	0x47c96	0x1a	sdk\libs\timer_dam_lib.lib(qapi_timer_user.o)	#SHT_PROGBITS,SHF_MERGE|SHF_STRINGS,1
	0x823		
.debug_str	0x47cb0	0x22	sdk\libs\timer_dam_lib.lib(qapi_timer_user.o)	#SHT_PROGBITS,SHF_MERGE|SHF_STRINGS,1
	0x83d		
.debug_str	0x47cd2	0x14	sdk\libs\timer_dam_lib.lib(qapi_timer_user.o)	#SHT_PROGBITS,SHF_MERGE|SHF_STRINGS,1
	0x85f		
.debug_str	0x47ce6	0x18	sdk\libs\timer_dam_lib.lib(qapi_timer_user.o)	#SHT_PROGBITS,SHF_MERGE|SHF_STRINGS,1
	0x873		
.debug_str	0x47cfe	0x10	sdk\libs\timer_dam_lib.lib(qapi_timer_user.o)	#SHT_PROGBITS,SHF_MERGE|SHF_STRINGS,1
	0x88b		
.debug_str	0x47d0e	0x1c	sdk\libs\timer_dam_lib.lib(qapi_timer_user.o)	#SHT_PROGBITS,SHF_MERGE|SHF_STRINGS,1
	0x89b		
.debug_str	0x47d2a	0x4	sdk\libs\timer_dam_lib.lib(qapi_timer_user.o)	#SHT_PROGBITS,SHF_MERGE|SHF_STRINGS,1
	0x8b7		
.debug_str	0x47d2e	0x9	sdk\libs\timer_dam_lib.lib(qapi_timer_user.o)	#SHT_PROGBITS,SHF_MERGE|SHF_STRINGS,1
	0x8bb		
.debug_str	0x47d37	0x15	sdk\libs\timer_dam_lib.lib(qapi_timer_user.o)	#SHT_PROGBITS,SHF_MERGE|SHF_STRINGS,1
	0x8c4		
.debug_str	0x47d4c	0x17	sdk\libs\timer_dam_lib.lib(qapi_timer_user.o)	#SHT_PROGBITS,SHF_MERGE|SHF_STRINGS,1
	0x8d9		
.debug_str	0x47d63	0x1a	sdk\libs\timer_dam_lib.lib(qapi_timer_user.o)	#SHT_PROGBITS,SHF_MERGE|SHF_STRINGS,1
	0x8f0		
.debug_str	0x47d7d	0x15	sdk\libs\timer_dam_lib.lib(qapi_timer_user.o)	#SHT_PROGBITS,SHF_MERGE|SHF_STRINGS,1
	0x90a		
.debug_str	0x47d92	0x11	sdk\libs\timer_dam_lib.lib(qapi_timer_user.o)	#SHT_PROGBITS,SHF_MERGE|SHF_STRINGS,1
	0x91f		
.debug_str	0x47da3	0xa	sdk\libs\timer_dam_lib.lib(qapi_timer_user.o)	#SHT_PROGBITS,SHF_MERGE|SHF_STRINGS,1
	0x930		
.debug_str	0x47dad	0x13	sdk\libs\timer_dam_lib.lib(qapi_timer_user.o)	#SHT_PROGBITS,SHF_MERGE|SHF_STRINGS,1
	0x93a		
.debug_str	0x47dc0	0xe	sdk\libs\timer_dam_lib.lib(qapi_timer_user.o)	#SHT_PROGBITS,SHF_MERGE|SHF_STRINGS,1
	0x94d		
.debug_str	0x47dce	0x6	sdk\libs\timer_dam_lib.lib(qapi_timer_user.o)	#SHT_PROGBITS,SHF_MERGE|SHF_STRINGS,1
	0x95b		
.debug_str	0x47dd4	0x12	sdk\libs\timer_dam_lib.lib(qapi_timer_user.o)	#SHT_PROGBITS,SHF_MERGE|SHF_STRINGS,1
	0x961		
.debug_str	0x47de6	0x13	sdk\libs\timer_dam_lib.lib(qapi_timer_user.o)	#SHT_PROGBITS,SHF_MERGE|SHF_STRINGS,1
	0x973		
.debug_str	0x47df9	0x1a	sdk\libs\timer_dam_lib.lib(qapi_timer_user.o)	#SHT_PROGBITS,SHF_MERGE|SHF_STRINGS,1
	0x986		
.debug_str	0x47e13	0x21	sdk\libs\timer_dam_lib.lib(qapi_timer_user.o)	#SHT_PROGBITS,SHF_MERGE|SHF_STRINGS,1
	0x9a0		
.debug_str	0x47e34	0x19	sdk\libs\timer_dam_lib.lib(qapi_timer_user.o)	#SHT_PROGBITS,SHF_MERGE|SHF_STRINGS,1
	0x9c1		
.debug_str	0x47e4d	0x1f	sdk\libs\timer_dam_lib.lib(qapi_timer_user.o)	#SHT_PROGBITS,SHF_MERGE|SHF_STRINGS,1
	0x9da		
.debug_str	0x47e6c	0x15	sdk\libs\timer_dam_lib.lib(qapi_timer_user.o)	#SHT_PROGBITS,SHF_MERGE|SHF_STRINGS,1
	0x9f9		
.debug_str	0x47e81	0x15	sdk\libs\timer_dam_lib.lib(qapi_timer_user.o)	#SHT_PROGBITS,SHF_MERGE|SHF_STRINGS,1
	0xa0e		
.debug_str	0x47e96	0x15	sdk\libs\timer_dam_lib.lib(qapi_timer_user.o)	#SHT_PROGBITS,SHF_MERGE|SHF_STRINGS,1
	0xa23		
.debug_str	0x47eab	0x14	sdk\libs\timer_dam_lib.lib(qapi_timer_user.o)	#SHT_PROGBITS,SHF_MERGE|SHF_STRINGS,1
	0xa38		
.debug_str	0x47ebf	0x14	sdk\libs\timer_dam_lib.lib(qapi_timer_user.o)	#SHT_PROGBITS,SHF_MERGE|SHF_STRINGS,1
	0xa4c		
.debug_str	0x47ed3	0x15	sdk\libs\timer_dam_lib.lib(qapi_timer_user.o)	#SHT_PROGBITS,SHF_MERGE|SHF_STRINGS,1
	0xa60		
.debug_str	0x47ee8	0x14	sdk\libs\timer_dam_lib.lib(qapi_timer_user.o)	#SHT_PROGBITS,SHF_MERGE|SHF_STRINGS,1
	0xa75		
.debug_str	0x47efc	0x21	sdk\libs\timer_dam_lib.lib(qapi_timer_user.o)	#SHT_PROGBITS,SHF_MERGE|SHF_STRINGS,1
	0xa89		
.debug_str	0x47f1d	0x25	sdk\libs\timer_dam_lib.lib(qapi_timer_user.o)	#SHT_PROGBITS,SHF_MERGE|SHF_STRINGS,1
	0xaaa		
.debug_str	0x47f42	0x26	sdk\libs\timer_dam_lib.lib(qapi_timer_user.o)	#SHT_PROGBITS,SHF_MERGE|SHF_STRINGS,1
	0xacf		
.debug_str	0x47f68	0x1a	sdk\libs\timer_dam_lib.lib(qapi_timer_user.o)	#SHT_PROGBITS,SHF_MERGE|SHF_STRINGS,1
	0xaf5		
.debug_str	0x47f82	0x10	sdk\libs\timer_dam_lib.lib(qapi_timer_user.o)	#SHT_PROGBITS,SHF_MERGE|SHF_STRINGS,1
	0xb0f		
.debug_str	0x47f92	0x10	sdk\libs\timer_dam_lib.lib(qapi_timer_user.o)	#SHT_PROGBITS,SHF_MERGE|SHF_STRINGS,1
	0xb1f		
.debug_str	0x47fa2	0xf	sdk\libs\timer_dam_lib.lib(qapi_timer_user.o)	#SHT_PROGBITS,SHF_MERGE|SHF_STRINGS,1
	0xb2f		
.debug_str	0x47fb1	0x11	sdk\libs\timer_dam_lib.lib(qapi_timer_user.o)	#SHT_PROGBITS,SHF_MERGE|SHF_STRINGS,1
	0xb3e		
.debug_str	0x47fc2	0x4	sdk\libs\timer_dam_lib.lib(qapi_timer_user.o)	#SHT_PROGBITS,SHF_MERGE|SHF_STRINGS,1
	0xb4f		
.debug_str	0x47fc6	0x8	sdk\libs\timer_dam_lib.lib(qapi_timer_user.o)	#SHT_PROGBITS,SHF_MERGE|SHF_STRINGS,1
	0xb53		
.debug_str	0x47fce	0xe	sdk\libs\timer_dam_lib.lib(qapi_timer_user.o)	#SHT_PROGBITS,SHF_MERGE|SHF_STRINGS,1
	0xb5b		
.debug_str	0x47fdc	0x10	sdk\libs\timer_dam_lib.lib(qapi_timer_user.o)	#SHT_PROGBITS,SHF_MERGE|SHF_STRINGS,1
	0xb69		
.debug_str	0x47fec	0x16	sdk\libs\timer_dam_lib.lib(qapi_timer_user.o)	#SHT_PROGBITS,SHF_MERGE|SHF_STRINGS,1
	0xb79		
.debug_str	0x48002	0x18	sdk\libs\timer_dam_lib.lib(qapi_timer_user.o)	#SHT_PROGBITS,SHF_MERGE|SHF_STRINGS,1
	0xb8f		
.debug_str	0x4801a	0x15	sdk\libs\timer_dam_lib.lib(qapi_timer_user.o)	#SHT_PROGBITS,SHF_MERGE|SHF_STRINGS,1
	0xba7		
.debug_str	0x4802f	0xf	sdk\libs\timer_dam_lib.lib(qapi_timer_user.o)	#SHT_PROGBITS,SHF_MERGE|SHF_STRINGS,1
	0xbbc		
.debug_str	0x4803e	0xf	sdk\libs\timer_dam_lib.lib(qapi_timer_user.o)	#SHT_PROGBITS,SHF_MERGE|SHF_STRINGS,1
	0xbcb		
.debug_str	0x4804d	0x1a	sdk\libs\timer_dam_lib.lib(qapi_timer_user.o)	#SHT_PROGBITS,SHF_MERGE|SHF_STRINGS,1
	0xbda		
.debug_str	0x48067	0x11	sdk\libs\timer_dam_lib.lib(qapi_timer_user.o)	#SHT_PROGBITS,SHF_MERGE|SHF_STRINGS,1
	0xbf4		
.debug_str	0x48078	0x11	sdk\libs\timer_dam_lib.lib(qapi_timer_user.o)	#SHT_PROGBITS,SHF_MERGE|SHF_STRINGS,1
	0xc05		
.debug_str	0x48089	0x10	sdk\libs\timer_dam_lib.lib(qapi_timer_user.o)	#SHT_PROGBITS,SHF_MERGE|SHF_STRINGS,1
	0xc16		
.debug_str	0x48099	0xe	sdk\libs\timer_dam_lib.lib(qapi_timer_user.o)	#SHT_PROGBITS,SHF_MERGE|SHF_STRINGS,1
	0xc26		
.debug_str	0x480a7	0xe	sdk\libs\timer_dam_lib.lib(qapi_timer_user.o)	#SHT_PROGBITS,SHF_MERGE|SHF_STRINGS,1
	0xc34		
.debug_str	0x480b5	0x9	sdk\libs\timer_dam_lib.lib(qapi_timer_user.o)	#SHT_PROGBITS,SHF_MERGE|SHF_STRINGS,1
	0xc42		
.debug_str	0x480be	0x5	sdk\libs\timer_dam_lib.lib(qapi_timer_user.o)	#SHT_PROGBITS,SHF_MERGE|SHF_STRINGS,1
	0xc4b		
.debug_str	0x480c3	0x18	sdk\libs\timer_dam_lib.lib(qapi_timer_user.o)	#SHT_PROGBITS,SHF_MERGE|SHF_STRINGS,1
	0xc50		
.debug_str	0x480db	0x4	sdk\libs\timer_dam_lib.lib(qapi_timer_user.o)	#SHT_PROGBITS,SHF_MERGE|SHF_STRINGS,1
	0xc68		
.debug_str	0x480df	0xd	sdk\libs\timer_dam_lib.lib(qapi_timer_user.o)	#SHT_PROGBITS,SHF_MERGE|SHF_STRINGS,1
	0xc6c		
.debug_str	0x480ec	0x14	sdk\libs\timer_dam_lib.lib(qapi_timer_user.o)	#SHT_PROGBITS,SHF_MERGE|SHF_STRINGS,1
	0xc79		
.debug_str	0x48100	0xb	sdk\libs\timer_dam_lib.lib(qapi_timer_user.o)	#SHT_PROGBITS,SHF_MERGE|SHF_STRINGS,1
	0xc8d		
.debug_str	0x4810b	0xb	sdk\libs\timer_dam_lib.lib(qapi_timer_user.o)	#SHT_PROGBITS,SHF_MERGE|SHF_STRINGS,1
	0xc98		
.debug_str	0x48116	0x8	sdk\libs\timer_dam_lib.lib(qapi_timer_user.o)	#SHT_PROGBITS,SHF_MERGE|SHF_STRINGS,1
	0xca3		
.debug_str	0x4811e	0x8	sdk\libs\timer_dam_lib.lib(qapi_timer_user.o)	#SHT_PROGBITS,SHF_MERGE|SHF_STRINGS,1
	0xcab		
.debug_str	0x48126	0x14	sdk\libs\timer_dam_lib.lib(qapi_timer_user.o)	#SHT_PROGBITS,SHF_MERGE|SHF_STRINGS,1
	0xcb3		
.debug_str	0x4813a	0xe	sdk\libs\timer_dam_lib.lib(qapi_timer_user.o)	#SHT_PROGBITS,SHF_MERGE|SHF_STRINGS,1
	0xcc7		
.debug_str	0x48148	0xf	sdk\libs\timer_dam_lib.lib(qapi_timer_user.o)	#SHT_PROGBITS,SHF_MERGE|SHF_STRINGS,1
	0xcd5		
.debug_str	0x48157	0x19	sdk\libs\timer_dam_lib.lib(qapi_timer_user.o)	#SHT_PROGBITS,SHF_MERGE|SHF_STRINGS,1
	0xce4		
.debug_str	0x48170	0x5	sdk\libs\timer_dam_lib.lib(qapi_timer_user.o)	#SHT_PROGBITS,SHF_MERGE|SHF_STRINGS,1
	0xcfd		
.debug_str	0x48175	0x9	sdk\libs\timer_dam_lib.lib(qapi_timer_user.o)	#SHT_PROGBITS,SHF_MERGE|SHF_STRINGS,1
	0xd02		
.debug_str	0x4817e	0x7	sdk\libs\timer_dam_lib.lib(qapi_timer_user.o)	#SHT_PROGBITS,SHF_MERGE|SHF_STRINGS,1
	0xd0b		
.debug_str	0x48185	0x5	sdk\libs\timer_dam_lib.lib(qapi_timer_user.o)	#SHT_PROGBITS,SHF_MERGE|SHF_STRINGS,1
	0xd12		
.debug_str	0x4818a	0x15	sdk\libs\timer_dam_lib.lib(qapi_timer_user.o)	#SHT_PROGBITS,SHF_MERGE|SHF_STRINGS,1
	0xd17		
.debug_str	0x4819f	0x16	sdk\libs\timer_dam_lib.lib(qapi_timer_user.o)	#SHT_PROGBITS,SHF_MERGE|SHF_STRINGS,1
	0xd2c		
.debug_str	0x481b5	0x14	sdk\libs\timer_dam_lib.lib(qapi_timer_user.o)	#SHT_PROGBITS,SHF_MERGE|SHF_STRINGS,1
	0xd42		
.debug_str	0x481c9	0xb	sdk\libs\timer_dam_lib.lib(qapi_timer_user.o)	#SHT_PROGBITS,SHF_MERGE|SHF_STRINGS,1
	0xd56		
.debug_str	0x481d4	0x15	sdk\libs\timer_dam_lib.lib(qapi_timer_user.o)	#SHT_PROGBITS,SHF_MERGE|SHF_STRINGS,1
	0xd61		
.debug_str	0x481e9	0x1b	sdk\libs\timer_dam_lib.lib(qapi_timer_user.o)	#SHT_PROGBITS,SHF_MERGE|SHF_STRINGS,1
	0xd76		
.debug_str	0x48204	0xf	sdk\libs\timer_dam_lib.lib(qapi_timer_user.o)	#SHT_PROGBITS,SHF_MERGE|SHF_STRINGS,1
	0xd91		
.debug_str	0x48213	0x8	sdk\libs\timer_dam_lib.lib(qapi_timer_user.o)	#SHT_PROGBITS,SHF_MERGE|SHF_STRINGS,1
	0xda0		
.debug_str	0x4821b	0xe	sdk\libs\timer_dam_lib.lib(qapi_timer_user.o)	#SHT_PROGBITS,SHF_MERGE|SHF_STRINGS,1
	0xda8		
.debug_str	0x48229	0x14	sdk\libs\timer_dam_lib.lib(qapi_timer_user.o)	#SHT_PROGBITS,SHF_MERGE|SHF_STRINGS,1
	0xdb6		
.debug_str	0x4823d	0x8	sdk\libs\timer_dam_lib.lib(qapi_timer_user.o)	#SHT_PROGBITS,SHF_MERGE|SHF_STRINGS,1
	0xdca		
.debug_str	0x48245	0xb	sdk\libs\timer_dam_lib.lib(qapi_timer_user.o)	#SHT_PROGBITS,SHF_MERGE|SHF_STRINGS,1
	0xdd2		
.debug_str	0x48250	0xf	sdk\libs\timer_dam_lib.lib(qapi_timer_user.o)	#SHT_PROGBITS,SHF_MERGE|SHF_STRINGS,1
	0xddd		
.debug_str	0x4825f	0xb	sdk\libs\timer_dam_lib.lib(qapi_timer_user.o)	#SHT_PROGBITS,SHF_MERGE|SHF_STRINGS,1
	0xdec		
.debug_str	0x4826a	0xa	sdk\libs\timer_dam_lib.lib(qapi_timer_user.o)	#SHT_PROGBITS,SHF_MERGE|SHF_STRINGS,1
	0xdf7		
.debug_str	0x48274	0xc	sdk\libs\timer_dam_lib.lib(qapi_timer_user.o)	#SHT_PROGBITS,SHF_MERGE|SHF_STRINGS,1
	0xe01		
.debug_str	0x48280	0x5	sdk\libs\timer_dam_lib.lib(qapi_timer_user.o)	#SHT_PROGBITS,SHF_MERGE|SHF_STRINGS,1
	0xe0d		
.debug_str	0x48285	0xf	sdk\libs\timer_dam_lib.lib(qapi_timer_user.o)	#SHT_PROGBITS,SHF_MERGE|SHF_STRINGS,1
	0xe12		
.debug_str	0x48294	0x9	sdk\libs\timer_dam_lib.lib(qapi_timer_user.o)	#SHT_PROGBITS,SHF_MERGE|SHF_STRINGS,1
	0xe21		
.debug_str	0x4829d	0x6	sdk\libs\timer_dam_lib.lib(qapi_timer_user.o)	#SHT_PROGBITS,SHF_MERGE|SHF_STRINGS,1
	0xe2a		
.debug_str	0x482a3	0x4	sdk\libs\timer_dam_lib.lib(qapi_timer_user.o)	#SHT_PROGBITS,SHF_MERGE|SHF_STRINGS,1
	0xe30		
.debug_str	0x482a7	0x5	sdk\libs\timer_dam_lib.lib(qapi_timer_user.o)	#SHT_PROGBITS,SHF_MERGE|SHF_STRINGS,1
	0xe34		
.debug_str	0x482ac	0x7	sdk\libs\timer_dam_lib.lib(qapi_timer_user.o)	#SHT_PROGBITS,SHF_MERGE|SHF_STRINGS,1
	0xe39		
.debug_str	0x482b3	0x7	sdk\libs\timer_dam_lib.lib(qapi_timer_user.o)	#SHT_PROGBITS,SHF_MERGE|SHF_STRINGS,1
	0xe40		
.debug_str	0x482ba	0xc	sdk\libs\timer_dam_lib.lib(qapi_timer_user.o)	#SHT_PROGBITS,SHF_MERGE|SHF_STRINGS,1
	0xe47		
.debug_str	0x482c6	0x16	sdk\libs\timer_dam_lib.lib(qapi_timer_user.o)	#SHT_PROGBITS,SHF_MERGE|SHF_STRINGS,1
	0xe53		
.debug_str	0x482dc	0x10	sdk\libs\timer_dam_lib.lib(qapi_timer_user.o)	#SHT_PROGBITS,SHF_MERGE|SHF_STRINGS,1
	0xe69		
.debug_str	0x482ec	0xa9	sdk\libs\txm_lib.lib(txm_module_thread_shell_entry.o)	#SHT_PROGBITS,SHF_MERGE|SHF_STRINGS,1
	0xe79		
.debug_str	0x48395	0x17	sdk\libs\txm_lib.lib(txm_module_thread_shell_entry.o)	#SHT_PROGBITS,SHF_MERGE|SHF_STRINGS,1
	0xf22		
.debug_str	0x483ac	0x24	sdk\libs\txm_lib.lib(txm_module_thread_shell_entry.o)	#SHT_PROGBITS,SHF_MERGE|SHF_STRINGS,1
	0xf39		
.debug_str	0x483d0	0x24	sdk\libs\txm_lib.lib(txm_module_thread_shell_entry.o)	#SHT_PROGBITS,SHF_MERGE|SHF_STRINGS,1
	0xf5d		
.debug_str	0x483f4	0x17	sdk\libs\txm_lib.lib(txm_module_thread_shell_entry.o)	#SHT_PROGBITS,SHF_MERGE|SHF_STRINGS,1
	0xf81		
.debug_str	0x4840b	0x19	sdk\libs\txm_lib.lib(txm_module_thread_shell_entry.o)	#SHT_PROGBITS,SHF_MERGE|SHF_STRINGS,1
	0xf98		
.debug_str	0x48424	0x1a	sdk\libs\txm_lib.lib(txm_module_thread_shell_entry.o)	#SHT_PROGBITS,SHF_MERGE|SHF_STRINGS,1
	0xfb1		
.debug_str	0x4843e	0x23	sdk\libs\txm_lib.lib(txm_module_thread_shell_entry.o)	#SHT_PROGBITS,SHF_MERGE|SHF_STRINGS,1
	0xfcb		
.debug_str	0x48461	0x28	sdk\libs\txm_lib.lib(txm_module_thread_shell_entry.o)	#SHT_PROGBITS,SHF_MERGE|SHF_STRINGS,1
	0xfee		
.debug_str	0x48489	0x29	sdk\libs\txm_lib.lib(txm_module_thread_shell_entry.o)	#SHT_PROGBITS,SHF_MERGE|SHF_STRINGS,1
	0x1016		
.debug_str	0x484b2	0x1f	sdk\libs\txm_lib.lib(txm_module_thread_shell_entry.o)	#SHT_PROGBITS,SHF_MERGE|SHF_STRINGS,1
	0x103f		
.debug_str	0x484d1	0x1d	sdk\libs\txm_lib.lib(txm_module_thread_shell_entry.o)	#SHT_PROGBITS,SHF_MERGE|SHF_STRINGS,1
	0x105e		
.debug_str	0x484ee	0x1e	sdk\libs\txm_lib.lib(txm_module_thread_shell_entry.o)	#SHT_PROGBITS,SHF_MERGE|SHF_STRINGS,1
	0x107b		
.debug_str	0x4850c	0x28	sdk\libs\txm_lib.lib(txm_module_thread_shell_entry.o)	#SHT_PROGBITS,SHF_MERGE|SHF_STRINGS,1
	0x1099		
.debug_str	0x48534	0x29	sdk\libs\txm_lib.lib(txm_module_thread_shell_entry.o)	#SHT_PROGBITS,SHF_MERGE|SHF_STRINGS,1
	0x10c1		
.debug_str	0x4855d	0x1f	sdk\libs\txm_lib.lib(txm_module_thread_shell_entry.o)	#SHT_PROGBITS,SHF_MERGE|SHF_STRINGS,1
	0x10ea		
.debug_str	0x4857c	0x1d	sdk\libs\txm_lib.lib(txm_module_thread_shell_entry.o)	#SHT_PROGBITS,SHF_MERGE|SHF_STRINGS,1
	0x1109		
.debug_str	0x48599	0x2d	sdk\libs\txm_lib.lib(txm_module_thread_shell_entry.o)	#SHT_PROGBITS,SHF_MERGE|SHF_STRINGS,1
	0x1126		
.debug_str	0x485c6	0x1e	sdk\libs\txm_lib.lib(txm_module_thread_shell_entry.o)	#SHT_PROGBITS,SHF_MERGE|SHF_STRINGS,1
	0x1153		
.debug_str	0x485e4	0x24	sdk\libs\txm_lib.lib(txm_module_thread_shell_entry.o)	#SHT_PROGBITS,SHF_MERGE|SHF_STRINGS,1
	0x1171		
.debug_str	0x48608	0x33	sdk\libs\txm_lib.lib(txm_module_thread_shell_entry.o)	#SHT_PROGBITS,SHF_MERGE|SHF_STRINGS,1
	0x1195		
.debug_str	0x4863b	0x31	sdk\libs\txm_lib.lib(txm_module_thread_shell_entry.o)	#SHT_PROGBITS,SHF_MERGE|SHF_STRINGS,1
	0x11c8		
.debug_str	0x4866c	0x31	sdk\libs\txm_lib.lib(txm_module_thread_shell_entry.o)	#SHT_PROGBITS,SHF_MERGE|SHF_STRINGS,1
	0x11f9		
.debug_str	0x4869d	0x2f	sdk\libs\txm_lib.lib(txm_module_thread_shell_entry.o)	#SHT_PROGBITS,SHF_MERGE|SHF_STRINGS,1
	0x122a		
.debug_str	0x486cc	0x21	sdk\libs\txm_lib.lib(txm_module_thread_shell_entry.o)	#SHT_PROGBITS,SHF_MERGE|SHF_STRINGS,1
	0x1259		
.debug_str	0x486ed	0x17	sdk\libs\txm_lib.lib(txm_module_thread_shell_entry.o)	#SHT_PROGBITS,SHF_MERGE|SHF_STRINGS,1
	0x127a		
.debug_str	0x48704	0x22	sdk\libs\txm_lib.lib(txm_module_thread_shell_entry.o)	#SHT_PROGBITS,SHF_MERGE|SHF_STRINGS,1
	0x1291		
.debug_str	0x48726	0x22	sdk\libs\txm_lib.lib(txm_module_thread_shell_entry.o)	#SHT_PROGBITS,SHF_MERGE|SHF_STRINGS,1
	0x12b3		
.debug_str	0x48748	0x22	sdk\libs\txm_lib.lib(txm_module_thread_shell_entry.o)	#SHT_PROGBITS,SHF_MERGE|SHF_STRINGS,1
	0x12d5		
.debug_str	0x4876a	0x2a	sdk\libs\txm_lib.lib(txm_module_thread_shell_entry.o)	#SHT_PROGBITS,SHF_MERGE|SHF_STRINGS,1
	0x12f7		
.debug_str	0x48794	0x23	sdk\libs\txm_lib.lib(txm_module_thread_shell_entry.o)	#SHT_PROGBITS,SHF_MERGE|SHF_STRINGS,1
	0x1321		
.debug_str	0x487b7	0x29	sdk\libs\txm_lib.lib(txm_module_thread_shell_entry.o)	#SHT_PROGBITS,SHF_MERGE|SHF_STRINGS,1
	0x1344		
.debug_str	0x487e0	0x23	sdk\libs\txm_lib.lib(txm_module_thread_shell_entry.o)	#SHT_PROGBITS,SHF_MERGE|SHF_STRINGS,1
	0x136d		
.debug_str	0x48803	0x22	sdk\libs\txm_lib.lib(txm_module_thread_shell_entry.o)	#SHT_PROGBITS,SHF_MERGE|SHF_STRINGS,1
	0x1390		
.debug_str	0x48825	0x28	sdk\libs\txm_lib.lib(txm_module_thread_shell_entry.o)	#SHT_PROGBITS,SHF_MERGE|SHF_STRINGS,1
	0x13b2		
.debug_str	0x4884d	0x2a	sdk\libs\txm_lib.lib(txm_module_thread_shell_entry.o)	#SHT_PROGBITS,SHF_MERGE|SHF_STRINGS,1
	0x13da		
.debug_str	0x48877	0x26	sdk\libs\txm_lib.lib(txm_module_thread_shell_entry.o)	#SHT_PROGBITS,SHF_MERGE|SHF_STRINGS,1
	0x1404		
.debug_str	0x4889d	0x26	sdk\libs\txm_lib.lib(txm_module_thread_shell_entry.o)	#SHT_PROGBITS,SHF_MERGE|SHF_STRINGS,1
	0x142a		
.debug_str	0x488c3	0x28	sdk\libs\txm_lib.lib(txm_module_thread_shell_entry.o)	#SHT_PROGBITS,SHF_MERGE|SHF_STRINGS,1
	0x1450		
.debug_str	0x488eb	0x1e	sdk\libs\txm_lib.lib(txm_module_thread_shell_entry.o)	#SHT_PROGBITS,SHF_MERGE|SHF_STRINGS,1
	0x1478		
.debug_str	0x48909	0x1e	sdk\libs\txm_lib.lib(txm_module_thread_shell_entry.o)	#SHT_PROGBITS,SHF_MERGE|SHF_STRINGS,1
	0x1496		
.debug_str	0x48927	0x1f	sdk\libs\txm_lib.lib(txm_module_thread_shell_entry.o)	#SHT_PROGBITS,SHF_MERGE|SHF_STRINGS,1
	0x14b4		
.debug_str	0x48946	0x1f	sdk\libs\txm_lib.lib(txm_module_thread_shell_entry.o)	#SHT_PROGBITS,SHF_MERGE|SHF_STRINGS,1
	0x14d3		
.debug_str	0x48965	0x1f	sdk\libs\txm_lib.lib(txm_module_thread_shell_entry.o)	#SHT_PROGBITS,SHF_MERGE|SHF_STRINGS,1
	0x14f2		
.debug_str	0x48984	0x1f	sdk\libs\txm_lib.lib(txm_module_thread_shell_entry.o)	#SHT_PROGBITS,SHF_MERGE|SHF_STRINGS,1
	0x1511		
.debug_str	0x489a3	0x1f	sdk\libs\txm_lib.lib(txm_module_thread_shell_entry.o)	#SHT_PROGBITS,SHF_MERGE|SHF_STRINGS,1
	0x1530		
.debug_str	0x489c2	0x1f	sdk\libs\txm_lib.lib(txm_module_thread_shell_entry.o)	#SHT_PROGBITS,SHF_MERGE|SHF_STRINGS,1
	0x154f		
.debug_str	0x489e1	0x1f	sdk\libs\txm_lib.lib(txm_module_thread_shell_entry.o)	#SHT_PROGBITS,SHF_MERGE|SHF_STRINGS,1
	0x156e		
.debug_str	0x48a00	0x1f	sdk\libs\txm_lib.lib(txm_module_thread_shell_entry.o)	#SHT_PROGBITS,SHF_MERGE|SHF_STRINGS,1
	0x158d		
.debug_str	0x48a1f	0x1f	sdk\libs\txm_lib.lib(txm_module_thread_shell_entry.o)	#SHT_PROGBITS,SHF_MERGE|SHF_STRINGS,1
	0x15ac		
.debug_str	0x48a3e	0x1f	sdk\libs\txm_lib.lib(txm_module_thread_shell_entry.o)	#SHT_PROGBITS,SHF_MERGE|SHF_STRINGS,1
	0x15cb		
.debug_str	0x48a5d	0x21	sdk\libs\txm_lib.lib(txm_module_thread_shell_entry.o)	#SHT_PROGBITS,SHF_MERGE|SHF_STRINGS,1
	0x15ea		
.debug_str	0x48a7e	0x20	sdk\libs\txm_lib.lib(txm_module_thread_shell_entry.o)	#SHT_PROGBITS,SHF_MERGE|SHF_STRINGS,1
	0x160b		
.debug_str	0x48a9e	0x20	sdk\libs\txm_lib.lib(txm_module_thread_shell_entry.o)	#SHT_PROGBITS,SHF_MERGE|SHF_STRINGS,1
	0x162b		
.debug_str	0x48abe	0x20	sdk\libs\txm_lib.lib(txm_module_thread_shell_entry.o)	#SHT_PROGBITS,SHF_MERGE|SHF_STRINGS,1
	0x164b		
.debug_str	0x48ade	0x20	sdk\libs\txm_lib.lib(txm_module_thread_shell_entry.o)	#SHT_PROGBITS,SHF_MERGE|SHF_STRINGS,1
	0x166b		
.debug_str	0x48afe	0x1d	sdk\libs\txm_lib.lib(txm_module_thread_shell_entry.o)	#SHT_PROGBITS,SHF_MERGE|SHF_STRINGS,1
	0x168b		
.debug_str	0x48b1b	0x1b	sdk\libs\txm_lib.lib(txm_module_thread_shell_entry.o)	#SHT_PROGBITS,SHF_MERGE|SHF_STRINGS,1
	0x16a8		
.debug_str	0x48b36	0x14	sdk\libs\txm_lib.lib(txm_module_thread_shell_entry.o)	#SHT_PROGBITS,SHF_MERGE|SHF_STRINGS,1
	0x16c3		
.debug_str	0x48b4a	0x29	sdk\libs\txm_lib.lib(txm_module_thread_shell_entry.o)	#SHT_PROGBITS,SHF_MERGE|SHF_STRINGS,1
	0x16d7		
.debug_str	0x48b73	0x27	sdk\libs\txm_lib.lib(txm_module_thread_shell_entry.o)	#SHT_PROGBITS,SHF_MERGE|SHF_STRINGS,1
	0x1700		
.debug_str	0x48b9a	0x26	sdk\libs\txm_lib.lib(txm_module_thread_shell_entry.o)	#SHT_PROGBITS,SHF_MERGE|SHF_STRINGS,1
	0x1727		
.debug_str	0x48bc0	0x32	sdk\libs\txm_lib.lib(txm_module_thread_shell_entry.o)	#SHT_PROGBITS,SHF_MERGE|SHF_STRINGS,1
	0x174d		
.debug_str	0x48bf2	0x26	sdk\libs\txm_lib.lib(txm_module_thread_shell_entry.o)	#SHT_PROGBITS,SHF_MERGE|SHF_STRINGS,1
	0x177f		
.debug_str	0x48c18	0x2c	sdk\libs\txm_lib.lib(txm_module_thread_shell_entry.o)	#SHT_PROGBITS,SHF_MERGE|SHF_STRINGS,1
	0x17a5		
.debug_str	0x48c44	0x2b	sdk\libs\txm_lib.lib(txm_module_thread_shell_entry.o)	#SHT_PROGBITS,SHF_MERGE|SHF_STRINGS,1
	0x17d1		
.debug_str	0x48c6f	0xc	sdk\libs\txm_lib.lib(txm_module_thread_shell_entry.o)	#SHT_PROGBITS,SHF_MERGE|SHF_STRINGS,1
	0x17fc		
.debug_str	0x48c7b	0xe	sdk\libs\txm_lib.lib(txm_module_thread_shell_entry.o)	#SHT_PROGBITS,SHF_MERGE|SHF_STRINGS,1
	0x1808		
.debug_str	0x48c89	0x16	sdk\libs\txm_lib.lib(txm_module_thread_shell_entry.o)	#SHT_PROGBITS,SHF_MERGE|SHF_STRINGS,1
	0x1816		
.debug_str	0x48c9f	0x12	sdk\libs\txm_lib.lib(txm_module_thread_shell_entry.o)	#SHT_PROGBITS,SHF_MERGE|SHF_STRINGS,1
	0x182c		
.debug_str	0x48cb1	0x12	sdk\libs\txm_lib.lib(txm_module_thread_shell_entry.o)	#SHT_PROGBITS,SHF_MERGE|SHF_STRINGS,1
	0x183e		
.debug_str	0x48cc3	0x1b	sdk\libs\txm_lib.lib(txm_module_thread_shell_entry.o)	#SHT_PROGBITS,SHF_MERGE|SHF_STRINGS,1
	0x1850		
.debug_str	0x48cde	0xf	sdk\libs\txm_lib.lib(txm_module_thread_shell_entry.o)	#SHT_PROGBITS,SHF_MERGE|SHF_STRINGS,1
	0x186b		
.debug_str	0x48ced	0xd	sdk\libs\txm_lib.lib(txm_module_thread_shell_entry.o)	#SHT_PROGBITS,SHF_MERGE|SHF_STRINGS,1
	0x187a		
.debug_str	0x48cfa	0xe	sdk\libs\txm_lib.lib(txm_module_thread_shell_entry.o)	#SHT_PROGBITS,SHF_MERGE|SHF_STRINGS,1
	0x1887		
.debug_str	0x48d08	0xf	sdk\libs\txm_lib.lib(txm_module_thread_shell_entry.o)	#SHT_PROGBITS,SHF_MERGE|SHF_STRINGS,1
	0x1895		
.debug_str	0x48d17	0x19	sdk\libs\txm_lib.lib(txm_module_thread_shell_entry.o)	#SHT_PROGBITS,SHF_MERGE|SHF_STRINGS,1
	0x18a4		
.debug_str	0x48d30	0x19	sdk\libs\txm_lib.lib(txm_module_thread_shell_entry.o)	#SHT_PROGBITS,SHF_MERGE|SHF_STRINGS,1
	0x18bd		
.debug_str	0x48d49	0x16	sdk\libs\txm_lib.lib(txm_module_thread_shell_entry.o)	#SHT_PROGBITS,SHF_MERGE|SHF_STRINGS,1
	0x18d6		
.debug_str	0x48d5f	0x1a	sdk\libs\txm_lib.lib(txm_module_thread_shell_entry.o)	#SHT_PROGBITS,SHF_MERGE|SHF_STRINGS,1
	0x18ec		
.debug_str	0x48d79	0x10	sdk\libs\txm_lib.lib(txm_module_thread_shell_entry.o)	#SHT_PROGBITS,SHF_MERGE|SHF_STRINGS,1
	0x1906		
.debug_str	0x48d89	0x9	sdk\libs\txm_lib.lib(txm_module_thread_shell_entry.o)	#SHT_PROGBITS,SHF_MERGE|SHF_STRINGS,1
	0x1916		
.debug_str	0x48d92	0x30	sdk\libs\txm_lib.lib(txm_module_thread_shell_entry.o)	#SHT_PROGBITS,SHF_MERGE|SHF_STRINGS,1
	0x191f		
.debug_str	0x48dc2	0x2a	sdk\libs\txm_lib.lib(txm_module_thread_shell_entry.o)	#SHT_PROGBITS,SHF_MERGE|SHF_STRINGS,1
	0x194f		
.debug_str	0x48dec	0x28	sdk\libs\txm_lib.lib(txm_module_thread_shell_entry.o)	#SHT_PROGBITS,SHF_MERGE|SHF_STRINGS,1
	0x1979		
.debug_str	0x48e14	0x28	sdk\libs\txm_lib.lib(txm_module_thread_shell_entry.o)	#SHT_PROGBITS,SHF_MERGE|SHF_STRINGS,1
	0x19a1		
.debug_str	0x48e3c	0x26	sdk\libs\txm_lib.lib(txm_module_thread_shell_entry.o)	#SHT_PROGBITS,SHF_MERGE|SHF_STRINGS,1
	0x19c9		
.debug_str	0x48e62	0x2a	sdk\libs\txm_lib.lib(txm_module_thread_shell_entry.o)	#SHT_PROGBITS,SHF_MERGE|SHF_STRINGS,1
	0x19ef		
.debug_str	0x48e8c	0x28	sdk\libs\txm_lib.lib(txm_module_thread_shell_entry.o)	#SHT_PROGBITS,SHF_MERGE|SHF_STRINGS,1
	0x1a19		
.debug_str	0x48eb4	0x28	sdk\libs\txm_lib.lib(txm_module_thread_shell_entry.o)	#SHT_PROGBITS,SHF_MERGE|SHF_STRINGS,1
	0x1a41		
.debug_str	0x48edc	0x25	sdk\libs\txm_lib.lib(txm_module_thread_shell_entry.o)	#SHT_PROGBITS,SHF_MERGE|SHF_STRINGS,1
	0x1a69		
.debug_str	0x48f01	0x19	sdk\libs\txm_lib.lib(txm_module_thread_shell_entry.o)	#SHT_PROGBITS,SHF_MERGE|SHF_STRINGS,1
	0x1a8e		
.debug_str	0x48f1a	0x18	sdk\libs\txm_lib.lib(txm_module_thread_shell_entry.o)	#SHT_PROGBITS,SHF_MERGE|SHF_STRINGS,1
	0x1aa7		
.debug_str	0x48f32	0x1e	sdk\libs\txm_lib.lib(txm_module_thread_shell_entry.o)	#SHT_PROGBITS,SHF_MERGE|SHF_STRINGS,1
	0x1abf		
.debug_str	0x48f50	0x1e	sdk\libs\txm_lib.lib(txm_module_thread_shell_entry.o)	#SHT_PROGBITS,SHF_MERGE|SHF_STRINGS,1
	0x1add		
.debug_str	0x48f6e	0x15	sdk\libs\txm_lib.lib(txm_module_thread_shell_entry.o)	#SHT_PROGBITS,SHF_MERGE|SHF_STRINGS,1
	0x1afb		
.debug_str	0x48f83	0x14	sdk\libs\txm_lib.lib(txm_module_thread_shell_entry.o)	#SHT_PROGBITS,SHF_MERGE|SHF_STRINGS,1
	0x1b10		
.debug_str	0x48f97	0x25	sdk\libs\txm_lib.lib(txm_module_thread_shell_entry.o)	#SHT_PROGBITS,SHF_MERGE|SHF_STRINGS,1
	0x1b24		
.debug_str	0x48fbc	0x2c	sdk\libs\txm_lib.lib(txm_module_thread_shell_entry.o)	#SHT_PROGBITS,SHF_MERGE|SHF_STRINGS,1
	0x1b49		
.debug_str	0x48fe8	0x21	sdk\libs\txm_lib.lib(txm_module_thread_shell_entry.o)	#SHT_PROGBITS,SHF_MERGE|SHF_STRINGS,1
	0x1b75		
.debug_str	0x49009	0x25	sdk\libs\txm_lib.lib(txm_module_thread_shell_entry.o)	#SHT_PROGBITS,SHF_MERGE|SHF_STRINGS,1
	0x1b96		
.debug_str	0x4902e	0x17	sdk\libs\txm_lib.lib(txm_module_thread_shell_entry.o)	#SHT_PROGBITS,SHF_MERGE|SHF_STRINGS,1
	0x1bbb		
.debug_str	0x49045	0x23	sdk\libs\txm_lib.lib(txm_module_thread_shell_entry.o)	#SHT_PROGBITS,SHF_MERGE|SHF_STRINGS,1
	0x1bd2		
.debug_str	0x49068	0x26	sdk\libs\txm_lib.lib(txm_module_thread_shell_entry.o)	#SHT_PROGBITS,SHF_MERGE|SHF_STRINGS,1
	0x1bf5		
.debug_str	0x4908e	0x20	sdk\libs\txm_lib.lib(txm_module_thread_shell_entry.o)	#SHT_PROGBITS,SHF_MERGE|SHF_STRINGS,1
	0x1c1b		
.debug_str	0x490ae	0x24	sdk\libs\txm_lib.lib(txm_module_thread_shell_entry.o)	#SHT_PROGBITS,SHF_MERGE|SHF_STRINGS,1
	0x1c3b		
.debug_str	0x490d2	0x1b	sdk\libs\txm_lib.lib(txm_module_thread_shell_entry.o)	#SHT_PROGBITS,SHF_MERGE|SHF_STRINGS,1
	0x1c5f		
.debug_str	0x490ed	0x14	sdk\libs\txm_lib.lib(txm_module_thread_shell_entry.o)	#SHT_PROGBITS,SHF_MERGE|SHF_STRINGS,1
	0x1c7a		
.debug_str	0x49101	0x2f	sdk\libs\txm_lib.lib(txm_module_thread_shell_entry.o)	#SHT_PROGBITS,SHF_MERGE|SHF_STRINGS,1
	0x1c8e		
.debug_str	0x49130	0x2f	sdk\libs\txm_lib.lib(txm_module_thread_shell_entry.o)	#SHT_PROGBITS,SHF_MERGE|SHF_STRINGS,1
	0x1cbd		
.debug_str	0x4915f	0x23	sdk\libs\txm_lib.lib(txm_module_thread_shell_entry.o)	#SHT_PROGBITS,SHF_MERGE|SHF_STRINGS,1
	0x1cec		
.debug_str	0x49182	0x27	sdk\libs\txm_lib.lib(txm_module_thread_shell_entry.o)	#SHT_PROGBITS,SHF_MERGE|SHF_STRINGS,1
	0x1d0f		
.debug_str	0x491a9	0x29	sdk\libs\txm_lib.lib(txm_module_thread_shell_entry.o)	#SHT_PROGBITS,SHF_MERGE|SHF_STRINGS,1
	0x1d36		
.debug_str	0x491d2	0x2a	sdk\libs\txm_lib.lib(txm_module_thread_shell_entry.o)	#SHT_PROGBITS,SHF_MERGE|SHF_STRINGS,1
	0x1d5f		
.debug_str	0x491fc	0x35	sdk\libs\txm_lib.lib(txm_module_thread_shell_entry.o)	#SHT_PROGBITS,SHF_MERGE|SHF_STRINGS,1
	0x1d89		
.debug_str	0x49231	0x34	sdk\libs\txm_lib.lib(txm_module_thread_shell_entry.o)	#SHT_PROGBITS,SHF_MERGE|SHF_STRINGS,1
	0x1dbe		
.debug_str	0x49265	0x35	sdk\libs\txm_lib.lib(txm_module_thread_shell_entry.o)	#SHT_PROGBITS,SHF_MERGE|SHF_STRINGS,1
	0x1df2		
.debug_str	0x4929a	0x34	sdk\libs\txm_lib.lib(txm_module_thread_shell_entry.o)	#SHT_PROGBITS,SHF_MERGE|SHF_STRINGS,1
	0x1e27		
.debug_str	0x492ce	0x24	sdk\libs\txm_lib.lib(txm_module_thread_shell_entry.o)	#SHT_PROGBITS,SHF_MERGE|SHF_STRINGS,1
	0x1e5b		
.debug_str	0x492f2	0x1d	sdk\libs\txm_lib.lib(txm_module_thread_shell_entry.o)	#SHT_PROGBITS,SHF_MERGE|SHF_STRINGS,1
	0x1e7f		
.debug_str	0x4930f	0x19	sdk\libs\txm_lib.lib(txm_module_thread_shell_entry.o)	#SHT_PROGBITS,SHF_MERGE|SHF_STRINGS,1
	0x1e9c		
.debug_str	0x49328	0x23	sdk\libs\txm_lib.lib(txm_module_thread_shell_entry.o)	#SHT_PROGBITS,SHF_MERGE|SHF_STRINGS,1
	0x1eb5		
.debug_str	0x4934b	0xa	sdk\libs\txm_lib.lib(txm_module_thread_shell_entry.o)	#SHT_PROGBITS,SHF_MERGE|SHF_STRINGS,1
	0x1ed8		
.debug_str	0x49355	0x1f	sdk\libs\txm_lib.lib(txm_module_thread_shell_entry.o)	#SHT_PROGBITS,SHF_MERGE|SHF_STRINGS,1
	0x1ee2		
.debug_str	0x49374	0xb	sdk\libs\txm_lib.lib(txm_module_thread_shell_entry.o)	#SHT_PROGBITS,SHF_MERGE|SHF_STRINGS,1
	0x1f01		
.debug_str	0x4937f	0xc	sdk\libs\txm_lib.lib(txm_module_thread_shell_entry.o)	#SHT_PROGBITS,SHF_MERGE|SHF_STRINGS,1
	0x1f0c		
.debug_str	0x4938b	0xb4	sdk\libs\txm_lib.lib(txm_module_callback_request_thread_entry.o)	#SHT_PROGBITS,SHF_MERGE|SHF_STRINGS,1
	0x1f18		
.debug_str	0x4943f	0x18	sdk\libs\txm_lib.lib(txm_module_callback_request_thread_entry.o)	#SHT_PROGBITS,SHF_MERGE|SHF_STRINGS,1
	0x1fcc		
.debug_str	0x49457	0x1a	sdk\libs\txm_lib.lib(txm_module_callback_request_thread_entry.o)	#SHT_PROGBITS,SHF_MERGE|SHF_STRINGS,1
	0x1fe4		
.debug_str	0x49471	0x1d	sdk\libs\txm_lib.lib(txm_module_callback_request_thread_entry.o)	#SHT_PROGBITS,SHF_MERGE|SHF_STRINGS,1
	0x1ffe		
.debug_str	0x4948e	0x22	sdk\libs\txm_lib.lib(txm_module_callback_request_thread_entry.o)	#SHT_PROGBITS,SHF_MERGE|SHF_STRINGS,1
	0x201b		
.debug_str	0x494b0	0x25	sdk\libs\txm_lib.lib(txm_module_callback_request_thread_entry.o)	#SHT_PROGBITS,SHF_MERGE|SHF_STRINGS,1
	0x203d		
.debug_str	0x494d5	0x25	sdk\libs\txm_lib.lib(txm_module_callback_request_thread_entry.o)	#SHT_PROGBITS,SHF_MERGE|SHF_STRINGS,1
	0x2062		
.debug_str	0x494fa	0x22	sdk\libs\txm_lib.lib(txm_module_callback_request_thread_entry.o)	#SHT_PROGBITS,SHF_MERGE|SHF_STRINGS,1
	0x2087		
.debug_str	0x4951c	0x26	sdk\libs\txm_lib.lib(txm_module_callback_request_thread_entry.o)	#SHT_PROGBITS,SHF_MERGE|SHF_STRINGS,1
	0x20a9		
.debug_str	0x49542	0x23	sdk\libs\txm_lib.lib(txm_module_callback_request_thread_entry.o)	#SHT_PROGBITS,SHF_MERGE|SHF_STRINGS,1
	0x20cf		
.debug_str	0x49565	0x1c	sdk\libs\txm_lib.lib(txm_module_callback_request_thread_entry.o)	#SHT_PROGBITS,SHF_MERGE|SHF_STRINGS,1
	0x20f2		
.debug_str	0x49581	0x15	sdk\libs\txm_lib.lib(txm_module_callback_request_thread_entry.o)	#SHT_PROGBITS,SHF_MERGE|SHF_STRINGS,1
	0x210e		
.debug_str	0x49596	0x10	sdk\libs\txm_lib.lib(txm_module_callback_request_thread_entry.o)	#SHT_PROGBITS,SHF_MERGE|SHF_STRINGS,1
	0x2123		
.debug_str	0x495a6	0x12	sdk\libs\txm_lib.lib(txm_module_callback_request_thread_entry.o)	#SHT_PROGBITS,SHF_MERGE|SHF_STRINGS,1
	0x2133		
.debug_str	0x495b8	0x13	sdk\libs\txm_lib.lib(txm_module_callback_request_thread_entry.o)	#SHT_PROGBITS,SHF_MERGE|SHF_STRINGS,1
	0x2145		
.debug_str	0x495cb	0x1d	sdk\libs\txm_lib.lib(txm_module_callback_request_thread_entry.o)	#SHT_PROGBITS,SHF_MERGE|SHF_STRINGS,1
	0x2158		
.debug_str	0x495e8	0x1d	sdk\libs\txm_lib.lib(txm_module_callback_request_thread_entry.o)	#SHT_PROGBITS,SHF_MERGE|SHF_STRINGS,1
	0x2175		
.debug_str	0x49605	0x1a	sdk\libs\txm_lib.lib(txm_module_callback_request_thread_entry.o)	#SHT_PROGBITS,SHF_MERGE|SHF_STRINGS,1
	0x2192		
.debug_str	0x4961f	0x1e	sdk\libs\txm_lib.lib(txm_module_callback_request_thread_entry.o)	#SHT_PROGBITS,SHF_MERGE|SHF_STRINGS,1
	0x21ac		
.debug_str	0x4963d	0x14	sdk\libs\txm_lib.lib(txm_module_callback_request_thread_entry.o)	#SHT_PROGBITS,SHF_MERGE|SHF_STRINGS,1
	0x21ca		
.debug_str	0x49651	0xd	sdk\libs\txm_lib.lib(txm_module_callback_request_thread_entry.o)	#SHT_PROGBITS,SHF_MERGE|SHF_STRINGS,1
	0x21de		
.debug_str	0x4965e	0x18	sdk\libs\txm_lib.lib(txm_module_callback_request_thread_entry.o)	#SHT_PROGBITS,SHF_MERGE|SHF_STRINGS,1
	0x21eb		
.debug_str	0x49676	0x2a	sdk\libs\txm_lib.lib(txm_module_callback_request_thread_entry.o)	#SHT_PROGBITS,SHF_MERGE|SHF_STRINGS,1
	0x2203		
.debug_str	0x496a0	0x3	sdk\libs\txm_lib.lib(txm_module_callback_request_thread_entry.o)	#SHT_PROGBITS,SHF_MERGE|SHF_STRINGS,1
	0x222d		
.debug_str	0x496a3	0x7	sdk\libs\txm_lib.lib(txm_module_callback_request_thread_entry.o)	#SHT_PROGBITS,SHF_MERGE|SHF_STRINGS,1
	0x2230		
.debug_str	0x496aa	0xf	sdk\libs\txm_lib.lib(txm_module_callback_request_thread_entry.o)	#SHT_PROGBITS,SHF_MERGE|SHF_STRINGS,1
	0x2237		
.debug_str	0x496b9	0x19	sdk\libs\txm_lib.lib(txm_module_callback_request_thread_entry.o)	#SHT_PROGBITS,SHF_MERGE|SHF_STRINGS,1
	0x2246		
.debug_str	0x496d2	0x12	sdk\libs\txm_lib.lib(txm_module_callback_request_thread_entry.o)	#SHT_PROGBITS,SHF_MERGE|SHF_STRINGS,1
	0x225f		
.debug_str	0x496e4	0xe	sdk\libs\txm_lib.lib(txm_module_callback_request_thread_entry.o)	#SHT_PROGBITS,SHF_MERGE|SHF_STRINGS,1
	0x2271		
.debug_str	0x496f2	0xf	sdk\libs\txm_lib.lib(txm_module_callback_request_thread_entry.o)	#SHT_PROGBITS,SHF_MERGE|SHF_STRINGS,1
	0x227f		
.debug_str	0x49701	0x11	sdk\libs\txm_lib.lib(txm_module_callback_request_thread_entry.o)	#SHT_PROGBITS,SHF_MERGE|SHF_STRINGS,1
	0x228e		
.debug_str	0x49712	0x24	sdk\libs\txm_lib.lib(txm_module_callback_request_thread_entry.o)	#SHT_PROGBITS,SHF_MERGE|SHF_STRINGS,1
	0x229f		
.debug_str	0x49736	0x1a	sdk\libs\txm_lib.lib(txm_module_callback_request_thread_entry.o)	#SHT_PROGBITS,SHF_MERGE|SHF_STRINGS,1
	0x22c3		
.debug_str	0x49750	0x22	sdk\libs\txm_lib.lib(txm_module_callback_request_thread_entry.o)	#SHT_PROGBITS,SHF_MERGE|SHF_STRINGS,1
	0x22dd		
.debug_str	0x49772	0x1e	sdk\libs\txm_lib.lib(txm_module_callback_request_thread_entry.o)	#SHT_PROGBITS,SHF_MERGE|SHF_STRINGS,1
	0x22ff		
.debug_str	0x49790	0x25	sdk\libs\txm_lib.lib(txm_module_callback_request_thread_entry.o)	#SHT_PROGBITS,SHF_MERGE|SHF_STRINGS,1
	0x231d		
.debug_str	0x497b5	0x24	sdk\libs\txm_lib.lib(txm_module_callback_request_thread_entry.o)	#SHT_PROGBITS,SHF_MERGE|SHF_STRINGS,1
	0x2342		
.debug_str	0x497d9	0x22	sdk\libs\txm_lib.lib(txm_module_callback_request_thread_entry.o)	#SHT_PROGBITS,SHF_MERGE|SHF_STRINGS,1
	0x2366		
.debug_str	0x497fb	0x29	sdk\libs\txm_lib.lib(txm_module_callback_request_thread_entry.o)	#SHT_PROGBITS,SHF_MERGE|SHF_STRINGS,1
	0x2388		
.debug_str	0x49824	0x19	sdk\libs\txm_lib.lib(txm_module_callback_request_thread_entry.o)	#SHT_PROGBITS,SHF_MERGE|SHF_STRINGS,1
	0x23b1		
.debug_str	0x4983d	0x1f	sdk\libs\txm_lib.lib(txm_module_callback_request_thread_entry.o)	#SHT_PROGBITS,SHF_MERGE|SHF_STRINGS,1
	0x23ca		
.debug_str	0x4985c	0x17	sdk\libs\txm_lib.lib(txm_module_callback_request_thread_entry.o)	#SHT_PROGBITS,SHF_MERGE|SHF_STRINGS,1
	0x23e9		
.debug_str	0x49873	0x1c	sdk\libs\txm_lib.lib(txm_module_callback_request_thread_entry.o)	#SHT_PROGBITS,SHF_MERGE|SHF_STRINGS,1
	0x2400		
.debug_str	0x4988f	0x1c	sdk\libs\txm_lib.lib(txm_module_callback_request_thread_entry.o)	#SHT_PROGBITS,SHF_MERGE|SHF_STRINGS,1
	0x241c		
.debug_str	0x498ab	0x19	sdk\libs\txm_lib.lib(txm_module_callback_request_thread_entry.o)	#SHT_PROGBITS,SHF_MERGE|SHF_STRINGS,1
	0x2438		
.debug_str	0x498c4	0x1d	sdk\libs\txm_lib.lib(txm_module_callback_request_thread_entry.o)	#SHT_PROGBITS,SHF_MERGE|SHF_STRINGS,1
	0x2451		
.debug_str	0x498e1	0x21	sdk\libs\txm_lib.lib(txm_module_callback_request_thread_entry.o)	#SHT_PROGBITS,SHF_MERGE|SHF_STRINGS,1
	0x246e		
.debug_str	0x49902	0x25	sdk\libs\txm_lib.lib(txm_module_callback_request_thread_entry.o)	#SHT_PROGBITS,SHF_MERGE|SHF_STRINGS,1
	0x248f		
.debug_str	0x49927	0x1c	sdk\libs\txm_lib.lib(txm_module_callback_request_thread_entry.o)	#SHT_PROGBITS,SHF_MERGE|SHF_STRINGS,1
	0x24b4		
.debug_str	0x49943	0x1c	sdk\libs\txm_lib.lib(txm_module_callback_request_thread_entry.o)	#SHT_PROGBITS,SHF_MERGE|SHF_STRINGS,1
	0x24d0		
.debug_str	0x4995f	0x1c	sdk\libs\txm_lib.lib(txm_module_callback_request_thread_entry.o)	#SHT_PROGBITS,SHF_MERGE|SHF_STRINGS,1
	0x24ec		
.debug_str	0x4997b	0x1c	sdk\libs\txm_lib.lib(txm_module_callback_request_thread_entry.o)	#SHT_PROGBITS,SHF_MERGE|SHF_STRINGS,1
	0x2508		
.debug_str	0x49997	0x1c	sdk\libs\txm_lib.lib(txm_module_callback_request_thread_entry.o)	#SHT_PROGBITS,SHF_MERGE|SHF_STRINGS,1
	0x2524		
.debug_str	0x499b3	0x1c	sdk\libs\txm_lib.lib(txm_module_callback_request_thread_entry.o)	#SHT_PROGBITS,SHF_MERGE|SHF_STRINGS,1
	0x2540		
.debug_str	0x499cf	0x1b	sdk\libs\txm_lib.lib(txm_module_callback_request_thread_entry.o)	#SHT_PROGBITS,SHF_MERGE|SHF_STRINGS,1
	0x255c		
.debug_str	0x499ea	0x14	sdk\libs\txm_lib.lib(txm_module_callback_request_thread_entry.o)	#SHT_PROGBITS,SHF_MERGE|SHF_STRINGS,1
	0x2577		
.debug_str	0x499fe	0x30	sdk\libs\txm_lib.lib(txm_module_callback_request_thread_entry.o)	#SHT_PROGBITS,SHF_MERGE|SHF_STRINGS,1
	0x258b		
.debug_str	0x49a2e	0x23	sdk\libs\txm_lib.lib(txm_module_callback_request_thread_entry.o)	#SHT_PROGBITS,SHF_MERGE|SHF_STRINGS,1
	0x25bb		
.debug_str	0x49a51	0x23	sdk\libs\txm_lib.lib(txm_module_callback_request_thread_entry.o)	#SHT_PROGBITS,SHF_MERGE|SHF_STRINGS,1
	0x25de		
.debug_str	0x49a74	0x20	sdk\libs\txm_lib.lib(txm_module_callback_request_thread_entry.o)	#SHT_PROGBITS,SHF_MERGE|SHF_STRINGS,1
	0x2601		
.debug_str	0x49a94	0x29	sdk\libs\txm_lib.lib(txm_module_callback_request_thread_entry.o)	#SHT_PROGBITS,SHF_MERGE|SHF_STRINGS,1
	0x2621		
.debug_str	0x49abd	0x25	sdk\libs\txm_lib.lib(txm_module_callback_request_thread_entry.o)	#SHT_PROGBITS,SHF_MERGE|SHF_STRINGS,1
	0x264a		
.debug_str	0x49ae2	0x25	sdk\libs\txm_lib.lib(txm_module_callback_request_thread_entry.o)	#SHT_PROGBITS,SHF_MERGE|SHF_STRINGS,1
	0x266f		
.debug_str	0x49b07	0x28	sdk\libs\txm_lib.lib(txm_module_callback_request_thread_entry.o)	#SHT_PROGBITS,SHF_MERGE|SHF_STRINGS,1
	0x2694		
.debug_str	0x49b2f	0x2c	sdk\libs\txm_lib.lib(txm_module_callback_request_thread_entry.o)	#SHT_PROGBITS,SHF_MERGE|SHF_STRINGS,1
	0x26bc		
.debug_str	0x49b5b	0x23	sdk\libs\txm_lib.lib(txm_module_callback_request_thread_entry.o)	#SHT_PROGBITS,SHF_MERGE|SHF_STRINGS,1
	0x26e8		
.debug_str	0x49b7e	0x23	sdk\libs\txm_lib.lib(txm_module_callback_request_thread_entry.o)	#SHT_PROGBITS,SHF_MERGE|SHF_STRINGS,1
	0x270b		
.debug_str	0x49ba1	0x23	sdk\libs\txm_lib.lib(txm_module_callback_request_thread_entry.o)	#SHT_PROGBITS,SHF_MERGE|SHF_STRINGS,1
	0x272e		
.debug_str	0x49bc4	0x23	sdk\libs\txm_lib.lib(txm_module_callback_request_thread_entry.o)	#SHT_PROGBITS,SHF_MERGE|SHF_STRINGS,1
	0x2751		
.debug_str	0x49be7	0x23	sdk\libs\txm_lib.lib(txm_module_callback_request_thread_entry.o)	#SHT_PROGBITS,SHF_MERGE|SHF_STRINGS,1
	0x2774		
.debug_str	0x49c0a	0x23	sdk\libs\txm_lib.lib(txm_module_callback_request_thread_entry.o)	#SHT_PROGBITS,SHF_MERGE|SHF_STRINGS,1
	0x2797		
.debug_str	0x49c2d	0x22	sdk\libs\txm_lib.lib(txm_module_callback_request_thread_entry.o)	#SHT_PROGBITS,SHF_MERGE|SHF_STRINGS,1
	0x27ba		
.debug_str	0x49c4f	0x1b	sdk\libs\txm_lib.lib(txm_module_callback_request_thread_entry.o)	#SHT_PROGBITS,SHF_MERGE|SHF_STRINGS,1
	0x27dc		
.debug_str	0x49c6a	0x12	sdk\libs\txm_lib.lib(txm_module_callback_request_thread_entry.o)	#SHT_PROGBITS,SHF_MERGE|SHF_STRINGS,1
	0x27f7		
.debug_str	0x49c7c	0x15	sdk\libs\txm_lib.lib(txm_module_callback_request_thread_entry.o)	#SHT_PROGBITS,SHF_MERGE|SHF_STRINGS,1
	0x2809		
.debug_str	0x49c91	0x12	sdk\libs\txm_lib.lib(txm_module_callback_request_thread_entry.o)	#SHT_PROGBITS,SHF_MERGE|SHF_STRINGS,1
	0x281e		
.debug_str	0x49ca3	0xa4	sdk\libs\txm_lib.lib(txm_module_system_call11.o)	#SHT_PROGBITS,SHF_MERGE|SHF_STRINGS,1
	0x2830		
.debug_str	0x49d47	0x1a	sdk\libs\txm_lib.lib(txm_module_system_call11.o)	#SHT_PROGBITS,SHF_MERGE|SHF_STRINGS,1
	0x28d4		
.debug_str	0x49d61	0x11	sdk\libs\txm_lib.lib(txm_module_system_call11.o)	#SHT_PROGBITS,SHF_MERGE|SHF_STRINGS,1
	0x28ee		
.debug_str	0x49d72	0x8	sdk\libs\txm_lib.lib(txm_module_system_call11.o)	#SHT_PROGBITS,SHF_MERGE|SHF_STRINGS,1
	0x28ff		
.debug_str	0x49d7a	0x8	sdk\libs\txm_lib.lib(txm_module_system_call11.o)	#SHT_PROGBITS,SHF_MERGE|SHF_STRINGS,1
	0x2907		
.debug_str	0x49d82	0x8	sdk\libs\txm_lib.lib(txm_module_system_call11.o)	#SHT_PROGBITS,SHF_MERGE|SHF_STRINGS,1
	0x290f		
.debug_str	0x49d8a	0x8	sdk\libs\txm_lib.lib(txm_module_system_call11.o)	#SHT_PROGBITS,SHF_MERGE|SHF_STRINGS,1
	0x2917		
.debug_str	0x49d92	0x8	sdk\libs\txm_lib.lib(txm_module_system_call11.o)	#SHT_PROGBITS,SHF_MERGE|SHF_STRINGS,1
	0x291f		
.debug_str	0x49d9a	0x8	sdk\libs\txm_lib.lib(txm_module_system_call11.o)	#SHT_PROGBITS,SHF_MERGE|SHF_STRINGS,1
	0x2927		
.debug_str	0x49da2	0x8	sdk\libs\txm_lib.lib(txm_module_system_call11.o)	#SHT_PROGBITS,SHF_MERGE|SHF_STRINGS,1
	0x292f		
.debug_str	0x49daa	0x8	sdk\libs\txm_lib.lib(txm_module_system_call11.o)	#SHT_PROGBITS,SHF_MERGE|SHF_STRINGS,1
	0x2937		
.debug_str	0x49db2	0x8	sdk\libs\txm_lib.lib(txm_module_system_call11.o)	#SHT_PROGBITS,SHF_MERGE|SHF_STRINGS,1
	0x293f		
.debug_str	0x49dba	0x8	sdk\libs\txm_lib.lib(txm_module_system_call11.o)	#SHT_PROGBITS,SHF_MERGE|SHF_STRINGS,1
	0x2947		
.debug_str	0x49dc2	0x9	sdk\libs\txm_lib.lib(txm_module_system_call11.o)	#SHT_PROGBITS,SHF_MERGE|SHF_STRINGS,1
	0x294f		
.debug_str	0x49dcb	0x9	sdk\libs\txm_lib.lib(txm_module_system_call11.o)	#SHT_PROGBITS,SHF_MERGE|SHF_STRINGS,1
	0x2958		
.debug_str	0x49dd4	0xd	sdk\libs\txm_lib.lib(txm_module_system_call11.o)	#SHT_PROGBITS,SHF_MERGE|SHF_STRINGS,1
	0x2961		
.debug_str	0x49de1	0xa4	sdk\libs\txm_lib.lib(txm_module_system_call12.o)	#SHT_PROGBITS,SHF_MERGE|SHF_STRINGS,1
	0x296e		
.debug_str	0x49e85	0x1a	sdk\libs\txm_lib.lib(txm_module_system_call12.o)	#SHT_PROGBITS,SHF_MERGE|SHF_STRINGS,1
	0x2a12		
.debug_str	0x49e9f	0x9	sdk\libs\txm_lib.lib(txm_module_system_call12.o)	#SHT_PROGBITS,SHF_MERGE|SHF_STRINGS,1
	0x2a2c		
.debug_str	0x49ea8	0xa3	sdk\libs\txm_lib.lib(txm_module_system_call4.o)	#SHT_PROGBITS,SHF_MERGE|SHF_STRINGS,1
	0x2a35		
.debug_str	0x49f4b	0x19	sdk\libs\txm_lib.lib(txm_module_system_call4.o)	#SHT_PROGBITS,SHF_MERGE|SHF_STRINGS,1
	0x2ad8		
.debug_str	0x49f64	0xa3	sdk\libs\txm_lib.lib(txm_module_system_call5.o)	#SHT_PROGBITS,SHF_MERGE|SHF_STRINGS,1
	0x2af1		
.debug_str	0x4a007	0x19	sdk\libs\txm_lib.lib(txm_module_system_call5.o)	#SHT_PROGBITS,SHF_MERGE|SHF_STRINGS,1
	0x2b94		
.debug_str	0x4a020	0xa3	sdk\libs\txm_lib.lib(txm_module_system_call6.o)	#SHT_PROGBITS,SHF_MERGE|SHF_STRINGS,1
	0x2bad		
.debug_str	0x4a0c3	0x19	sdk\libs\txm_lib.lib(txm_module_system_call6.o)	#SHT_PROGBITS,SHF_MERGE|SHF_STRINGS,1
	0x2c50		
.debug_str	0x4a0dc	0xa3	sdk\libs\txm_lib.lib(txm_module_system_call7.o)	#SHT_PROGBITS,SHF_MERGE|SHF_STRINGS,1
	0x2c69		
.debug_str	0x4a17f	0x19	sdk\libs\txm_lib.lib(txm_module_system_call7.o)	#SHT_PROGBITS,SHF_MERGE|SHF_STRINGS,1
	0x2d0c		
.debug_str	0x4a198	0xa3	sdk\libs\txm_lib.lib(txm_module_system_call8.o)	#SHT_PROGBITS,SHF_MERGE|SHF_STRINGS,1
	0x2d25		
.debug_str	0x4a23b	0x19	sdk\libs\txm_lib.lib(txm_module_system_call8.o)	#SHT_PROGBITS,SHF_MERGE|SHF_STRINGS,1
	0x2dc8		

.debug_loc	0x4a254	0x8df # Offset: 0x4a254
*(.debug_loc )
.debug_loc	0x4a254	0x30c	sdk\libs\timer_dam_lib.lib(qapi_timer_user.o)	#SHT_PROGBITS,,1
.debug_loc	0x4a560	0x3c	sdk\libs\txm_lib.lib(txm_module_thread_shell_entry.o)	#SHT_PROGBITS,,1
.debug_loc	0x4a59c	0x75	sdk\libs\txm_lib.lib(txm_module_callback_request_thread_entry.o)	#SHT_PROGBITS,,1
.debug_loc	0x4a611	0x103	sdk\libs\txm_lib.lib(txm_module_system_call11.o)	#SHT_PROGBITS,,1
.debug_loc	0x4a714	0x118	sdk\libs\txm_lib.lib(txm_module_system_call12.o)	#SHT_PROGBITS,,1
.debug_loc	0x4a82c	0x73	sdk\libs\txm_lib.lib(txm_module_system_call4.o)	#SHT_PROGBITS,,1
.debug_loc	0x4a89f	0x87	sdk\libs\txm_lib.lib(txm_module_system_call5.o)	#SHT_PROGBITS,,1
.debug_loc	0x4a926	0x9b	sdk\libs\txm_lib.lib(txm_module_system_call6.o)	#SHT_PROGBITS,,1
.debug_loc	0x4a9c1	0xaf	sdk\libs\txm_lib.lib(txm_module_system_call7.o)	#SHT_PROGBITS,,1
.debug_loc	0x4aa70	0xc3	sdk\libs\txm_lib.lib(txm_module_system_call8.o)	#SHT_PROGBITS,,1

.debug_macinfo	0x4ab33	0xa # Offset: 0x4ab33
*(.debug_macinfo )
.debug_macinfo	0x4ab33	0x1	sdk\libs\timer_dam_lib.lib(qapi_timer_user.o)	#SHT_PROGBITS,,1
.debug_macinfo	0x4ab34	0x1	sdk\libs\txm_lib.lib(txm_module_thread_shell_entry.o)	#SHT_PROGBITS,,1
.debug_macinfo	0x4ab35	0x1	sdk\libs\txm_lib.lib(txm_module_callback_request_thread_entry.o)	#SHT_PROGBITS,,1
.debug_macinfo	0x4ab36	0x1	sdk\libs\txm_lib.lib(txm_module_system_call11.o)	#SHT_PROGBITS,,1
.debug_macinfo	0x4ab37	0x1	sdk\libs\txm_lib.lib(txm_module_system_call12.o)	#SHT_PROGBITS,,1
.debug_macinfo	0x4ab38	0x1	sdk\libs\txm_lib.lib(txm_module_system_call4.o)	#SHT_PROGBITS,,1
.debug_macinfo	0x4ab39	0x1	sdk\libs\txm_lib.lib(txm_module_system_call5.o)	#SHT_PROGBITS,,1
.debug_macinfo	0x4ab3a	0x1	sdk\libs\txm_lib.lib(txm_module_system_call6.o)	#SHT_PROGBITS,,1
.debug_macinfo	0x4ab3b	0x1	sdk\libs\txm_lib.lib(txm_module_system_call7.o)	#SHT_PROGBITS,,1
.debug_macinfo	0x4ab3c	0x1	sdk\libs\txm_lib.lib(txm_module_system_call8.o)	#SHT_PROGBITS,,1

.debug_weaknames	0x4ab3d	0x0 # Offset: 0x4ab3d

.debug_funcnames	0x4ab3d	0x0 # Offset: 0x4ab3d

.debug_typenames	0x4ab3d	0x0 # Offset: 0x4ab3d

.debug_varnames	0x4ab3d	0x0 # Offset: 0x4ab3d

.debug_pubtypes	0x4ab3d	0x88e # Offset: 0x4ab3d
*(.debug_pubtypes )
.debug_pubtypes	0x4ab3d	0x2bb	sdk\libs\timer_dam_lib.lib(qapi_timer_user.o)	#SHT_PROGBITS,,1
.debug_pubtypes	0x4adf8	0x1e2	sdk\libs\txm_lib.lib(txm_module_thread_shell_entry.o)	#SHT_PROGBITS,,1
.debug_pubtypes	0x4afda	0x293	sdk\libs\txm_lib.lib(txm_module_callback_request_thread_entry.o)	#SHT_PROGBITS,,1
.debug_pubtypes	0x4b26d	0x32	sdk\libs\txm_lib.lib(txm_module_system_call11.o)	#SHT_PROGBITS,,1
.debug_pubtypes	0x4b29f	0x32	sdk\libs\txm_lib.lib(txm_module_system_call12.o)	#SHT_PROGBITS,,1
.debug_pubtypes	0x4b2d1	0x32	sdk\libs\txm_lib.lib(txm_module_system_call4.o)	#SHT_PROGBITS,,1
.debug_pubtypes	0x4b303	0x32	sdk\libs\txm_lib.lib(txm_module_system_call5.o)	#SHT_PROGBITS,,1
.debug_pubtypes	0x4b335	0x32	sdk\libs\txm_lib.lib(txm_module_system_call6.o)	#SHT_PROGBITS,,1
.debug_pubtypes	0x4b367	0x32	sdk\libs\txm_lib.lib(txm_module_system_call7.o)	#SHT_PROGBITS,,1
.debug_pubtypes	0x4b399	0x32	sdk\libs\txm_lib.lib(txm_module_system_call8.o)	#SHT_PROGBITS,,1

.debug_ranges	0x4b3cb	0x58 # Offset: 0x4b3cb
*(.debug_ranges )
.debug_ranges	0x4b3cb	0x58	sdk\libs\timer_dam_lib.lib(qapi_timer_user.o)	#SHT_PROGBITS,,1

.gnu.attributes	0x0	0x0 # Offset: 0x4b423, LMA: 0x0

.note.gnu.arm.ident	0x0	0x0 # Offset: 0x4b423, LMA: 0x0

.ARM.attributes	0x4b423	0x10 # Offset: 0x4b423

.comment	0x4b433	0x65 # Offset: 0x4b433
.comment	0x4b433	0x1	D:\4.0.3\armv7m-none-eabi\libc\lib/libc.a(tolower.o)	#SHT_PROGBITS,SHF_MERGE|SHF_STRINGS,1
.comment	0x4b470	0x28	Linker Version	#SHT_PROGBITS,SHF_MERGE|SHF_STRINGS,1

.note.GNU-stack	0x4b498	0x0 # Offset: 0x4b498

/DISCARD/	0x75	0x0 # Offset: 0x4b498, LMA: 0x0

.shstrtab	0x4b498	0xcc # Offset: 0x4b498

.symtab	0x4b564	0x123c0 # Offset: 0x4b564

.strtab	0x5d924	0xc4fe # Offset: 0x5d924
